 EDISON

 Timestamp is 49872ec1 (Mon Feb 02 12:34:57 2009)

 Preferred load address is 00400000

 Start         Length     Name                   Class
 0001:00000000 0019843cH .text                   CODE
 0001:00198440 00004cd5H .text$x                 CODE
 0002:00000000 0002f780H .rdata                  DATA
 0002:0002f780 00004040H .xdata$x                DATA
 0002:000337c0 00000000H .edata                  DATA
 0003:00000000 00000004H .CRT$XCA                DATA
 0003:00000004 00000f28H .CRT$XCU                DATA
 0003:00000f2c 00000004H .CRT$XCZ                DATA
 0003:00000f30 00000004H .CRT$XIA                DATA
 0003:00000f34 00000004H .CRT$XIZ                DATA
 0003:00000f40 00034d34H .data                   DATA
 0003:00035c78 0001a178H .bss                    DATA
 0004:00000000 000000dcH .idata$2                DATA
 0004:000000dc 00000014H .idata$3                DATA
 0004:000000f0 000008d4H .idata$4                DATA
 0004:000009c4 000008d4H .idata$5                DATA
 0004:00001298 000021f0H .idata$6                DATA
 0005:00000000 0000148cH .rsrc$01                DATA
 0005:00001490 00011170H .rsrc$02                DATA

  Address         Publics by Value              Rva+Base     Lib:Object

 0001:00000000       ??0BgEdge@@QAE@XZ          00401000 f   BgEdge.obj
 0001:00000060       ??1BgEdge@@QAE@XZ          00401060 f   BgEdge.obj
 0001:000000e0       ?SetPoints@BgEdge@@QAEXPAMH@Z 004010e0 f   BgEdge.obj
 0001:00000190       ?SetPoints@BgEdge@@QAEXPAHH@Z 00401190 f   BgEdge.obj
 0001:00000230       ?SetGradient@BgEdge@@QAEXPAM00H@Z 00401230 f   BgEdge.obj
 0001:00000440       ??0BgEdgeDetect@@QAE@H@Z   00401440 f   BgEdgeDetect.obj
 0001:000004e0       ??1BgEdgeDetect@@QAE@XZ    004014e0 f   BgEdgeDetect.obj
 0001:00000650       ?IsGood@BgEdgeDetect@@QAEXXZ 00401650 f   BgEdgeDetect.obj
 0001:00000690       ?EllipseEval@BgEdgeDetect@@QAEMMM@Z 00401690 f   BgEdgeDetect.obj
 0001:000006f0       ?EllipseComp@BgEdgeDetect@@QAEMMMMM@Z 004016f0 f   BgEdgeDetect.obj
 0001:00000750       ?LineEval@BgEdgeDetect@@QAEMMM@Z 00401750 f   BgEdgeDetect.obj
 0001:000007a0       ?LineComp@BgEdgeDetect@@QAEMMMMM@Z 004017a0 f   BgEdgeDetect.obj
 0001:000007e0       ?VerticalLineEval@BgEdgeDetect@@QAEMMM@Z 004017e0 f   BgEdgeDetect.obj
 0001:00000810       ?VerticalLineComp@BgEdgeDetect@@QAEMMMMM@Z 00401810 f   BgEdgeDetect.obj
 0001:00000830       ?HorizontalLineEval@BgEdgeDetect@@QAEMMM@Z 00401830 f   BgEdgeDetect.obj
 0001:00000860       ?HorizontalLineComp@BgEdgeDetect@@QAEMMMMM@Z 00401860 f   BgEdgeDetect.obj
 0001:00000880       ?SquareEval@BgEdgeDetect@@QAEMMM@Z 00401880 f   BgEdgeDetect.obj
 0001:000008d0       ?SquareComp@BgEdgeDetect@@QAEMMMMM@Z 004018d0 f   BgEdgeDetect.obj
 0001:00000980       ?CustomRegionEval@BgEdgeDetect@@QAEMMM@Z 00401980 f   BgEdgeDetect.obj
 0001:00000b60       ?CustomRegionComp@BgEdgeDetect@@QAEMMMMM@Z 00401b60 f   BgEdgeDetect.obj
 0001:00000b80       ?GenerateMaskAngle@BgEdgeDetect@@IAEXPANN@Z 00401b80 f   BgEdgeDetect.obj
 0001:00001940       ?CreateFilters@BgEdgeDetect@@IAEXXZ 00402940 f   BgEdgeDetect.obj
 0001:00001cc0       ?CreateLookTable@BgEdgeDetect@@IAEXXZ 00402cc0 f   BgEdgeDetect.obj
 0001:00001d50       ?DeleteLookTable@BgEdgeDetect@@IAEXXZ 00402d50 f   BgEdgeDetect.obj
 0001:00001da0       ?GetPixels@BgEdgeDetect@@QAEXPAH00NNNN@Z 00402da0 f   BgEdgeDetect.obj
 0001:00001f60       ?GetNmxPixels@BgEdgeDetect@@QAEXPAH00NNNN@Z 00402f60 f   BgEdgeDetect.obj
 0001:00002120       ?DoRecompute@BgEdgeDetect@@QAEXPAVBgEdgeList@@NNNNNNHHHH@Z 00403120 f   BgEdgeDetect.obj
 0001:000026a0       ?SaveNmxValues@BgEdgeDetect@@QAEXXZ 004036a0 f   BgEdgeDetect.obj
 0001:00002820       ?ComputeEdgeInfo@BgEdgeDetect@@QAEXPAVBgImage@@PAM1@Z 00403820 f   BgEdgeDetect.obj
 0001:00002a30       ?DoEdgeDetect@BgEdgeDetect@@QAEXPAVBgImage@@PAVBgEdgeList@@NNNNNNHHHH@Z 00403a30 f   BgEdgeDetect.obj
 0001:00003190       ?SubspaceEstim@BgEdgeDetect@@IAEXPAM000@Z 00404190 f   BgEdgeDetect.obj
 0001:000036d0       ?GaussFilter@BgEdgeDetect@@IAEXPAVBgImage@@PAMNH@Z 004046d0 f   BgEdgeDetect.obj
 0001:00003d60       ?GaussDiffFilter@BgEdgeDetect@@IAEXPAVBgImage@@PAM11@Z 00404d60 f   BgEdgeDetect.obj
 0001:00004250       ?CompRanks@BgEdgeDetect@@IAEXPAM0@Z 00405250 f   BgEdgeDetect.obj
 0001:00004570       ?StrConfEstim@BgEdgeDetect@@IAEXPAM00P81@AEMMM@Z@Z 00405570 f   BgEdgeDetect.obj
 0001:000045e0       ?Strength@BgEdgeDetect@@IAEXPAM00@Z 004055e0 f   BgEdgeDetect.obj
 0001:000046a0       ?NewNonMaxSupress@BgEdgeDetect@@IAEXPAM00000P81@AEMMMMM@Z@Z 004056a0 f   BgEdgeDetect.obj
 0001:00004e60       ?NewHysteresisTr@BgEdgeDetect@@IAEXPAM0PAVBgEdgeList@@H00@Z 00405e60 f   BgEdgeDetect.obj
 0001:00004fd0       ?NewEdgeFollow@BgEdgeDetect@@IAEXHH@Z 00405fd0 f   BgEdgeDetect.obj
 0001:00005110       ?SetCustomHigh@BgEdgeDetect@@QAEXPAH0HHH@Z 00406110 f   BgEdgeDetect.obj
 0001:00005360       ?SetCustomHigh@BgEdgeDetect@@QAEXPAN0H@Z 00406360 f   BgEdgeDetect.obj
 0001:000055a0       ?SetCustomLow@BgEdgeDetect@@QAEXPAH0HHH@Z 004065a0 f   BgEdgeDetect.obj
 0001:000057f0       ?SetCustomLow@BgEdgeDetect@@QAEXPAN0H@Z 004067f0 f   BgEdgeDetect.obj
 0001:00005a30       ??0BgEdgeList@@QAE@XZ      00406a30 f   BgEdgeList.obj
 0001:00005a70       ??1BgEdgeList@@QAE@XZ      00406a70 f   BgEdgeList.obj
 0001:00005af0       ??_GBgEdge@@QAEPAXI@Z      00406af0 f i BgEdgeList.obj
 0001:00005b30       ?AddEdge@BgEdgeList@@QAEXPAMH@Z 00406b30 f   BgEdgeList.obj
 0001:00005c00       ?AddEdge@BgEdgeList@@QAEXPAHH@Z 00406c00 f   BgEdgeList.obj
 0001:00005cd0       ?SetGradient@BgEdgeList@@QAEXPAM00H@Z 00406cd0 f   BgEdgeList.obj
 0001:00005d30       ?RemoveShortEdges@BgEdgeList@@QAEXH@Z 00406d30 f   BgEdgeList.obj
 0001:00005e50       ?SetBinImage@BgEdgeList@@QAEXPAVBgImage@@@Z 00406e50 f   BgEdgeList.obj
 0001:00005f70       ?SaveEdgeList@BgEdgeList@@QAE_NPAD@Z 00406f70 f   BgEdgeList.obj
 0001:00006030       ?GetAllEdgePoints@BgEdgeList@@QAEXPAH00@Z 00407030 f   BgEdgeList.obj
 0001:000060f0       ?SetNoMark@BgEdgeList@@QAEXXZ 004070f0 f   BgEdgeList.obj
 0001:00006190       ?bgSign@@YANN@Z            00407190 f   BgGlobalFc.obj
 0001:000061c0       ?factorial@@YANN@Z         004071c0 f   BgGlobalFc.obj
 0001:00006220       ?bgSolveCubic@@YAHNNNNAAN00@Z 00407220 f   BgGlobalFc.obj
 0001:00006510       ?bgRound@@YAHN@Z           00407510 f i BgGlobalFc.obj
 0001:00006540       ?bgRoundSign@@YAHN@Z       00407540 f i BgGlobalFc.obj
 0001:00006580       ?bgSort@@YAXPANH@Z         00407580 f   BgGlobalFc.obj
 0001:000066d0       ?bgMedian@@YANPANHN@Z      004076d0 f   BgGlobalFc.obj
 0001:00006730       ?bgMedianToSigmaGaussian@@YANN@Z 00407730 f i BgGlobalFc.obj
 0001:00006750       ?write_pgm_image@@YAHPBDPAEHHPADH@Z 00407750 f   BgGlobalFc.obj
 0001:00006870       ?write_MATLAB_ASCII@@YAXPADPAMHH@Z 00407870 f   BgGlobalFc.obj
 0001:00006930       ?timer_start@@YAXXZ        00407930 f   BgGlobalFc.obj
 0001:00006960       ?timer_stop@@YAXXZ         00407960 f   BgGlobalFc.obj
 0001:000069d0       ?bgZoomIn@@YAXPAPAEPAEHHH_N@Z 004079d0 f   BgGlobalFc.obj
 0001:00006dd0       ?bgZoomOut@@YAXPAPAEPAEHHH_N@Z 00407dd0 f   BgGlobalFc.obj
 0001:00006e90       ?BgAddExtension@@YAXPAPADPAD@Z 00407e90 f   BgGlobalFc.obj
 0001:00006f50       ??0BgImage@@QAE@XZ         00407f50 f   BgImage.obj
 0001:00006f80       ??0BgImage@@QAE@HH_N@Z     00407f80 f   BgImage.obj
 0001:00007010       ??1BgImage@@QAE@XZ         00408010 f   BgImage.obj
 0001:00007030       ?CleanData@BgImage@@QAEXXZ 00408030 f   BgImage.obj
 0001:00007090       ?SetImage@BgImage@@QAEXPAEHH_N@Z 00408090 f   BgImage.obj
 0001:000071c0       ?SetImageFromRGB@BgImage@@QAEXPAEHH_N@Z 004081c0 f   BgImage.obj
 0001:000072e0       ?SetSameImageFromRGB@BgImage@@QAEXPAE@Z 004082e0 f   BgImage.obj
 0001:000073f0       ?SetImage@BgImage@@QAEXPAFHH_N@Z 004083f0 f   BgImage.obj
 0001:00007520       ?GetImage@BgImage@@QAEXPAE@Z 00408520 f   BgImage.obj
 0001:000075f0       ?GetImageColor@BgImage@@QAEXPAE@Z 004085f0 f   BgImage.obj
 0001:000076e0       ?GetImageBW@BgImage@@QAEXPAE@Z 004086e0 f   BgImage.obj
 0001:000077f0       ?GetImageR@BgImage@@QAEXPAE@Z 004087f0 f   BgImage.obj
 0001:000078c0       ?GetImageG@BgImage@@QAEXPAE@Z 004088c0 f   BgImage.obj
 0001:00007990       ?GetImageB@BgImage@@QAEXPAE@Z 00408990 f   BgImage.obj
 0001:00007a60       ?PixelValue@BgImage@@QAEEHH@Z 00408a60 f   BgImage.obj
 0001:00007ae0       ?gBgImPt@@YAEPAVBgImage@@HH@Z 00408ae0 f i BgImage.obj
 0001:00007b60       ?ValidCoord@BgImage@@QAE_NHH@Z 00408b60 f   BgImage.obj
 0001:00007bb0       ?ValidReturnBW@BgImage@@QAEHHHAAH@Z 00408bb0 f   BgImage.obj
 0001:00007c20       ?ValidReturnCol@BgImage@@QAEHHHAAH00@Z 00408c20 f   BgImage.obj
 0001:00007d00       ?ReturnCol@BgImage@@QAEHHHAAH00@Z 00408d00 f   BgImage.obj
 0001:00007d90       ?IsAllocated@BgImage@@QBE_NXZ 00408d90 f   BgImage.obj
 0001:00007db0       ??4BgImage@@QAEABV0@ABV0@@Z 00408db0 f   BgImage.obj
 0001:00007e00       ?PrivateCopyToThis@BgImage@@AAEXABV1@@Z 00408e00 f   BgImage.obj
 0001:00007e90       ?PrivateResize@BgImage@@AAEXHH_N@Z 00408e90 f   BgImage.obj
 0001:00007f60       ?Resize@BgImage@@QAEXHH_N@Z 00408f60 f   BgImage.obj
 0001:00007f90       ?wxConstructorForbgPGMHandler@@YAPAVwxObject@@XZ 00408f90 f   BgImagPGM.obj
 0001:000080b0       ?Skip_Comment@bgPGMHandler@@QAEXAAVwxInputStream@@@Z 004090b0 f   BgImagPGM.obj
 0001:00008160       ?LoadFile@bgPGMHandler@@UAE_NPAVwxImage@@AAVwxInputStream@@_NH@Z 00409160 f   BgImagPGM.obj
 0001:00008500       ?SaveFile@bgPGMHandler@@UAE_NPAVwxImage@@AAVwxOutputStream@@_N@Z 00409500 f   BgImagPGM.obj
 0001:00008640       ?DoCanRead@bgPGMHandler@@UAE_NAAVwxInputStream@@@Z 00409640 f   BgImagPGM.obj
 0001:000086c0       ??0wxString@@QAE@PBDI@Z    004096c0 f i BgImagPGM.obj
 0001:00008700       ??1wxString@@QAE@XZ        00409700 f i BgImagPGM.obj
 0001:00008730       ?Unlock@wxStringData@@QAEXXZ 00409730 f i BgImagPGM.obj
 0001:00008780       ?IsEmpty@wxStringData@@QBE_NXZ 00409780 f i BgImagPGM.obj
 0001:000087a0       ?GetStringData@wxString@@ABEPAUwxStringData@@XZ 004097a0 f i BgImagPGM.obj
 0001:000087c0       ??0wxClassInfo@@QAE@PBD00HP6APAVwxObject@@XZ@Z 004097c0 f i BgImagPGM.obj
 0001:00008830       ?wxGetTranslation@@YAPBDPBD@Z 00409830 f i BgImagPGM.obj
 0001:00008870       ??_EwxString@@QAEPAXI@Z    00409870 f i BgImagPGM.obj
 0001:000088f0       ?GetLastError@wxStreamBase@@QBE?AW4wxStreamError@@XZ 004098f0 f i BgImagPGM.obj
 0001:00008910       ?IsOk@wxStreamBase@@QBE_NXZ 00409910 f i BgImagPGM.obj
 0001:00008930       ??7wxStreamBase@@QBE_NXZ   00409930 f i BgImagPGM.obj
 0001:00008960       ??0bgPGMHandler@@QAE@XZ    00409960 f i BgImagPGM.obj
 0001:000089f0       ??0wxImageHandler@@QAE@XZ  004099f0 f i BgImagPGM.obj
 0001:00008a90       ??0wxString@@QAE@XZ        00409a90 f i BgImagPGM.obj
 0001:00008ac0       ?Init@wxString@@AAEXXZ     00409ac0 f i BgImagPGM.obj
 0001:00008ae0       ??0wxObject@@QAE@XZ        00409ae0 f i BgImagPGM.obj
 0001:00008b10       ?GetClassInfo@wxObject@@UBEPAVwxClassInfo@@XZ 00409b10 f i BgImagPGM.obj
 0001:00008b30       ??1wxObject@@UAE@XZ        00409b30 f i BgImagPGM.obj
 0001:00008b60       ??_GwxObject@@UAEPAXI@Z    00409b60 f i BgImagPGM.obj
 0001:00008b60       ??_EwxObject@@UAEPAXI@Z    00409b60 f i BgImagPGM.obj
 0001:00008ba0       ?GetClassInfo@wxImageHandler@@UBEPAVwxClassInfo@@XZ 00409ba0 f i BgImagPGM.obj
 0001:00008bc0       ??_EwxImageHandler@@UAEPAXI@Z 00409bc0 f i BgImagPGM.obj
 0001:00008bc0       ??_GwxImageHandler@@UAEPAXI@Z 00409bc0 f i BgImagPGM.obj
 0001:00008c00       ??1wxImageHandler@@UAE@XZ  00409c00 f i BgImagPGM.obj
 0001:00008c80       ?GetClassInfo@bgPGMHandler@@UBEPAVwxClassInfo@@XZ 00409c80 f i BgImagPGM.obj
 0001:00008ca0       ??_GbgPGMHandler@@UAEPAXI@Z 00409ca0 f i BgImagPGM.obj
 0001:00008ca0       ??_EbgPGMHandler@@UAEPAXI@Z 00409ca0 f i BgImagPGM.obj
 0001:00008ce0       ??1bgPGMHandler@@UAE@XZ    00409ce0 f i BgImagPGM.obj
 0001:00008d00       ?wxConstructorForbgPNMHandler@@YAPAVwxObject@@XZ 00409d00 f   BgImagPNM.obj
 0001:00008e20       ?Skip_Comment@bgPNMHandler@@QAEXAAVwxInputStream@@@Z 00409e20 f   BgImagPNM.obj
 0001:00008ed0       ?LoadFile@bgPNMHandler@@UAE_NPAVwxImage@@AAVwxInputStream@@_NH@Z 00409ed0 f   BgImagPNM.obj
 0001:000092a0       ?SaveFile@bgPNMHandler@@UAE_NPAVwxImage@@AAVwxOutputStream@@_N@Z 0040a2a0 f   BgImagPNM.obj
 0001:00009330       ?DoCanRead@bgPNMHandler@@UAE_NAAVwxInputStream@@@Z 0040a330 f   BgImagPNM.obj
 0001:000093c0       ??0bgPNMHandler@@QAE@XZ    0040a3c0 f i BgImagPNM.obj
 0001:00009450       ?GetClassInfo@bgPNMHandler@@UBEPAVwxClassInfo@@XZ 0040a450 f i BgImagPNM.obj
 0001:00009470       ??_GbgPNMHandler@@UAEPAXI@Z 0040a470 f i BgImagPNM.obj
 0001:00009470       ??_EbgPNMHandler@@UAEPAXI@Z 0040a470 f i BgImagPNM.obj
 0001:000094b0       ??1bgPNMHandler@@UAE@XZ    0040a4b0 f i BgImagPNM.obj
 0001:000094d0       ?wxCreateApp@@YAPAVwxApp@@XZ 0040a4d0 f   bgimsystem.obj
 0001:00009550       ??0BgApp@@QAE@XZ           0040a550 f i bgimsystem.obj
 0001:00009580       ??_EBgApp@@UAEPAXI@Z       0040a580 f i bgimsystem.obj
 0001:00009580       ??_GBgApp@@UAEPAXI@Z       0040a580 f i bgimsystem.obj
 0001:000095c0       ??1BgApp@@UAE@XZ           0040a5c0 f i bgimsystem.obj
 0001:00009620       ?wxGetApp@@YAAAVBgApp@@XZ  0040a620 f   bgimsystem.obj
 0001:000096c0       ?GetEventTable@BgMdiFrame@@MBEPBUwxEventTable@@XZ 0040a6c0 f   bgimsystem.obj
 0001:00009980       ??0wxEventTableEntry@@QAE@ABU0@@Z 0040a980 f i bgimsystem.obj
 0001:000099b0       ?GetEventTable@BgMdiEdgeChild@@MBEPBUwxEventTable@@XZ 0040a9b0 f   bgimsystem.obj
 0001:00009c60       ?GetEventTable@BgMdiSegmentChild@@MBEPBUwxEventTable@@XZ 0040ac60 f   bgimsystem.obj
 0001:0000a290       ?GetEventTable@BgImCanvas@@MBEPBUwxEventTable@@XZ 0040b290 f   bgimsystem.obj
 0001:0000a650       ?GetEventTable@BgParamDialog@@MBEPBUwxEventTable@@XZ 0040b650 f   bgimsystem.obj
 0001:0000a710       ?GetEventTable@BgSpeedSelect@@MBEPBUwxEventTable@@XZ 0040b710 f   bgimsystem.obj
 0001:0000a7d0       ?GetEventTable@BgDialog@@MBEPBUwxEventTable@@XZ 0040b7d0 f   bgimsystem.obj
 0001:0000a890       ?GetEventTable@BgHoverBar@@MBEPBUwxEventTable@@XZ 0040b890 f   bgimsystem.obj
 0001:0000a950       ?GetEventTable@BgMenuPanel@@MBEPBUwxEventTable@@XZ 0040b950 f   bgimsystem.obj
 0001:0000aa30       ??0bgLogTextCtrl@@QAE@PAVwxTextCtrl@@@Z 0040ba30 f   bgimsystem.obj
 0001:0000aa70       ??_GbgLogTextCtrl@@UAEPAXI@Z 0040ba70 f i bgimsystem.obj
 0001:0000aa70       ??_EbgLogTextCtrl@@UAEPAXI@Z 0040ba70 f i bgimsystem.obj
 0001:0000aab0       ??1bgLogTextCtrl@@UAE@XZ   0040bab0 f i bgimsystem.obj
 0001:0000aad0       ?DoLogString@bgLogTextCtrl@@EAEXPBDJ@Z 0040bad0 f   bgimsystem.obj
 0001:0000ab60       ?bgLog@@YAXPBDZZ           0040bb60 f   bgimsystem.obj
 0001:0000abc0       ?bgLogVar@@YAXPBDPAD@Z     0040bbc0 f   bgimsystem.obj
 0001:0000ac10       ?bgLogFile@@YAXPBDZZ       0040bc10 f   bgimsystem.obj
 0001:0000ac80       ?OnInit@BgApp@@UAE_NXZ     0040bc80 f   bgimsystem.obj
 0001:0000b530       ??0BgMdiFrame@@QAE@PAVwxWindow@@HABVwxString@@ABVwxPoint@@ABVwxSize@@J@Z 0040c530 f   bgimsystem.obj
 0001:0000b9f0       ??_EBgMdiFrame@@UAEPAXI@Z  0040c9f0 f i bgimsystem.obj
 0001:0000b9f0       ??_GBgMdiFrame@@UAEPAXI@Z  0040c9f0 f i bgimsystem.obj
 0001:0000ba30       ??_FwxAcceleratorEntry@@QAEXXZ 0040ca30 f i bgimsystem.obj
 0001:0000ba60       ??_H@YGXPAXIHP6EX0@Z@Z     0040ca60 f i bgimsystem.obj
 0001:0000baa0       ??1BgMdiFrame@@UAE@XZ      0040caa0 f i bgimsystem.obj
 0001:0000bac0       ?OnClose@BgMdiFrame@@QAEXAAVwxCloseEvent@@@Z 0040cac0 f   bgimsystem.obj
 0001:0000bc80       ??BwxString@@QBEPBDXZ      0040cc80 f i bgimsystem.obj
 0001:0000bca0       ?SetChildTitle@BgMdiFrame@@QAEXPAVwxMDIChildFrame@@HHH@Z 0040cca0 f   bgimsystem.obj
 0001:0000bec0       ??6wxString@@QAEAAV0@PBD@Z 0040cec0 f i bgimsystem.obj
 0001:0000bf00       ?wxStrlen@@YAIPBD@Z        0040cf00 f i bgimsystem.obj
 0001:0000bf40       ?UpdateZoomControl@BgMdiFrame@@QAEXPAVwxMDIChildFrame@@HH@Z 0040cf40 f   bgimsystem.obj
 0001:0000c000       ?OnQuit@BgMdiFrame@@QAEXAAVwxCommandEvent@@@Z 0040d000 f   bgimsystem.obj
 0001:0000c020       ?OnAbout@BgMdiFrame@@QAEXAAVwxCommandEvent@@@Z 0040d020 f   bgimsystem.obj
 0001:0000c4b0       ?OnHelp@BgMdiFrame@@QAEXAAVwxCommandEvent@@@Z 0040d4b0 f   bgimsystem.obj
 0001:0000c660       ?OnLoadImage@BgMdiFrame@@QAEXAAVwxCommandEvent@@@Z 0040d660 f   bgimsystem.obj
 0001:0000c7e0       ?OnLoadImageEdge@BgMdiFrame@@QAEXAAVwxCommandEvent@@@Z 0040d7e0 f   bgimsystem.obj
 0001:0000c890       ?OnLoadImageSegm@BgMdiFrame@@QAEXAAVwxCommandEvent@@@Z 0040d890 f   bgimsystem.obj
 0001:0000c940       ?OnSaveResult@BgMdiFrame@@QAEXAAVwxCommandEvent@@@Z 0040d940 f   bgimsystem.obj
 0001:0000c9e0       ?OnNewEdgeWindow@BgMdiFrame@@QAEXAAVwxCommandEvent@@@Z 0040d9e0 f   bgimsystem.obj
 0001:0000d500       ?OnNewSegmWindow@BgMdiFrame@@QAEXAAVwxCommandEvent@@@Z 0040e500 f   bgimsystem.obj
 0001:0000e100       ?GetImageFileInfo@BgMdiFrame@@QAEXPAPAD0@Z 0040f100 f   bgimsystem.obj
 0001:0000e4d0       ?c_str@wxString@@QBEPBDXZ  0040f4d0 f i bgimsystem.obj
 0001:0000e4f0       ??1wxFileDialog@@UAE@XZ    0040f4f0 f i bgimsystem.obj
 0001:0000e5a0       ?ZoomControl@BgMdiFrame@@QAEXAAVwxCommandEvent@@@Z 0040f5a0 f   bgimsystem.obj
 0001:0000e810       ?OnSize@BgMdiFrame@@QAEXAAVwxSizeEvent@@@Z 0040f810 f   bgimsystem.obj
 0001:0000e890       ?InitToolBar@BgMdiFrame@@QAEXPAVwxToolBar@@@Z 0040f890 f   bgimsystem.obj
 0001:0000f490       ??0BgPointSet@@QAE@XZ      00410490 f   bgimsystem.obj
 0001:0000f540       ??1BgPointSet@@QAE@XZ      00410540 f   bgimsystem.obj
 0001:0000f5a0       ?CleanData@BgPointSet@@QAEXXZ 004105a0 f   bgimsystem.obj
 0001:0000f610       ?SetPoints@BgPointSet@@QAEXPAH0H@Z 00410610 f   bgimsystem.obj
 0001:0000f6c0       ??0BgCurveSet@@QAE@XZ      004106c0 f   bgimsystem.obj
 0001:0000f780       ??1BgCurveSet@@QAE@XZ      00410780 f   bgimsystem.obj
 0001:0000f7e0       ?CleanData@BgCurveSet@@QAEXXZ 004107e0 f   bgimsystem.obj
 0001:0000f870       ?SetCurve@BgCurveSet@@QAEXPAV1@@Z 00410870 f   bgimsystem.obj
 0001:0000f950       ?SetParamCurve@BgCurveSet@@QAEXHPAN0HHH@Z 00410950 f   bgimsystem.obj
 0001:0000fa30       ?GetParamCurve@BgCurveSet@@QAEXPAN0AAH1@Z 00410a30 f   bgimsystem.obj
 0001:0000fac0       ?DrawYourself@BgCurveSet@@QAEXPAEH@Z 00410ac0 f   bgimsystem.obj
 0001:0000fd00       ?DrawPoint@BgCurveSet@@QAEXPAEHHH@Z 00410d00 f   bgimsystem.obj
 0001:0000fdc0       ?DrawLine@BgCurveSet@@QAEXPAEHHHHH@Z 00410dc0 f   bgimsystem.obj
 0001:000100e0       ?DrawEllipticArc@BgCurveSet@@QAEXPAEHHHHHHH@Z 004110e0 f   bgimsystem.obj
 0001:000103d0       ?StartDragging@BgCurveSet@@QAEXHH@Z 004113d0 f   bgimsystem.obj
 0001:00010620       ?DragTo@BgCurveSet@@QAEXHH@Z 00411620 f   bgimsystem.obj
 0001:000108e0       ??0wxList@@QAE@H@Z         004118e0 f i bgimsystem.obj
 0001:00010910       ??0wxObjectList@@QAE@W4wxKeyType@@@Z 00411910 f i bgimsystem.obj
 0001:00010940       ??0wxListBase@@QAE@W4wxKeyType@@@Z 00411940 f i bgimsystem.obj
 0001:000109b0       ??_GwxListBase@@UAEPAXI@Z  004119b0 f i bgimsystem.obj
 0001:000109b0       ??_EwxListBase@@UAEPAXI@Z  004119b0 f i bgimsystem.obj
 0001:000109f0       ?Find@wxObjectList@@UBEPAVwxObjectListNode@@ABVwxListKey@@@Z 004119f0 f i bgimsystem.obj
 0001:00010a20       ?CreateNode@wxObjectList@@MAEPAVwxNodeBase@@PAV2@0PAXABVwxListKey@@@Z 00411a20 f i bgimsystem.obj
 0001:00010ab0       ??0wxObjectListNode@@QAE@PAVwxListBase@@PAV0@1PAVwxObject@@ABVwxListKey@@@Z 00411ab0 f i bgimsystem.obj
 0001:00010af0       ??_EwxObjectListNode@@UAEPAXI@Z 00411af0 f i bgimsystem.obj
 0001:00010af0       ??_GwxObjectListNode@@UAEPAXI@Z 00411af0 f i bgimsystem.obj
 0001:00010b30       ??1wxObjectListNode@@UAE@XZ 00411b30 f i bgimsystem.obj
 0001:00010b50       ??_GwxObjectList@@UAEPAXI@Z 00411b50 f i bgimsystem.obj
 0001:00010b50       ??_EwxObjectList@@UAEPAXI@Z 00411b50 f i bgimsystem.obj
 0001:00010b90       ??1wxObjectList@@UAE@XZ    00411b90 f i bgimsystem.obj
 0001:00010bb0       ??1wxList@@UAE@XZ          00411bb0 f i bgimsystem.obj
 0001:00010be0       ?EndDragging@BgCurveSet@@QAEXHH@Z 00411be0 f   bgimsystem.obj
 0001:00010c00       ??0BgParameterHistory@@QAE@XZ 00411c00 f   bgimsystem.obj
 0001:00010c40       ??0BgParameterHistory@@QAE@PAXH@Z 00411c40 f   bgimsystem.obj
 0001:00010c80       ?GetClassInfo@wxList@@UBEPAVwxClassInfo@@XZ 00411c80 f i bgimsystem.obj
 0001:00010ca0       ??1BgParameterHistory@@QAE@XZ 00411ca0 f   bgimsystem.obj
 0001:00010cd0       ??_EwxList@@UAEPAXI@Z      00411cd0 f i bgimsystem.obj
 0001:00010cd0       ??_GwxList@@UAEPAXI@Z      00411cd0 f i bgimsystem.obj
 0001:00010d10       ??0BgParameterHistoryBox@@QAE@PAVwxWindow@@HABVwxString@@ABVwxPoint@@ABVwxSize@@HJABVwxValidator@@1@Z 00411d10 f   bgimsystem.obj
 0001:00010e10       ??_GBgParameterHistoryBox@@UAEPAXI@Z 00411e10 f i bgimsystem.obj
 0001:00010e10       ??_EBgParameterHistoryBox@@UAEPAXI@Z 00411e10 f i bgimsystem.obj
 0001:00010e50       ??1BgParameterHistoryBox@@UAE@XZ 00411e50 f   bgimsystem.obj
 0001:00010f20       ??_GBgParameterHistory@@QAEPAXI@Z 00411f20 f i bgimsystem.obj
 0001:00010f60       ?AddParameterList@BgParameterHistoryBox@@QAEXPAXH@Z 00411f60 f   bgimsystem.obj
 0001:00011110       ?GetParameterListData@BgParameterHistoryBox@@QAEPAXH@Z 00412110 f   bgimsystem.obj
 0001:00011170       ?GetParameterListCount@BgParameterHistoryBox@@QAEHH@Z 00412170 f   bgimsystem.obj
 0001:000111d0       ?UseParameterList@BgParameterHistoryBox@@QAEXH@Z 004121d0 f   bgimsystem.obj
 0001:00011260       ?SetCurrentList@BgParameterHistoryBox@@QAEXPAXH@Z 00412260 f   bgimsystem.obj
 0001:00011290       ?GetCurrentListData@BgParameterHistoryBox@@QAEPAXXZ 00412290 f   bgimsystem.obj
 0001:000112b0       ?GetCurrentListCount@BgParameterHistoryBox@@QAEHXZ 004122b0 f   bgimsystem.obj
 0001:000112d0       ??0BgText@@QAE@XZ          004122d0 f   bgimsystem.obj
 0001:00011320       ??0BgText@@QAE@HPADVwxFont@@HH@Z 00412320 f   bgimsystem.obj
 0001:00011410       ??1BgText@@QAE@XZ          00412410 f   bgimsystem.obj
 0001:00011470       ?SetText@BgText@@QAEXPAD@Z 00412470 f   bgimsystem.obj
 0001:00011500       ?SetFont@BgText@@QAEXVwxFont@@@Z 00412500 f   bgimsystem.obj
 0001:000115a0       ?SetId@BgText@@QAEXH@Z     004125a0 f   bgimsystem.obj
 0001:000115c0       ?SetPlotLocation@BgText@@QAEXHH@Z 004125c0 f   bgimsystem.obj
 0001:000115f0       ??0BgTextObj@@QAE@PAVBgText@@@Z 004125f0 f   bgimsystem.obj
 0001:000116b0       ??1BgTextObj@@QAE@XZ       004126b0 f   bgimsystem.obj
 0001:000116f0       ??_GBgText@@QAEPAXI@Z      004126f0 f i bgimsystem.obj
 0001:00011730       ??0BgTextList@@QAE@XZ      00412730 f   bgimsystem.obj
 0001:00011770       ??1BgTextList@@QAE@XZ      00412770 f   bgimsystem.obj
 0001:000117b0       ?AddText@BgTextList@@QAEHPAVBgText@@@Z 004127b0 f   bgimsystem.obj
 0001:00011910       ?RemoveText@BgTextList@@QAEHH@Z 00412910 f   bgimsystem.obj
 0001:00011980       ?GetText@BgTextList@@QAEPAVBgText@@XZ 00412980 f   bgimsystem.obj
 0001:000119c0       ?ResetList@BgTextList@@QAEXXZ 004129c0 f   bgimsystem.obj
 0001:000119e0       ?GetTextCount@BgTextList@@QAEHXZ 004129e0 f   bgimsystem.obj
 0001:00011a00       ?DeleteText@BgTextList@@AAEXXZ 00412a00 f   bgimsystem.obj
 0001:00011ac0       ??_GBgTextObj@@QAEPAXI@Z   00412ac0 f i bgimsystem.obj
 0001:00011b00       ??0BgBitmap@@QAE@XZ        00412b00 f   bgimsystem.obj
 0001:00011b40       ??0BgBitmap@@QAE@PAVwxBitmap@@HHH@Z 00412b40 f   bgimsystem.obj
 0001:00011bf0       ??1BgBitmap@@QAE@XZ        00412bf0 f   bgimsystem.obj
 0001:00011c40       ?SetMap@BgBitmap@@QAEXPAVwxBitmap@@@Z 00412c40 f   bgimsystem.obj
 0001:00011cd0       ?SetPlotLocation@BgBitmap@@QAEXHH@Z 00412cd0 f   bgimsystem.obj
 0001:00011d00       ?SetId@BgBitmap@@QAEXH@Z   00412d00 f   bgimsystem.obj
 0001:00011d20       ??0BgBitmapObj@@QAE@XZ     00412d20 f   bgimsystem.obj
 0001:00011d50       ??0BgBitmapObj@@QAE@PAVBgBitmap@@@Z 00412d50 f   bgimsystem.obj
 0001:00011df0       ??1wxLog@@UAE@XZ           00412df0 f i bgimsystem.obj
 0001:00011e10       ??_EwxLog@@UAEPAXI@Z       00412e10 f i bgimsystem.obj
 0001:00011e10       ??_GwxLog@@UAEPAXI@Z       00412e10 f i bgimsystem.obj
 0001:00011e50       ??1BgBitmapObj@@QAE@XZ     00412e50 f   bgimsystem.obj
 0001:00011ea0       ??_GBgBitmap@@QAEPAXI@Z    00412ea0 f i bgimsystem.obj
 0001:00011ee0       ??0BgBitmapList@@QAE@XZ    00412ee0 f   bgimsystem.obj
 0001:00011f20       ??1BgBitmapList@@QAE@XZ    00412f20 f   bgimsystem.obj
 0001:00011f60       ?AddBitmap@BgBitmapList@@QAEHPAVBgBitmap@@@Z 00412f60 f   bgimsystem.obj
 0001:00012020       ?RemoveBitmap@BgBitmapList@@QAEXPAVBgBitmap@@@Z 00413020 f   bgimsystem.obj
 0001:00012080       ?GetBitmap@BgBitmapList@@QAEPAVBgBitmap@@XZ 00413080 f   bgimsystem.obj
 0001:000120c0       ?ResetList@BgBitmapList@@QAEXXZ 004130c0 f   bgimsystem.obj
 0001:000120e0       ?GetBitmapCount@BgBitmapList@@QAEHXZ 004130e0 f   bgimsystem.obj
 0001:00012100       ?DeleteBitmap@BgBitmapList@@AAEXXZ 00413100 f   bgimsystem.obj
 0001:00012170       ??_GBgBitmapObj@@QAEPAXI@Z 00413170 f i bgimsystem.obj
 0001:000121b0       ??0BgAxis@@QAE@XZ          004131b0 f   bgimsystem.obj
 0001:00012220       ??0BgAxis@@QAE@HHHHHMM@Z   00413220 f   bgimsystem.obj
 0001:00012290       ??1BgAxis@@QAE@XZ          00413290 f   bgimsystem.obj
 0001:000122e0       ??0wxColour@@QAE@PBD@Z     004132e0 f i bgimsystem.obj
 0001:00012360       ?SetPlotOrigin@BgAxis@@QAEXHH@Z 00413360 f   bgimsystem.obj
 0001:00012390       ?SetLength@BgAxis@@QAEXH@Z 00413390 f   bgimsystem.obj
 0001:000123b0       ?SetTicknum@BgAxis@@QAEXH@Z 004133b0 f   bgimsystem.obj
 0001:000123d0       ?SetBounds@BgAxis@@QAEXMM@Z 004133d0 f   bgimsystem.obj
 0001:00012400       ?Label@BgAxis@@QAEXPAVBgText@@@Z 00413400 f   bgimsystem.obj
 0001:00012560       ?GetClassInfo@wxColour@@UBEPAVwxClassInfo@@XZ 00413560 f i bgimsystem.obj
 0001:00012580       ??_EwxColour@@UAEPAXI@Z    00413580 f i bgimsystem.obj
 0001:00012580       ??_GwxColour@@UAEPAXI@Z    00413580 f i bgimsystem.obj
 0001:000125c0       ?RemoveLabel@BgAxis@@QAEXXZ 004135c0 f   bgimsystem.obj
 0001:00012620       ?SetLabelRotation@BgAxis@@QAEXH@Z 00413620 f   bgimsystem.obj
 0001:00012640       ?PlotAxis@BgAxis@@QAEXPAVwxDC@@@Z 00413640 f   bgimsystem.obj
 0001:00012d70       ??0wxFont@@QAE@XZ          00413d70 f i bgimsystem.obj
 0001:00012dd0       ?GetVisible@wxGDIObject@@UAE_NXZ 00413dd0 f i bgimsystem.obj
 0001:00012df0       ?SetVisible@wxGDIObject@@UAEX_N@Z 00413df0 f i bgimsystem.obj
 0001:00012e10       ?SetNoAntiAliasing@wxFontBase@@UAEX_N@Z 00413e10 f i bgimsystem.obj
 0001:00012e30       ?GetNoAntiAliasing@wxFontBase@@UAE_NXZ 00413e30 f i bgimsystem.obj
 0001:00012e50       ??0wxFont@@QAE@ABV0@@Z     00413e50 f i bgimsystem.obj
 0001:00012ec0       ??0wxFont@@QAE@HHHH_NABVwxString@@W4wxFontEncoding@@@Z 00413ec0 f i bgimsystem.obj
 0001:00012f50       ?GetClassInfo@wxFont@@UBEPAVwxClassInfo@@XZ 00413f50 f i bgimsystem.obj
 0001:00012f70       ??_EwxFont@@UAEPAXI@Z      00413f70 f i bgimsystem.obj
 0001:00012f70       ??_GwxFont@@UAEPAXI@Z      00413f70 f i bgimsystem.obj
 0001:00012fb0       ??0wxFontBase@@QAE@XZ      00413fb0 f i bgimsystem.obj
 0001:00012fe0       ??0wxGDIObject@@QAE@XZ     00413fe0 f i bgimsystem.obj
 0001:00013010       ?RealizeResource@wxGDIObject@@UAE_NXZ 00414010 f i bgimsystem.obj
 0001:00013030       ?FreeResource@wxGDIObject@@UAE_N_N@Z 00414030 f i bgimsystem.obj
 0001:00013050       ?IsFree@wxGDIObject@@UBE_NXZ 00414050 f i bgimsystem.obj
 0001:00013070       ?GetResourceHandle@wxGDIObject@@UBEKXZ 00414070 f i bgimsystem.obj
 0001:00013090       ?GetClassInfo@wxGDIObject@@UBEPAVwxClassInfo@@XZ 00414090 f i bgimsystem.obj
 0001:000130b0       ??_GwxGDIObject@@UAEPAXI@Z 004140b0 f i bgimsystem.obj
 0001:000130b0       ??_EwxGDIObject@@UAEPAXI@Z 004140b0 f i bgimsystem.obj
 0001:000130f0       ??1wxGDIObject@@UAE@XZ     004140f0 f i bgimsystem.obj
 0001:00013110       ??_EwxFontBase@@UAEPAXI@Z  00414110 f i bgimsystem.obj
 0001:00013110       ??_GwxFontBase@@UAEPAXI@Z  00414110 f i bgimsystem.obj
 0001:00013150       ??0wxSize@@QAE@HH@Z        00414150 f i bgimsystem.obj
 0001:00013180       ??0BgThread@@QAE@W4wxThreadKind@@P6AXPAX@Z1@Z 00414180 f   bgimsystem.obj
 0001:000131c0       ??_GBgThread@@UAEPAXI@Z    004141c0 f i bgimsystem.obj
 0001:000131c0       ??_EBgThread@@UAEPAXI@Z    004141c0 f i bgimsystem.obj
 0001:00013200       ??1BgThread@@UAE@XZ        00414200 f   bgimsystem.obj
 0001:00013240       ?Entry@BgThread@@EAEPAXXZ  00414240 f   bgimsystem.obj
 0001:00013270       ??0BgDialog@@QAE@PAVwxWindow@@HABVwxString@@ABVwxPoint@@ABVwxSize@@J1@Z 00414270 f   bgimsystem.obj
 0001:00013410       ?GetWidth@wxSize@@QBEHXZ   00414410 f i bgimsystem.obj
 0001:00013430       ?GetHeight@wxSize@@QBEHXZ  00414430 f i bgimsystem.obj
 0001:00013450       ??0wxPoint@@QAE@HH@Z       00414450 f i bgimsystem.obj
 0001:00013480       ??_EBgDialog@@UAEPAXI@Z    00414480 f i bgimsystem.obj
 0001:00013480       ??_GBgDialog@@UAEPAXI@Z    00414480 f i bgimsystem.obj
 0001:000134c0       ??1BgDialog@@UAE@XZ        004144c0 f   bgimsystem.obj
 0001:00013570       ?AddText@BgDialog@@QAEXPAVBgText@@@Z 00414570 f   bgimsystem.obj
 0001:000135a0       ?AddBitmap@BgDialog@@QAEXPAVBgBitmap@@@Z 004145a0 f   bgimsystem.obj
 0001:000135d0       ?RemoveText@BgDialog@@QAEXH@Z 004145d0 f   bgimsystem.obj
 0001:00013600       ?RemoveBitmap@BgDialog@@QAEXPAVBgBitmap@@@Z 00414600 f   bgimsystem.obj
 0001:00013630       ?OnPaint@BgDialog@@UAEXAAVwxPaintEvent@@@Z 00414630 f   bgimsystem.obj
 0001:00013780       ?OnExit@BgDialog@@QAEXAAVwxCommandEvent@@@Z 00414780 f   bgimsystem.obj
 0001:000137b0       ??0BgHoverBar@@QAE@PAVwxWindow@@HHHHHHHH@Z 004147b0 f   bgimsystem.obj
 0001:000141c0       ??_EBgHoverBar@@UAEPAXI@Z  004151c0 f i bgimsystem.obj
 0001:000141c0       ??_GBgHoverBar@@UAEPAXI@Z  004151c0 f i bgimsystem.obj
 0001:00014200       ??1BgHoverBar@@UAE@XZ      00415200 f   bgimsystem.obj
 0001:000142c0       ?ShowMenu@BgHoverBar@@QAEXAAVwxCommandEvent@@@Z 004152c0 f   bgimsystem.obj
 0001:000144f0       ?CheckViewItem@BgHoverBar@@QAEXJ@Z 004154f0 f   bgimsystem.obj
 0001:00014590       ?Update@BgHoverBar@@UAEXXZ 00415590 f   bgimsystem.obj
 0001:000146a0       ??0BgMenuPanel@@QAE@PAVwxWindow@@HHHHHHHH@Z 004156a0 f   bgimsystem.obj
 0001:000150c0       ??_GBgMenuPanel@@UAEPAXI@Z 004160c0 f i bgimsystem.obj
 0001:000150c0       ??_EBgMenuPanel@@UAEPAXI@Z 004160c0 f i bgimsystem.obj
 0001:00015100       ??1BgMenuPanel@@UAE@XZ     00416100 f   bgimsystem.obj
 0001:000151c0       ?ShowMenu@BgMenuPanel@@QAEXAAVwxCommandEvent@@@Z 004161c0 f   bgimsystem.obj
 0001:00015400       ?CheckViewItem@BgMenuPanel@@QAEXJ@Z 00416400 f   bgimsystem.obj
 0001:000154a0       ?Update@BgMenuPanel@@UAEXXZ 004164a0 f   bgimsystem.obj
 0001:000155b0       ?EnableMenu@BgMenuPanel@@QAEX_N@Z 004165b0 f   bgimsystem.obj
 0001:00015640       ?OnSize@BgMenuPanel@@QAEXAAVwxSizeEvent@@@Z 00416640 f   bgimsystem.obj
 0001:00015690       ?SetScrollWindow@BgMenuPanel@@QAEXPAVwxWindow@@@Z 00416690 f   bgimsystem.obj
 0001:000156c0       ??0BgLineSet@@QAE@XZ       004166c0 f   bgimsystem.obj
 0001:00015780       ??1BgLineSet@@QAE@XZ       00416780 f   bgimsystem.obj
 0001:000157e0       ?CleanData@BgLineSet@@QAEXXZ 004167e0 f   bgimsystem.obj
 0001:000158b0       ?SetLines@BgLineSet@@QAEXPAH000PANH@Z 004168b0 f   bgimsystem.obj
 0001:00015a20       ?SetLines@BgLineSet@@QAEXPAN00H@Z 00416a20 f   bgimsystem.obj
 0001:00015bb0       ??0BgImCanvas@@QAE@PAVwxWindow@@0ABVwxPoint@@ABVwxSize@@@Z 00416bb0 f   bgimsystem.obj
 0001:00016310       ??_GBgImCanvas@@UAEPAXI@Z  00417310 f i bgimsystem.obj
 0001:00016310       ??_EBgImCanvas@@UAEPAXI@Z  00417310 f i bgimsystem.obj
 0001:00016350       ??1BgImCanvas@@UAE@XZ      00417350 f   bgimsystem.obj
 0001:00016510       ??_GBgAxis@@QAEPAXI@Z      00417510 f i bgimsystem.obj
 0001:00016550       ?OnCustomAddNode@BgImCanvas@@QAEXAAVwxCommandEvent@@@Z 00417550 f   bgimsystem.obj
 0001:00016900       ?OnCustomDeleteNode@BgImCanvas@@QAEXAAVwxCommandEvent@@@Z 00417900 f   bgimsystem.obj
 0001:00016af0       ?OnCTypeEllipse@BgImCanvas@@QAEXAAVwxCommandEvent@@@Z 00417af0 f   bgimsystem.obj
 0001:00016c30       ?OnCTypeVLine@BgImCanvas@@QAEXAAVwxCommandEvent@@@Z 00417c30 f   bgimsystem.obj
 0001:00016d70       ?OnCTypeHLine@BgImCanvas@@QAEXAAVwxCommandEvent@@@Z 00417d70 f   bgimsystem.obj
 0001:00016eb0       ?OnCTypeLine@BgImCanvas@@QAEXAAVwxCommandEvent@@@Z 00417eb0 f   bgimsystem.obj
 0001:00016ff0       ?OnCTypeBox@BgImCanvas@@QAEXAAVwxCommandEvent@@@Z 00417ff0 f   bgimsystem.obj
 0001:00017130       ?OnCTypeCustom@BgImCanvas@@QAEXAAVwxCommandEvent@@@Z 00418130 f   bgimsystem.obj
 0001:000173f0       ?AddPointSet@BgImCanvas@@QAEXPAVBgPointSet@@@Z 004183f0 f   bgimsystem.obj
 0001:000175b0       ?RemovePointSet@BgImCanvas@@QAEXPAVBgPointSet@@@Z 004185b0 f   bgimsystem.obj
 0001:00017860       ?AddLineSet@BgImCanvas@@QAEXPAVBgLineSet@@@Z 00418860 f   bgimsystem.obj
 0001:000178c0       ?AddTrackSet@BgImCanvas@@QAEXHHHH@Z 004188c0 f   bgimsystem.obj
 0001:00017930       ?RemoveTrackSet@BgImCanvas@@QAEXXZ 00418930 f   bgimsystem.obj
 0001:00017970       ?RemoveLineSet@BgImCanvas@@QAEXPAVBgLineSet@@@Z 00418970 f   bgimsystem.obj
 0001:00017a30       ?AddCurveSet@BgImCanvas@@QAEXPAVBgCurveSet@@@Z 00418a30 f   bgimsystem.obj
 0001:00017a90       ?RemoveCurveSet@BgImCanvas@@QAEXPAVBgCurveSet@@@Z 00418a90 f   bgimsystem.obj
 0001:00017b50       ?AddText@BgImCanvas@@QAEXPAVBgText@@@Z 00418b50 f   bgimsystem.obj
 0001:00017bb0       ?RemoveText@BgImCanvas@@QAEXH@Z 00418bb0 f   bgimsystem.obj
 0001:00017be0       ?AddHorizontalAxis@BgImCanvas@@QAEXHHHHMM@Z 00418be0 f   bgimsystem.obj
 0001:00017cb0       ?AddVerticalAxis@BgImCanvas@@QAEXHHHHMM@Z 00418cb0 f   bgimsystem.obj
 0001:00017d80       ?ClearAxis@BgImCanvas@@QAEXXZ 00418d80 f   bgimsystem.obj
 0001:00017e30       ?LabelHorizontalAxis@BgImCanvas@@QAEXPAVBgText@@@Z 00418e30 f   bgimsystem.obj
 0001:00017e70       ?LabelVerticalAxis@BgImCanvas@@QAEXPAVBgText@@@Z 00418e70 f   bgimsystem.obj
 0001:00017eb0       ?RemoveHorizontalAxisLabel@BgImCanvas@@QAEXXZ 00418eb0 f   bgimsystem.obj
 0001:00017ee0       ?RemoveVerticalAxisLabel@BgImCanvas@@QAEXXZ 00418ee0 f   bgimsystem.obj
 0001:00017f10       ?RotateHorizontalAxisLabel@BgImCanvas@@QAEXH@Z 00418f10 f   bgimsystem.obj
 0001:00017f50       ?OnExit@wxThread@@UAEXXZ   00418f50 f i bgimsystem.obj
 0001:00017f70       ?RotateVerticalAxisLabel@BgImCanvas@@QAEXH@Z 00418f70 f   bgimsystem.obj
 0001:00017fb0       ?AddBitmap@BgImCanvas@@QAEXPAVBgBitmap@@@Z 00418fb0 f   bgimsystem.obj
 0001:00017fe0       ?RemoveBitmap@BgImCanvas@@QAEXPAVBgBitmap@@@Z 00418fe0 f   bgimsystem.obj
 0001:00018010       ?ClearDisplay@BgImCanvas@@QAEXXZ 00419010 f   bgimsystem.obj
 0001:00018040       ?ClearData@BgImCanvas@@QAEXH@Z 00419040 f   bgimsystem.obj
 0001:00018230       ?GetId@wxEvent@@QBEHXZ     00419230 f i bgimsystem.obj
 0001:00018250       ?Skip@wxEvent@@QAEX_N@Z    00419250 f i bgimsystem.obj
 0001:00018270       ?SetImage@BgImCanvas@@QAEHVwxString@@@Z 00419270 f   bgimsystem.obj
 0001:000184f0       ?SetImage@BgImCanvas@@QAEXAAVwxImage@@@Z 004194f0 f   bgimsystem.obj
 0001:000186a0       ?SetSameImage@BgImCanvas@@QAEXAAVwxImage@@@Z 004196a0 f   bgimsystem.obj
 0001:00018760       ??1wxCommandEvent@@UAE@XZ  00419760 f i bgimsystem.obj
 0001:000187c0       ??1wxEvent@@UAE@XZ         004197c0 f i bgimsystem.obj
 0001:000187e0       ?SetImageFromGray@BgImCanvas@@QAEXPAEHH@Z 004197e0 f   bgimsystem.obj
 0001:000189f0       ?SetImage@BgImCanvas@@QAEXPAEHH_N@Z 004199f0 f   bgimsystem.obj
 0001:00018c40       ?ShowBitmap@BgImCanvas@@QAEX_N@Z 00419c40 f   bgimsystem.obj
 0001:00018d50       ?OnDraw@BgImCanvas@@UAEXAAVwxDC@@@Z 00419d50 f   bgimsystem.obj
 0001:0001a540       ?AddMargin@BgImCanvas@@QAEXHH@Z 0041b540 f   bgimsystem.obj
 0001:0001a580       ?Zoom@BgImCanvas@@QAEHH@Z  0041b580 f   bgimsystem.obj
 0001:0001a5b0       ?Zoom@BgImCanvas@@QAEHHHH@Z 0041b5b0 f   bgimsystem.obj
 0001:0001ad00       ?ZoomIn@BgImCanvas@@QAEHHH@Z 0041bd00 f   bgimsystem.obj
 0001:0001ae40       ?ZoomOut@BgImCanvas@@QAEHHH@Z 0041be40 f   bgimsystem.obj
 0001:0001af80       ?SetMaxZoomLevel@BgImCanvas@@QAEXH@Z 0041bf80 f   bgimsystem.obj
 0001:0001afb0       ?SetMinZoomLevel@BgImCanvas@@QAEXH@Z 0041bfb0 f   bgimsystem.obj
 0001:0001afe0       ?DefineZoomBox@BgImCanvas@@AAEXHHHH@Z 0041bfe0 f   bgimsystem.obj
 0001:0001b530       ?Red@wxColour@@QBEEXZ      0041c530 f i bgimsystem.obj
 0001:0001b550       ?Green@wxColour@@QBEEXZ    0041c550 f i bgimsystem.obj
 0001:0001b570       ?Blue@wxColour@@QBEEXZ     0041c570 f i bgimsystem.obj
 0001:0001b590       ?Veto@wxCloseEvent@@QAEX_N@Z 0041c590 f i bgimsystem.obj
 0001:0001b5f0       ?CanVeto@wxCloseEvent@@QBE_NXZ 0041c5f0 f i bgimsystem.obj
 0001:0001b610       ?DefineRefreshBox@BgImCanvas@@AAEXXZ 0041c610 f   bgimsystem.obj
 0001:0001b8f0       ?CreatePointMap@BgImCanvas@@AAEXHH@Z 0041c8f0 f   bgimsystem.obj
 0001:0001baf0       ?AddPoints@BgImCanvas@@AAEXPAEH@Z 0041caf0 f   bgimsystem.obj
 0001:0001bce0       ?DisplayZoomWindow@BgImCanvas@@QAEXHH@Z 0041cce0 f   bgimsystem.obj
 0001:0001bf50       ?FillCurveClick@BgImCanvas@@QAEXXZ 0041cf50 f   bgimsystem.obj
 0001:0001c000       ?MyDrawEllipticArc@BgImCanvas@@AAEXAAVwxDC@@HHHHHH@Z 0041d000 f   bgimsystem.obj
 0001:0001c260       ?OnMouseRightDown@BgImCanvas@@QAEXAAVwxMouseEvent@@@Z 0041d260 f   bgimsystem.obj
 0001:0001c680       ?AdjustScroll@BgImCanvas@@QAEXHHH@Z 0041d680 f   bgimsystem.obj
 0001:0001c840       ?OnEvent@BgImCanvas@@QAEXAAVwxMouseEvent@@@Z 0041d840 f   bgimsystem.obj
 0001:0001cfe0       ?LeftDown@wxMouseEvent@@QBE_NXZ 0041dfe0 f i bgimsystem.obj
 0001:0001d010       ?Dragging@wxMouseEvent@@QBE_NXZ 0041e010 f i bgimsystem.obj
 0001:0001d080       ?LeftIsDown@wxMouseEvent@@QBE_NXZ 0041e080 f i bgimsystem.obj
 0001:0001d0a0       ?MiddleIsDown@wxMouseEvent@@QBE_NXZ 0041e0a0 f i bgimsystem.obj
 0001:0001d0c0       ?RightIsDown@wxMouseEvent@@QBE_NXZ 0041e0c0 f i bgimsystem.obj
 0001:0001d0e0       ?Moving@wxMouseEvent@@QBE_NXZ 0041e0e0 f i bgimsystem.obj
 0001:0001d110       ?Entering@wxMouseEvent@@QBE_NXZ 0041e110 f i bgimsystem.obj
 0001:0001d140       ?Leaving@wxMouseEvent@@QBE_NXZ 0041e140 f i bgimsystem.obj
 0001:0001d170       ?AddHoverWindow@BgImCanvas@@QAEXPAVwxWindow@@H@Z 0041e170 f   bgimsystem.obj
 0001:0001d260       ?SetHoverWindowLocation@BgImCanvas@@QAEXHH@Z 0041e260 f   bgimsystem.obj
 0001:0001d2d0       ??0BgMdiEdgeChild@@QAE@PAVwxMDIParentFrame@@ABVwxString@@ABVwxPoint@@ABVwxSize@@J@Z 0041e2d0 f   bgimsystem.obj
 0001:00020780       ?Append@wxObjectList@@QAEPAVwxObjectListNode@@PAVwxObject@@@Z 00421780 f i bgimsystem.obj
 0001:000207b0       ??0wxEventTableEntryBase@@QAE@ABU0@@Z 004217b0 f i bgimsystem.obj
 0001:00020800       ??0wxEventTableEntry@@QAE@ABHHHP8wxObject@@AEXAAVwxEvent@@@ZPAV1@@Z 00421800 f i bgimsystem.obj
 0001:00020840       ??0wxEventTableEntryBase@@QAE@HHP8wxObject@@AEXAAVwxEvent@@@ZPAV1@@Z 00421840 f i bgimsystem.obj
 0001:00020880       ??0wxBitmap@@QAE@XZ        00421880 f i bgimsystem.obj
 0001:000208e0       ??0wxGDIImage@@QAE@XZ      004218e0 f i bgimsystem.obj
 0001:00020910       ??1wxGDIImage@@UAE@XZ      00421910 f i bgimsystem.obj
 0001:00020930       ??_EwxGDIImage@@UAEPAXI@Z  00421930 f i bgimsystem.obj
 0001:00020930       ??_GwxGDIImage@@UAEPAXI@Z  00421930 f i bgimsystem.obj
 0001:00020970       ??0wxBitmap@@QAE@ABVwxImage@@H@Z 00421970 f i bgimsystem.obj
 0001:000209e0       ??_EBgMdiEdgeChild@@UAEPAXI@Z 004219e0 f i bgimsystem.obj
 0001:000209e0       ??_GBgMdiEdgeChild@@UAEPAXI@Z 004219e0 f i bgimsystem.obj
 0001:00020a20       ??1BgMdiEdgeChild@@UAE@XZ  00421a20 f   bgimsystem.obj
 0001:00020df0       ?DeleteObject@wxObjectList@@QAE_NPAVwxObject@@@Z 00421df0 f i bgimsystem.obj
 0001:00020e20       ??4wxBitmap@@QAEAAV0@ABV0@@Z 00421e20 f i bgimsystem.obj
 0001:00020e60       ??_GBgEdgeList@@QAEPAXI@Z  00421e60 f i bgimsystem.obj
 0001:00020ea0       ?CreateData@wxBitmap@@MBEPAVwxGDIImageRefData@@XZ 00421ea0 f i bgimsystem.obj
 0001:00020f10       ??_GBgImage@@QAEPAXI@Z     00421f10 f i bgimsystem.obj
 0001:00020f50       ?GetClassInfo@wxBitmap@@UBEPAVwxClassInfo@@XZ 00421f50 f i bgimsystem.obj
 0001:00020f70       ??_GBgEdgeDetect@@QAEPAXI@Z 00421f70 f i bgimsystem.obj
 0001:00020fb0       ??_GwxBitmap@@UAEPAXI@Z    00421fb0 f i bgimsystem.obj
 0001:00020fb0       ??_EwxBitmap@@UAEPAXI@Z    00421fb0 f i bgimsystem.obj
 0001:00020ff0       ?OnUpdateNum@BgMdiEdgeChild@@QAEXAAVwxCommandEvent@@@Z 00421ff0 f   bgimsystem.obj
 0001:00021360       ?SetParametersNum@BgMdiEdgeChild@@QAEXXZ 00422360 f   bgimsystem.obj
 0001:00021600       ??0wxPen@@QAE@ABV0@@Z      00422600 f i bgimsystem.obj
 0001:00021670       ?GetClassInfo@wxPen@@UBEPAVwxClassInfo@@XZ 00422670 f i bgimsystem.obj
 0001:00021690       ?SetParametersStr@BgMdiEdgeChild@@QAEXXZ 00422690 f   bgimsystem.obj
 0001:00021d10       ?Ok@wxPen@@UBE_NXZ         00422d10 f i bgimsystem.obj
 0001:00021d40       ?GetColour@wxPen@@QBEAAVwxColour@@XZ 00422d40 f i bgimsystem.obj
 0001:00021d80       ??_GwxPen@@UAEPAXI@Z       00422d80 f i bgimsystem.obj
 0001:00021d80       ??_EwxPen@@UAEPAXI@Z       00422d80 f i bgimsystem.obj
 0001:00021dc0       ?OnViewEdge@BgMdiEdgeChild@@QAEXAAVwxCommandEvent@@@Z 00422dc0 f   bgimsystem.obj
 0001:00021e70       ?OnViewOrig@BgMdiEdgeChild@@QAEXAAVwxCommandEvent@@@Z 00422e70 f   bgimsystem.obj
 0001:00021f30       ?OnCViewEdge@BgMdiEdgeChild@@QAEXAAVwxCommandEvent@@@Z 00422f30 f   bgimsystem.obj
 0001:00021fe0       ?OnCViewOrig@BgMdiEdgeChild@@QAEXAAVwxCommandEvent@@@Z 00422fe0 f   bgimsystem.obj
 0001:00022080       ?OnSize@BgMdiEdgeChild@@QAEXAAVwxSizeEvent@@@Z 00423080 f   bgimsystem.obj
 0001:00022150       ?OnQuit@BgMdiEdgeChild@@QAEXAAVwxCommandEvent@@@Z 00423150 f   bgimsystem.obj
 0001:00022170       ?OnClose@BgMdiEdgeChild@@QAEXAAVwxCloseEvent@@@Z 00423170 f   bgimsystem.obj
 0001:000221c0       ?DrawLine@wxDCBase@@QAEXHHHH@Z 004231c0 f i bgimsystem.obj
 0001:00022200       ?OnFocus@BgMdiEdgeChild@@QAEXAAVwxFocusEvent@@@Z 00423200 f   bgimsystem.obj
 0001:00022230       ?ZoomWindow@BgMdiEdgeChild@@QAEXXZ 00423230 f   bgimsystem.obj
 0001:00022280       ?ZoomIn@BgMdiEdgeChild@@QAEXXZ 00423280 f   bgimsystem.obj
 0001:000222d0       ?ZoomOut@BgMdiEdgeChild@@QAEXXZ 004232d0 f   bgimsystem.obj
 0001:00022320       ?NoZoom@BgMdiEdgeChild@@QAEXXZ 00423320 f   bgimsystem.obj
 0001:00022370       ?UpdateZoomControl@BgMdiEdgeChild@@QAEXXZ 00423370 f   bgimsystem.obj
 0001:000223f0       ?RunEnable@BgMdiEdgeChild@@QAEXXZ 004233f0 f   bgimsystem.obj
 0001:00022440       ?SaveEnable@BgMdiEdgeChild@@QAEXXZ 00423440 f   bgimsystem.obj
 0001:00022480       ?UpdateToolBar@BgMdiEdgeChild@@QAEXXZ 00423480 f   bgimsystem.obj
 0001:00022780       ?DrawPoint@wxDCBase@@QAEXHH@Z 00423780 f i bgimsystem.obj
 0001:000227b0       ?DrawRectangle@wxDCBase@@QAEXHHHH@Z 004237b0 f i bgimsystem.obj
 0001:000227f0       ?ResetToolBar@BgMdiEdgeChild@@QAEXXZ 004237f0 f   bgimsystem.obj
 0001:000229e0       ?DrawEllipse@wxDCBase@@QAEXHHHH@Z 004239e0 f i bgimsystem.obj
 0001:00022a20       ?ReadImage@BgMdiEdgeChild@@QAEXPAD0@Z 00423a20 f   bgimsystem.obj
 0001:00022d50       ?DrawBitmap@wxDCBase@@QAEXABVwxBitmap@@HH_N@Z 00423d50 f i bgimsystem.obj
 0001:00022d90       ?DrawText@wxDCBase@@QAEXABVwxString@@HH@Z 00423d90 f i bgimsystem.obj
 0001:00022dc0       ?DrawRotatedText@wxDCBase@@QAEXABVwxString@@HHN@Z 00423dc0 f i bgimsystem.obj
 0001:00022e00       ?OnLoadImage@BgMdiEdgeChild@@QAEXAAVwxCommandEvent@@@Z 00423e00 f   bgimsystem.obj
 0001:00023390       ?OnSaveEdgeMap@BgMdiEdgeChild@@QAEXAAVwxCommandEvent@@@Z 00424390 f   bgimsystem.obj
 0001:00023650       ?GetPen@wxDCBase@@QAEAAVwxPen@@XZ 00424650 f i bgimsystem.obj
 0001:00023670       ?OnEdgeDetect@BgMdiEdgeChild@@QAEXAAVwxCommandEvent@@@Z 00424670 f   bgimsystem.obj
 0001:00023e70       ?SetTotalImage@BgMdiEdgeChild@@QAEXXZ 00424e70 f   bgimsystem.obj
 0001:00024080       ?SetNmxImage@BgMdiEdgeChild@@QAEXXZ 00425080 f   bgimsystem.obj
 0001:00024350       ?OnChangeParam@BgMdiEdgeChild@@QAEXAAVwxCommandEvent@@@Z 00425350 f   bgimsystem.obj
 0001:00024b70       ??0wxAcceleratorEntry@@QAE@HHHPAVwxMenuItem@@@Z 00425b70 f i bgimsystem.obj
 0001:00024bb0       ??0BgParamDialog@@QAE@PAVwxWindow@@HABVwxString@@ABVwxPoint@@ABVwxSize@@J1@Z 00425bb0 f   bgimsystem.obj
 0001:00026fe0       ?Set@wxAcceleratorEntry@@QAEXHHHPAVwxMenuItem@@@Z 00427fe0 f i bgimsystem.obj
 0001:00027020       ?SetLabel@wxWindowBase@@UAEXABVwxString@@@Z 00428020 f i bgimsystem.obj
 0001:00027050       ?GetLabel@wxWindowBase@@UBE?AVwxString@@XZ 00428050 f i bgimsystem.obj
 0001:00027090       ?SetName@wxWindowBase@@UAEXABVwxString@@@Z 00428090 f i bgimsystem.obj
 0001:000270c0       ?GetName@wxWindowBase@@UBE?AVwxString@@XZ 004280c0 f i bgimsystem.obj
 0001:00027100       ??0wxString@@QAE@ABV0@@Z   00428100 f i bgimsystem.obj
 0001:00027190       ?Lock@wxStringData@@QAEXXZ 00428190 f i bgimsystem.obj
 0001:000271d0       ?IsValid@wxStringData@@QBE_NXZ 004281d0 f i bgimsystem.obj
 0001:000271f0       ?IsEmpty@wxString@@QBE_NXZ 004281f0 f i bgimsystem.obj
 0001:00027210       ?Len@wxString@@QBEIXZ      00428210 f i bgimsystem.obj
 0001:00027230       ?GetId@wxWindowBase@@QBEHXZ 00428230 f i bgimsystem.obj
 0001:00027250       ?SetSize@wxWindowBase@@QAEXHHHHH@Z 00428250 f i bgimsystem.obj
 0001:00027290       ?SetSize@wxWindowBase@@QAEXHH@Z 00428290 f i bgimsystem.obj
 0001:000272d0       ?GetSize@wxWindowBase@@QBEXPAH0@Z 004282d0 f i bgimsystem.obj
 0001:00027300       ?GetClientSize@wxWindowBase@@QBEXPAH0@Z 00428300 f i bgimsystem.obj
 0001:00027330       ??_EBgParamDialog@@UAEPAXI@Z 00428330 f i bgimsystem.obj
 0001:00027330       ??_GBgParamDialog@@UAEPAXI@Z 00428330 f i bgimsystem.obj
 0001:00027370       ??1BgParamDialog@@UAE@XZ   00428370 f   bgimsystem.obj
 0001:000279a0       ?GetMinWidth@wxWindowBase@@UBEHXZ 004289a0 f i bgimsystem.obj
 0001:000279c0       ?GetMinHeight@wxWindowBase@@UBEHXZ 004289c0 f i bgimsystem.obj
 0001:000279e0       ?GetMaxSize@wxWindowBase@@UBE?AVwxSize@@XZ 004289e0 f i bgimsystem.obj
 0001:00027a20       ?GetBestVirtualSize@wxWindowBase@@UBE?AVwxSize@@XZ 00428a20 f i bgimsystem.obj
 0001:00027ab0       ?GetClientSize@wxWindowBase@@QBE?AVwxSize@@XZ 00428ab0 f i bgimsystem.obj
 0001:00027b00       ?GetBestSize@wxWindowBase@@QBE?AVwxSize@@XZ 00428b00 f i bgimsystem.obj
 0001:00027b40       ?OnOk@BgParamDialog@@QAEXAAVwxCommandEvent@@@Z 00428b40 f   bgimsystem.obj
 0001:00027b70       ?OnCancel@BgParamDialog@@QAEXAAVwxCommandEvent@@@Z 00428b70 f   bgimsystem.obj
 0001:00027ba0       ?SetValues@BgParamDialog@@QAEXNNNNNNHHHHH@Z 00428ba0 f   bgimsystem.obj
 0001:00027f30       ?GetWindowStyleFlag@wxWindowBase@@UBEJXZ 00428f30 f i bgimsystem.obj
 0001:00027f50       ?IsRetained@wxWindowBase@@UBE_NXZ 00428f50 f i bgimsystem.obj
 0001:00027f70       ?HasFlag@wxWindowBase@@QBE_NH@Z 00428f70 f i bgimsystem.obj
 0001:00027fa0       ?SetExtraStyle@wxWindowBase@@UAEXJ@Z 00428fa0 f i bgimsystem.obj
 0001:00027fd0       ?SetThemeEnabled@wxWindowBase@@UAEX_N@Z 00428fd0 f i bgimsystem.obj
 0001:00028000       ?GetThemeEnabled@wxWindowBase@@UBE_NXZ 00429000 f i bgimsystem.obj
 0001:00028020       ?AcceptsFocus@wxWindowBase@@UBE_NXZ 00429020 f i bgimsystem.obj
 0001:00028070       ?IsShown@wxWindowBase@@QBE_NXZ 00429070 f i bgimsystem.obj
 0001:00028090       ?IsEnabled@wxWindowBase@@QBE_NXZ 00429090 f i bgimsystem.obj
 0001:000280c0       ?AcceptsFocusFromKeyboard@wxWindowBase@@UBE_NXZ 004290c0 f i bgimsystem.obj
 0001:000280f0       ?GetValues@BgParamDialog@@QAEXAAN00000AAH1111@Z 004290f0 f   bgimsystem.obj
 0001:000288d0       ?GetDefaultItem@wxWindowBase@@UBEPAVwxWindow@@XZ 004298d0 f i bgimsystem.obj
 0001:000288f0       ?SetDefaultItem@wxWindowBase@@UAEPAVwxWindow@@PAV2@@Z 004298f0 f i bgimsystem.obj
 0001:00028910       ?SetTmpDefaultItem@wxWindowBase@@UAEXPAVwxWindow@@@Z 00429910 f i bgimsystem.obj
 0001:00028930       ?GetParent@wxWindowBase@@QBEPAVwxWindow@@XZ 00429930 f i bgimsystem.obj
 0001:00028950       ?GetValidator@wxWindowBase@@UAEPAVwxValidator@@XZ 00429950 f i bgimsystem.obj
 0001:00028970       ?SetAcceleratorTable@wxWindowBase@@UAEXABVwxAcceleratorTable@@@Z 00429970 f i bgimsystem.obj
 0001:000289a0       ??4wxAcceleratorTable@@QAEAAV0@ABV0@@Z 004299a0 f i bgimsystem.obj
 0001:000289e0       ??9wxAcceleratorTable@@QBE_NABV0@@Z 004299e0 f i bgimsystem.obj
 0001:00028a10       ??8wxAcceleratorTable@@QBE_NABV0@@Z 00429a10 f i bgimsystem.obj
 0001:00028a40       ?HasCapture@wxWindowBase@@UBE_NXZ 00429a40 f i bgimsystem.obj
 0001:00028a70       ?PrepareDC@wxWindowBase@@UAEXAAVwxDC@@@Z 00429a70 f i bgimsystem.obj
 0001:00028a90       ??0BgSpeedSelect@@QAE@PAVwxWindow@@HABVwxString@@ABVwxPoint@@ABVwxSize@@J1@Z 00429a90 f   bgimsystem.obj
 0001:00029030       ??_GBgSpeedSelect@@UAEPAXI@Z 0042a030 f i bgimsystem.obj
 0001:00029030       ??_EBgSpeedSelect@@UAEPAXI@Z 0042a030 f i bgimsystem.obj
 0001:00029070       ??1BgSpeedSelect@@UAE@XZ   0042a070 f   bgimsystem.obj
 0001:00029160       ?PopupMenu@wxWindowBase@@QAE_NPAVwxMenu@@HH@Z 0042a160 f i bgimsystem.obj
 0001:00029190       ?OnOk@BgSpeedSelect@@QAEXAAVwxCommandEvent@@@Z 0042a190 f   bgimsystem.obj
 0001:000291c0       ?OnCancel@BgSpeedSelect@@QAEXAAVwxCommandEvent@@@Z 0042a1c0 f   bgimsystem.obj
 0001:000291f0       ?SetSliderValue@BgSpeedSelect@@QAEXM@Z 0042a1f0 f   bgimsystem.obj
 0001:00029230       ?GetSliderValue@BgSpeedSelect@@QAEXAAM@Z 0042a230 f   bgimsystem.obj
 0001:00029270       ??0BgMdiSegmentChild@@QAE@PAVwxMDIParentFrame@@ABVwxString@@ABVwxPoint@@ABVwxSize@@J@Z 0042a270 f   bgimsystem.obj
 0001:0002c660       ?GetDropTarget@wxWindowBase@@UBEPAVwxDropTarget@@XZ 0042d660 f i bgimsystem.obj
 0001:0002c680       ?SetAutoLayout@wxWindowBase@@QAEX_N@Z 0042d680 f i bgimsystem.obj
 0001:0002c6c0       ??0wxWindow@@QAE@PAV0@HABVwxPoint@@ABVwxSize@@JABVwxString@@@Z 0042d6c0 f i bgimsystem.obj
 0001:0002c740       ??0wxWindowBase@@QAE@XZ    0042d740 f i bgimsystem.obj
 0001:0002c850       ??0wxSize@@QAE@XZ          0042d850 f i bgimsystem.obj
 0001:0002c880       ??0wxWindowList@@QAE@W4wxKeyType@@@Z 0042d880 f i bgimsystem.obj
 0001:0002c8b0       ?Find@wxWindowList@@UBEPAVwxWindowListNode@@ABVwxListKey@@@Z 0042d8b0 f i bgimsystem.obj
 0001:0002c8e0       ?CreateNode@wxWindowList@@MAEPAVwxNodeBase@@PAV2@0PAXABVwxListKey@@@Z 0042d8e0 f i bgimsystem.obj
 0001:0002c970       ??0wxWindowListNode@@QAE@PAVwxListBase@@PAV0@1PAVwxWindow@@ABVwxListKey@@@Z 0042d970 f i bgimsystem.obj
 0001:0002c9b0       ??_EwxWindowListNode@@UAEPAXI@Z 0042d9b0 f i bgimsystem.obj
 0001:0002c9b0       ??_GwxWindowListNode@@UAEPAXI@Z 0042d9b0 f i bgimsystem.obj
 0001:0002c9f0       ??1wxWindowListNode@@UAE@XZ 0042d9f0 f i bgimsystem.obj
 0001:0002ca10       ??_GwxWindowList@@UAEPAXI@Z 0042da10 f i bgimsystem.obj
 0001:0002ca10       ??_EwxWindowList@@UAEPAXI@Z 0042da10 f i bgimsystem.obj
 0001:0002ca50       ??1wxWindowList@@UAE@XZ    0042da50 f i bgimsystem.obj
 0001:0002ca70       ?SetTitle@wxWindowBase@@UAEXABVwxString@@@Z 0042da70 f i bgimsystem.obj
 0001:0002ca90       ?GetTitle@wxWindowBase@@UBE?AVwxString@@XZ 0042da90 f i bgimsystem.obj
 0001:0002cad0       ?SetWindowStyleFlag@wxWindowBase@@UAEXJ@Z 0042dad0 f i bgimsystem.obj
 0001:0002cb00       ?SetFocusFromKbd@wxWindowBase@@UAEXXZ 0042db00 f i bgimsystem.obj
 0001:0002cb30       ?Update@wxWindowBase@@UAEXXZ 0042db30 f i bgimsystem.obj
 0001:0002cb50       ?Freeze@wxWindowBase@@UAEXXZ 0042db50 f i bgimsystem.obj
 0001:0002cb70       ?Thaw@wxWindowBase@@UAEXXZ 0042db70 f i bgimsystem.obj
 0001:0002cb90       ?ScrollLines@wxWindowBase@@UAE_NH@Z 0042db90 f i bgimsystem.obj
 0001:0002cbb0       ?ScrollPages@wxWindowBase@@UAE_NH@Z 0042dbb0 f i bgimsystem.obj
 0001:0002cbd0       ?GetClassInfo@wxWindowBase@@UBEPAVwxClassInfo@@XZ 0042dbd0 f i bgimsystem.obj
 0001:0002cbf0       ??_GwxWindowBase@@UAEPAXI@Z 0042dbf0 f i bgimsystem.obj
 0001:0002cbf0       ??_EwxWindowBase@@UAEPAXI@Z 0042dbf0 f i bgimsystem.obj
 0001:0002cc30       ?GetHandle@wxWindow@@UBEKXZ 0042dc30 f i bgimsystem.obj
 0001:0002cc50       ?GetHWND@wxWindow@@QBEKXZ  0042dc50 f i bgimsystem.obj
 0001:0002cc70       ?ContainsHWND@wxWindow@@UBE_NK@Z 0042dc70 f i bgimsystem.obj
 0001:0002cc90       ?GetClassInfo@wxWindow@@UBEPAVwxClassInfo@@XZ 0042dc90 f i bgimsystem.obj
 0001:0002ccb0       ??_EwxWindow@@UAEPAXI@Z    0042dcb0 f i bgimsystem.obj
 0001:0002ccb0       ??_GwxWindow@@UAEPAXI@Z    0042dcb0 f i bgimsystem.obj
 0001:0002ccf0       ??0wxBuildOptions@@QAE@XZ  0042dcf0 f i bgimsystem.obj
 0001:0002cd20       ?OnFatalException@wxAppBase@@UAEXXZ 0042dd20 f i bgimsystem.obj
 0001:0002cd40       ?IsActive@wxAppBase@@UBE_NXZ 0042dd40 f i bgimsystem.obj
 0001:0002cd60       ?SetTopWindow@wxAppBase@@QAEXPAVwxWindow@@@Z 0042dd60 f i bgimsystem.obj
 0001:0002cd80       ?GetTopWindow@wxAppBase@@UBEPAVwxWindow@@XZ 0042dd80 f i bgimsystem.obj
 0001:0002cdd0       ?GetCount@wxListBase@@QBEIXZ 0042ddd0 f i bgimsystem.obj
 0001:0002cdf0       ?GetData@wxWindowListNode@@QBEPAVwxWindow@@XZ 0042ddf0 f i bgimsystem.obj
 0001:0002ce10       ?GetData@wxNodeBase@@IBEPAXXZ 0042de10 f i bgimsystem.obj
 0001:0002ce30       ?GetFirst@wxWindowList@@QBEPAVwxWindowListNode@@XZ 0042de30 f i bgimsystem.obj
 0001:0002ce50       ?GetFirst@wxListBase@@IBEPAVwxNodeBase@@XZ 0042de50 f i bgimsystem.obj
 0001:0002ce70       ?GetDisplayMode@wxAppBase@@UBE?AVwxDisplayModeInfo@@XZ 0042de70 f i bgimsystem.obj
 0001:0002ceb0       ??0wxDisplayModeInfo@@QAE@XZ 0042deb0 f i bgimsystem.obj
 0001:0002ced0       ?SetDisplayMode@wxAppBase@@UAE_NABVwxDisplayModeInfo@@@Z 0042ded0 f i bgimsystem.obj
 0001:0002cef0       ?GetClassInfo@wxApp@@UBEPAVwxClassInfo@@XZ 0042def0 f i bgimsystem.obj
 0001:0002cf10       ?SetPrintMode@wxApp@@UAEXH@Z 0042df10 f i bgimsystem.obj
 0001:0002cf30       ?GetPrintMode@wxApp@@UBEHXZ 0042df30 f i bgimsystem.obj
 0001:0002cf50       ??0wxAppInitializer@@QAE@P6APAVwxApp@@XZ@Z 0042df50 f i bgimsystem.obj
 0001:0002cf80       ?SetInitializerFunction@wxAppBase@@SAXP6APAVwxApp@@XZ@Z 0042df80 f i bgimsystem.obj
 0001:0002cfa0       ??0wxPanel@@QAE@PAVwxWindow@@HABVwxPoint@@ABVwxSize@@JABVwxString@@@Z 0042dfa0 f i bgimsystem.obj
 0001:0002d030       ??0wxWindow@@QAE@XZ        0042e030 f i bgimsystem.obj
 0001:0002d090       ?GetClassInfo@wxPanel@@UBEPAVwxClassInfo@@XZ 0042e090 f i bgimsystem.obj
 0001:0002d0b0       ??_EBgMdiSegmentChild@@UAEPAXI@Z 0042e0b0 f i bgimsystem.obj
 0001:0002d0b0       ??_GBgMdiSegmentChild@@UAEPAXI@Z 0042e0b0 f i bgimsystem.obj
 0001:0002d0f0       ??_EwxPanel@@UAEPAXI@Z     0042e0f0 f i bgimsystem.obj
 0001:0002d0f0       ??_GwxPanel@@UAEPAXI@Z     0042e0f0 f i bgimsystem.obj
 0001:0002d130       ??1BgMdiSegmentChild@@UAE@XZ 0042e130 f   bgimsystem.obj
 0001:0002d3c0       ??_GBgPointSet@@QAEPAXI@Z  0042e3c0 f i bgimsystem.obj
 0001:0002d400       ?OnViewImSeg@BgMdiSegmentChild@@QAEXAAVwxCommandEvent@@@Z 0042e400 f   bgimsystem.obj
 0001:0002d6a0       ?OnChangeOperation@BgMdiSegmentChild@@QAEXAAVwxCommandEvent@@@Z 0042e6a0 f   bgimsystem.obj
 0001:0002d7c0       ?IsTopLevel@wxTopLevelWindowBase@@UBE_NXZ 0042e7c0 f i bgimsystem.obj
 0001:0002d7e0       ?IsOneOfBars@wxTopLevelWindowBase@@MBE_NPBVwxWindow@@@Z 0042e7e0 f i bgimsystem.obj
 0001:0002d800       ?OnChangeParameters@BgMdiSegmentChild@@QAEXAAVwxCommandEvent@@@Z 0042e800 f   bgimsystem.obj
 0001:0002db80       ?IsFullScreen@wxTopLevelWindowMSW@@UBE_NXZ 0042eb80 f i bgimsystem.obj
 0001:0002dba0       ?GetMenuBar@wxFrameBase@@UBEPAVwxMenuBar@@XZ 0042eba0 f i bgimsystem.obj
 0001:0002dbc0       ?GetStatusBar@wxFrameBase@@UBEPAVwxStatusBar@@XZ 0042ebc0 f i bgimsystem.obj
 0001:0002dbe0       ?OnUpdateTextBoxes@BgMdiSegmentChild@@QAEXAAVwxCommandEvent@@@Z 0042ebe0 f   bgimsystem.obj
 0001:0002dc60       ?OnUpdateSpeedUpLevel@BgMdiSegmentChild@@QAEXAAVwxCommandEvent@@@Z 0042ec60 f   bgimsystem.obj
 0001:0002de40       ?GetToolBar@wxFrameBase@@UBEPAVwxToolBar@@XZ 0042ee40 f i bgimsystem.obj
 0001:0002de60       ?SetToolBar@wxFrameBase@@UAEXPAVwxToolBar@@@Z 0042ee60 f i bgimsystem.obj
 0001:0002de90       ?PositionMenuBar@wxFrameBase@@MAEXXZ 0042ee90 f i bgimsystem.obj
 0001:0002deb0       ?OnViewBoundaries@BgMdiSegmentChild@@QAEXAAVwxCommandEvent@@@Z 0042eeb0 f   bgimsystem.obj
 0001:0002df30       ?IsMDIChild@wxFrame@@MBE_NXZ 0042ef30 f i bgimsystem.obj
 0001:0002df50       ?OnUseWeightMap@BgMdiSegmentChild@@QAEXAAVwxCommandEvent@@@Z 0042ef50 f   bgimsystem.obj
 0001:0002e0f0       ?OnUpdatePlotWindow1@BgMdiSegmentChild@@QAEXAAVwxCommandEvent@@@Z 0042f0f0 f   bgimsystem.obj
 0001:0002e4a0       ?OnUpdatePlotWindow2@BgMdiSegmentChild@@QAEXAAVwxCommandEvent@@@Z 0042f4a0 f   bgimsystem.obj
 0001:0002e850       ?OnSaveEdgeInformation@BgMdiSegmentChild@@QAEXAAVwxCommandEvent@@@Z 0042f850 f   bgimsystem.obj
 0001:0002eba0       ?OnSize@BgMdiSegmentChild@@QAEXAAVwxSizeEvent@@@Z 0042fba0 f   bgimsystem.obj
 0001:0002ec60       ?ClearDisplay@BgMdiSegmentChild@@QAEXXZ 0042fc60 f   bgimsystem.obj
 0001:0002eca0       ?UpdateDisplay@BgMdiSegmentChild@@QAEX_N@Z 0042fca0 f   bgimsystem.obj
 0001:0002ed30       ?OnQuit@BgMdiSegmentChild@@QAEXAAVwxCommandEvent@@@Z 0042fd30 f   bgimsystem.obj
 0001:0002ed50       ?OnClose@BgMdiSegmentChild@@QAEXAAVwxCloseEvent@@@Z 0042fd50 f   bgimsystem.obj
 0001:0002eda0       ?OnFocus@BgMdiSegmentChild@@QAEXAAVwxFocusEvent@@@Z 0042fda0 f   bgimsystem.obj
 0001:0002edd0       ?ZoomWindow@BgMdiSegmentChild@@QAEXXZ 0042fdd0 f   bgimsystem.obj
 0001:0002ee20       ?ZoomIn@BgMdiSegmentChild@@QAEXXZ 0042fe20 f   bgimsystem.obj
 0001:0002ee70       ?ZoomOut@BgMdiSegmentChild@@QAEXXZ 0042fe70 f   bgimsystem.obj
 0001:0002eec0       ?NoZoom@BgMdiSegmentChild@@QAEXXZ 0042fec0 f   bgimsystem.obj
 0001:0002ef10       ?UpdateZoomControl@BgMdiSegmentChild@@QAEXXZ 0042ff10 f   bgimsystem.obj
 0001:0002ef90       ?RunEnable@BgMdiSegmentChild@@QAEXXZ 0042ff90 f   bgimsystem.obj
 0001:0002f080       ?SaveEnable@BgMdiSegmentChild@@QAEXXZ 00430080 f   bgimsystem.obj
 0001:0002f0c0       ?UpdateToolBar@BgMdiSegmentChild@@QAEXXZ 004300c0 f   bgimsystem.obj
 0001:0002f3c0       ?ResetToolBar@BgMdiSegmentChild@@QAEXXZ 004303c0 f   bgimsystem.obj
 0001:0002f5b0       ?ReadImage@BgMdiSegmentChild@@QAEXPAD0@Z 004305b0 f   bgimsystem.obj
 0001:0002fcd0       ?OnLoadImage@BgMdiSegmentChild@@QAEXAAVwxCommandEvent@@@Z 00430cd0 f   bgimsystem.obj
 0001:000306d0       ?MSWOnDraw@wxControl@@UAE_NPAPAX@Z 004316d0 f i bgimsystem.obj
 0001:000306f0       ?MSWOnMeasure@wxControl@@UAE_NPAPAX@Z 004316f0 f i bgimsystem.obj
 0001:00030710       ??0wxButton@@QAE@PAVwxWindow@@HABVwxString@@ABVwxPoint@@ABVwxSize@@JABVwxValidator@@1@Z 00431710 f i bgimsystem.obj
 0001:00030790       ?SetImageLabel@wxButtonBase@@UAEXABVwxBitmap@@@Z 00431790 f i bgimsystem.obj
 0001:000307b0       ?SetImageMargins@wxButtonBase@@UAEXHH@Z 004317b0 f i bgimsystem.obj
 0001:000307d0       ?GetClassInfo@wxButton@@UBEPAVwxClassInfo@@XZ 004317d0 f i bgimsystem.obj
 0001:000307f0       ??_EwxButton@@UAEPAXI@Z    004317f0 f i bgimsystem.obj
 0001:000307f0       ??_GwxButton@@UAEPAXI@Z    004317f0 f i bgimsystem.obj
 0001:00030830       ??0wxButtonBase@@QAE@XZ    00431830 f i bgimsystem.obj
 0001:00030860       ?GetClassInfo@wxControl@@UBEPAVwxClassInfo@@XZ 00431860 f i bgimsystem.obj
 0001:00030880       ?Command@wxControl@@UAEXAAVwxCommandEvent@@@Z 00431880 f i bgimsystem.obj
 0001:000308b0       ?SetDefault@wxButtonBase@@UAEXXZ 004318b0 f i bgimsystem.obj
 0001:000308d0       ??1wxButtonBase@@UAE@XZ    004318d0 f i bgimsystem.obj
 0001:000308f0       ??_GwxButtonBase@@UAEPAXI@Z 004318f0 f i bgimsystem.obj
 0001:000308f0       ??_EwxButtonBase@@UAEPAXI@Z 004318f0 f i bgimsystem.obj
 0001:00030930       ?LoadCustomWeightMap@BgMdiSegmentChild@@QAEXAAVwxCommandEvent@@@Z 00431930 f   bgimsystem.obj
 0001:00030c70       ?OnSaveSegmentedImage@BgMdiSegmentChild@@QAEXAAVwxCommandEvent@@@Z 00431c70 f   bgimsystem.obj
 0001:00031200       ?OnSaveBoundaries@BgMdiSegmentChild@@QAEXPADH@Z 00432200 f   bgimsystem.obj
 0001:000313d0       ?SetphDiagram@BgMdiSegmentChild@@QAEXHPAM0@Z 004323d0 f   bgimsystem.obj
 0001:000315d0       ?mySegment@@YAXPAX@Z       004325d0 f   bgimsystem.obj
 0001:000315f0       ?OnSegment@BgMdiSegmentChild@@QAEXAAVwxCommandEvent@@@Z 004325f0 f   bgimsystem.obj
 0001:00031a30       ?Segment@BgMdiSegmentChild@@QAEXXZ 00432a30 f   bgimsystem.obj
 0001:00032a30       ?Append@wxMenuBase@@QAEXHABVwxString@@0W4wxItemKind@@@Z 00433a30 f i bgimsystem.obj
 0001:00032a70       ?AppendSeparator@wxMenuBase@@QAEXXZ 00433a70 f i bgimsystem.obj
 0001:00032b00       ?Append@wxMenuBase@@QAEXPAVwxMenuItem@@@Z 00433b00 f i bgimsystem.obj
 0001:00032b30       ??_GmsImageProcessor@@QAEPAXI@Z 00433b30 f i bgimsystem.obj
 0001:00032b70       ?GetParameters@BgMdiSegmentChild@@QAEHAAHAAM1100H@Z 00433b70 f   bgimsystem.obj
 0001:00033610       ?Append@wxMenuBase@@QAEXHABVwxString@@0_N@Z 00434610 f i bgimsystem.obj
 0001:00033650       ??_9@$BCEE@AE              00434650 f i bgimsystem.obj
 0001:00033660       ??_EBgImCanvas@@WBDI@AEPAXI@Z 00434660 f i bgimsystem.obj
 0001:00033670       ??_EBgParameterHistoryBox@@WBDA@AEPAXI@Z 00434670 f i bgimsystem.obj
 0001:00033680       ??0wxMenu@@QAE@J@Z         00434680 f i bgimsystem.obj
 0001:00033700       ??0wxMenuBase@@QAE@J@Z     00434700 f i bgimsystem.obj
 0001:00033790       ?GetClassInfo@wxEvtHandler@@UBEPAVwxClassInfo@@XZ 00434790 f i bgimsystem.obj
 0001:000337b0       ??0wxMenuItemList@@QAE@W4wxKeyType@@@Z 004347b0 f i bgimsystem.obj
 0001:000337e0       ?Find@wxMenuItemList@@UBEPAVwxwxMenuItemListNode@@ABVwxListKey@@@Z 004347e0 f i bgimsystem.obj
 0001:00033810       ?CreateNode@wxMenuItemList@@MAEPAVwxNodeBase@@PAV2@0PAXABVwxListKey@@@Z 00434810 f i bgimsystem.obj
 0001:000338a0       ??0wxwxMenuItemListNode@@QAE@PAVwxListBase@@PAV0@1PAVwxMenuItem@@ABVwxListKey@@@Z 004348a0 f i bgimsystem.obj
 0001:000338e0       ??_GwxwxMenuItemListNode@@UAEPAXI@Z 004348e0 f i bgimsystem.obj
 0001:000338e0       ??_EwxwxMenuItemListNode@@UAEPAXI@Z 004348e0 f i bgimsystem.obj
 0001:00033920       ??1wxwxMenuItemListNode@@UAE@XZ 00434920 f i bgimsystem.obj
 0001:00033940       ??_EwxMenuItemList@@UAEPAXI@Z 00434940 f i bgimsystem.obj
 0001:00033940       ??_GwxMenuItemList@@UAEPAXI@Z 00434940 f i bgimsystem.obj
 0001:00033980       ??1wxMenuItemList@@UAE@XZ  00434980 f i bgimsystem.obj
 0001:000339a0       ?Break@wxMenuBase@@UAEXXZ  004349a0 f i bgimsystem.obj
 0001:000339c0       ?SetTitle@wxMenuBase@@UAEXABVwxString@@@Z 004349c0 f i bgimsystem.obj
 0001:000339f0       ??_GwxMenuBase@@UAEPAXI@Z  004349f0 f i bgimsystem.obj
 0001:000339f0       ??_EwxMenuBase@@UAEPAXI@Z  004349f0 f i bgimsystem.obj
 0001:00033a30       ??0wxAcceleratorArray@@QAE@XZ 00434a30 f i bgimsystem.obj
 0001:00033a50       ??1wxAcceleratorArray@@QAE@XZ 00434a50 f i bgimsystem.obj
 0001:00033a70       ?GetClassInfo@wxMenu@@UBEPAVwxClassInfo@@XZ 00434a70 f i bgimsystem.obj
 0001:00033a90       ??_GwxMenu@@UAEPAXI@Z      00434a90 f i bgimsystem.obj
 0001:00033a90       ??_EwxMenu@@UAEPAXI@Z      00434a90 f i bgimsystem.obj
 0001:00033ad0       ??0wxDialog@@QAE@PAVwxWindow@@HABVwxString@@ABVwxPoint@@ABVwxSize@@J1@Z 00434ad0 f i bgimsystem.obj
 0001:00033b50       ??0wxDialogBase@@QAE@XZ    00434b50 f i bgimsystem.obj
 0001:00033bc0       ??0wxTopLevelWindow@@QAE@XZ 00434bc0 f i bgimsystem.obj
 0001:00033c20       ??0wxTopLevelWindowMSW@@QAE@XZ 00434c20 f i bgimsystem.obj
 0001:00033c90       ??0wxRect@@QAE@XZ          00434c90 f i bgimsystem.obj
 0001:00033cd0       ??_EwxTopLevelWindowMSW@@UAEPAXI@Z 00434cd0 f i bgimsystem.obj
 0001:00033cd0       ??_GwxTopLevelWindowMSW@@UAEPAXI@Z 00434cd0 f i bgimsystem.obj
 0001:00033d10       ?GetClassInfo@wxTopLevelWindow@@UBEPAVwxClassInfo@@XZ 00434d10 f i bgimsystem.obj
 0001:00033d30       ??_GwxTopLevelWindow@@UAEPAXI@Z 00434d30 f i bgimsystem.obj
 0001:00033d30       ??_EwxTopLevelWindow@@UAEPAXI@Z 00434d30 f i bgimsystem.obj
 0001:00033d70       ??1wxTopLevelWindow@@UAE@XZ 00434d70 f i bgimsystem.obj
 0001:00033d90       ??1wxDialogBase@@UAE@XZ    00434d90 f i bgimsystem.obj
 0001:00033dc0       ??_EwxDialogBase@@UAEPAXI@Z 00434dc0 f i bgimsystem.obj
 0001:00033dc0       ??_GwxDialogBase@@UAEPAXI@Z 00434dc0 f i bgimsystem.obj
 0001:00033e00       ?GetClassInfo@wxDialog@@UBEPAVwxClassInfo@@XZ 00434e00 f i bgimsystem.obj
 0001:00033e20       ??_EwxDialog@@UAEPAXI@Z    00434e20 f i bgimsystem.obj
 0001:00033e20       ??_GwxDialog@@UAEPAXI@Z    00434e20 f i bgimsystem.obj
 0001:00033e60       ?Append@wxItemContainer@@QAEHABVwxString@@@Z 00434e60 f i bgimsystem.obj
 0001:00033e90       ??0wxBitmapButton@@QAE@PAVwxWindow@@HABVwxBitmap@@ABVwxPoint@@ABVwxSize@@JABVwxValidator@@ABVwxString@@@Z 00434e90 f i bgimsystem.obj
 0001:00033f10       ??0wxBitmapButtonBase@@QAE@XZ 00434f10 f i bgimsystem.obj
 0001:00033fd0       ??0wxButton@@QAE@XZ        00434fd0 f i bgimsystem.obj
 0001:00034000       ?SetMargins@wxBitmapButtonBase@@UAEXHH@Z 00435000 f i bgimsystem.obj
 0001:00034030       ?OnSetBitmap@wxBitmapButtonBase@@MAEXXZ 00435030 f i bgimsystem.obj
 0001:00034050       ?SetLabel@wxBitmapButtonBase@@EAEXABVwxString@@@Z 00435050 f i bgimsystem.obj
 0001:00034080       ??_EwxBitmapButtonBase@@UAEPAXI@Z 00435080 f i bgimsystem.obj
 0001:00034080       ??_GwxBitmapButtonBase@@UAEPAXI@Z 00435080 f i bgimsystem.obj
 0001:000340c0       ??1wxBitmapButtonBase@@UAE@XZ 004350c0 f i bgimsystem.obj
 0001:00034150       ?GetClassInfo@wxBitmapButton@@UBEPAVwxClassInfo@@XZ 00435150 f i bgimsystem.obj
 0001:00034170       ??_EwxBitmapButton@@UAEPAXI@Z 00435170 f i bgimsystem.obj
 0001:00034170       ??_GwxBitmapButton@@UAEPAXI@Z 00435170 f i bgimsystem.obj
 0001:000341b0       ??1wxBitmapButton@@UAE@XZ  004351b0 f i bgimsystem.obj
 0001:000341d0       ??0wxCheckBox@@QAE@PAVwxWindow@@HABVwxString@@ABVwxPoint@@ABVwxSize@@JABVwxValidator@@1@Z 004351d0 f i bgimsystem.obj
 0001:00034250       ?GetClassInfo@wxCheckBox@@UBEPAVwxClassInfo@@XZ 00435250 f i bgimsystem.obj
 0001:00034270       ??_GwxCheckBox@@UAEPAXI@Z  00435270 f i bgimsystem.obj
 0001:00034270       ??_EwxCheckBox@@UAEPAXI@Z  00435270 f i bgimsystem.obj
 0001:000342b0       ??0wxCheckBoxBase@@QAE@XZ  004352b0 f i bgimsystem.obj
 0001:000342e0       ??1wxCheckBoxBase@@UAE@XZ  004352e0 f i bgimsystem.obj
 0001:00034300       ??1wxCheckBox@@UAE@XZ      00435300 f i bgimsystem.obj
 0001:00034320       ??_EwxCheckBoxBase@@UAEPAXI@Z 00435320 f i bgimsystem.obj
 0001:00034320       ??_GwxCheckBoxBase@@UAEPAXI@Z 00435320 f i bgimsystem.obj
 0001:00034360       ?Select@wxChoiceBase@@UAEXH@Z 00435360 f i bgimsystem.obj
 0001:000343a0       ?SetColumns@wxChoiceBase@@UAEXH@Z 004353a0 f i bgimsystem.obj
 0001:000343c0       ?GetColumns@wxChoiceBase@@UBEHXZ 004353c0 f i bgimsystem.obj
 0001:000343e0       ??0wxChoice@@QAE@PAVwxWindow@@HABVwxPoint@@ABVwxSize@@HQBVwxString@@JABVwxValidator@@ABV4@@Z 004353e0 f i bgimsystem.obj
 0001:00034470       ?GetClassInfo@wxChoice@@UBEPAVwxClassInfo@@XZ 00435470 f i bgimsystem.obj
 0001:00034490       ??_GwxChoice@@UAEPAXI@Z    00435490 f i bgimsystem.obj
 0001:00034490       ??_EwxChoice@@UAEPAXI@Z    00435490 f i bgimsystem.obj
 0001:000344d0       ??0wxChoiceBase@@QAE@XZ    004354d0 f i bgimsystem.obj
 0001:00034510       ??0wxControlWithItems@@QAE@XZ 00435510 f i bgimsystem.obj
 0001:00034580       ??0wxItemContainer@@QAE@XZ 00435580 f i bgimsystem.obj
 0001:000345b0       ??_EwxItemContainer@@UAEPAXI@Z 004355b0 f i bgimsystem.obj
 0001:000345b0       ??_GwxItemContainer@@UAEPAXI@Z 004355b0 f i bgimsystem.obj
 0001:000345f0       ??_GwxControlWithItems@@UAEPAXI@Z 004355f0 f i bgimsystem.obj
 0001:000345f0       ??_EwxControlWithItems@@UAEPAXI@Z 004355f0 f i bgimsystem.obj
 0001:00034630       ??_EwxChoiceBase@@UAEPAXI@Z 00435630 f i bgimsystem.obj
 0001:00034630       ??_GwxChoiceBase@@UAEPAXI@Z 00435630 f i bgimsystem.obj
 0001:00034670       ??0wxStaticText@@QAE@PAVwxWindow@@HABVwxString@@ABVwxPoint@@ABVwxSize@@J1@Z 00435670 f i bgimsystem.obj
 0001:000346f0       ?AcceptsFocus@wxStaticTextBase@@UBE_NXZ 004356f0 f i bgimsystem.obj
 0001:00034710       ?GetClassInfo@wxStaticText@@UBEPAVwxClassInfo@@XZ 00435710 f i bgimsystem.obj
 0001:00034730       ??_GwxStaticText@@UAEPAXI@Z 00435730 f i bgimsystem.obj
 0001:00034730       ??_EwxStaticText@@UAEPAXI@Z 00435730 f i bgimsystem.obj
 0001:00034770       ??0wxStaticTextBase@@QAE@XZ 00435770 f i bgimsystem.obj
 0001:000347a0       ??1wxStaticTextBase@@UAE@XZ 004357a0 f i bgimsystem.obj
 0001:000347c0       ??1wxStaticText@@UAE@XZ    004357c0 f i bgimsystem.obj
 0001:000347e0       ??_EwxStaticTextBase@@UAEPAXI@Z 004357e0 f i bgimsystem.obj
 0001:000347e0       ??_GwxStaticTextBase@@UAEPAXI@Z 004357e0 f i bgimsystem.obj
 0001:00034820       ??0wxStaticBox@@QAE@PAVwxWindow@@HABVwxString@@ABVwxPoint@@ABVwxSize@@J1@Z 00435820 f i bgimsystem.obj
 0001:000348a0       ?AcceptsFocus@wxStaticBox@@UBE_NXZ 004358a0 f i bgimsystem.obj
 0001:000348c0       ?GetClassInfo@wxStaticBox@@UBEPAVwxClassInfo@@XZ 004358c0 f i bgimsystem.obj
 0001:000348e0       ??_GwxStaticBox@@UAEPAXI@Z 004358e0 f i bgimsystem.obj
 0001:000348e0       ??_EwxStaticBox@@UAEPAXI@Z 004358e0 f i bgimsystem.obj
 0001:00034920       ??0wxStaticBoxBase@@QAE@XZ 00435920 f i bgimsystem.obj
 0001:00034950       ?AcceptsFocus@wxStaticBoxBase@@UBE_NXZ 00435950 f i bgimsystem.obj
 0001:00034970       ??1wxStaticBoxBase@@UAE@XZ 00435970 f i bgimsystem.obj
 0001:00034990       ??1wxStaticBox@@UAE@XZ     00435990 f i bgimsystem.obj
 0001:000349b0       ??_EwxStaticBoxBase@@UAEPAXI@Z 004359b0 f i bgimsystem.obj
 0001:000349b0       ??_GwxStaticBoxBase@@UAEPAXI@Z 004359b0 f i bgimsystem.obj
 0001:000349f0       ??0wxRadioBox@@QAE@PAVwxWindow@@HABVwxString@@ABVwxPoint@@ABVwxSize@@HQBV2@HJABVwxValidator@@1@Z 004359f0 f i bgimsystem.obj
 0001:00034aa0       ?GetStringSelection@wxRadioBoxBase@@UBE?AVwxString@@XZ 00435aa0 f i bgimsystem.obj
 0001:00034b60       ?SetStringSelection@wxRadioBoxBase@@UAE_NABVwxString@@@Z 00435b60 f i bgimsystem.obj
 0001:00034bb0       ?FindString@wxRadioBoxBase@@UBEHABVwxString@@@Z 00435bb0 f i bgimsystem.obj
 0001:00034c70       ??8@YA_NABVwxString@@0@Z   00435c70 f i bgimsystem.obj
 0001:00034cc0       ?Cmp@wxString@@QBEHPBD@Z   00435cc0 f i bgimsystem.obj
 0001:00034cf0       ?GetClassInfo@wxRadioBox@@UBEPAVwxClassInfo@@XZ 00435cf0 f i bgimsystem.obj
 0001:00034d10       ??_GwxRadioBox@@UAEPAXI@Z  00435d10 f i bgimsystem.obj
 0001:00034d10       ??_EwxRadioBox@@UAEPAXI@Z  00435d10 f i bgimsystem.obj
 0001:00034d50       ??0wxRadioBoxBase@@QAE@XZ  00435d50 f i bgimsystem.obj
 0001:00034d70       ??0wxTextCtrl@@QAE@PAVwxWindow@@HABVwxString@@ABVwxPoint@@ABVwxSize@@JABVwxValidator@@1@Z 00435d70 f i bgimsystem.obj
 0001:00034e00       ?GetClassInfo@wxTextCtrl@@UBEPAVwxClassInfo@@XZ 00435e00 f i bgimsystem.obj
 0001:00034e20       ??_GwxTextCtrl@@UAEPAXI@Z  00435e20 f i bgimsystem.obj
 0001:00034e20       ??_EwxTextCtrl@@UAEPAXI@Z  00435e20 f i bgimsystem.obj
 0001:00034e60       ??0wxSlider95@@QAE@PAVwxWindow@@HHHHABVwxPoint@@ABVwxSize@@JABVwxValidator@@ABVwxString@@@Z 00435e60 f i bgimsystem.obj
 0001:00034ef0       ?GetMin@wxSlider95@@UBEHXZ 00435ef0 f i bgimsystem.obj
 0001:00034f10       ?GetMax@wxSlider95@@UBEHXZ 00435f10 f i bgimsystem.obj
 0001:00034f30       ?GetTickFreq@wxSlider95@@UBEHXZ 00435f30 f i bgimsystem.obj
 0001:00034f50       ?GetClassInfo@wxSlider95@@UBEPAVwxClassInfo@@XZ 00435f50 f i bgimsystem.obj
 0001:00034f70       ??_EwxSlider95@@UAEPAXI@Z  00435f70 f i bgimsystem.obj
 0001:00034f70       ??_GwxSlider95@@UAEPAXI@Z  00435f70 f i bgimsystem.obj
 0001:00034fb0       ??0wxSliderBase@@QAE@XZ    00435fb0 f i bgimsystem.obj
 0001:00034fe0       ?SetTickFreq@wxSliderBase@@UAEXHH@Z 00435fe0 f i bgimsystem.obj
 0001:00035000       ?GetTickFreq@wxSliderBase@@UBEHXZ 00436000 f i bgimsystem.obj
 0001:00035020       ?ClearTicks@wxSliderBase@@UAEXXZ 00436020 f i bgimsystem.obj
 0001:00035040       ?SetTick@wxSliderBase@@UAEXH@Z 00436040 f i bgimsystem.obj
 0001:00035060       ?ClearSel@wxSliderBase@@UAEXXZ 00436060 f i bgimsystem.obj
 0001:00035080       ?GetSelEnd@wxSliderBase@@UBEHXZ 00436080 f i bgimsystem.obj
 0001:000350b0       ?GetSelStart@wxSliderBase@@UBEHXZ 004360b0 f i bgimsystem.obj
 0001:000350e0       ?SetSelection@wxSliderBase@@UAEXHH@Z 004360e0 f i bgimsystem.obj
 0001:00035100       ??1wxSliderBase@@UAE@XZ    00436100 f i bgimsystem.obj
 0001:00035120       ??_EwxSliderBase@@UAEPAXI@Z 00436120 f i bgimsystem.obj
 0001:00035120       ??_GwxSliderBase@@UAEPAXI@Z 00436120 f i bgimsystem.obj
 0001:00035160       ?PrepareDC@wxGenericScrolledWindow@@UAEXAAVwxDC@@@Z 00436160 f i bgimsystem.obj
 0001:00035190       ??0wxScrolledWindow@@QAE@PAVwxWindow@@HABVwxPoint@@ABVwxSize@@JABVwxString@@@Z 00436190 f i bgimsystem.obj
 0001:000351e0       ?OnDraw@wxScrollHelper@@UAEXAAVwxDC@@@Z 004361e0 f i bgimsystem.obj
 0001:00035200       ??0wxGenericScrolledWindow@@QAE@PAVwxWindow@@HABVwxPoint@@ABVwxSize@@JABVwxString@@@Z 00436200 f i bgimsystem.obj
 0001:000352a0       ??0wxPanel@@QAE@XZ         004362a0 f i bgimsystem.obj
 0001:00035310       ?GetClassInfo@wxGenericScrolledWindow@@UBEPAVwxClassInfo@@XZ 00436310 f i bgimsystem.obj
 0001:00035330       ??_GwxGenericScrolledWindow@@UAEPAXI@Z 00436330 f i bgimsystem.obj
 0001:00035330       ??_EwxGenericScrolledWindow@@UAEPAXI@Z 00436330 f i bgimsystem.obj
 0001:00035370       ?GetClassInfo@wxScrolledWindow@@UBEPAVwxClassInfo@@XZ 00436370 f i bgimsystem.obj
 0001:00035390       ??_EwxScrolledWindow@@UAEPAXI@Z 00436390 f i bgimsystem.obj
 0001:00035390       ??_GwxScrolledWindow@@UAEPAXI@Z 00436390 f i bgimsystem.obj
 0001:000353d0       ??1wxScrolledWindow@@UAE@XZ 004363d0 f i bgimsystem.obj
 0001:000353f0       ?AddTool@wxToolBarBase@@QAEPAVwxToolBarToolBase@@HABVwxBitmap@@0_NHHPAVwxObject@@ABVwxString@@3@Z 004363f0 f i bgimsystem.obj
 0001:000354a0       ?GetClassInfo@wxComboBox@@UBEPAVwxClassInfo@@XZ 004364a0 f i bgimsystem.obj
 0001:000354c0       ??0wxComboBox@@QAE@PAVwxWindow@@HABVwxString@@ABVwxPoint@@ABVwxSize@@HQBV2@JABVwxValidator@@1@Z 004364c0 f i bgimsystem.obj
 0001:00035560       ??0wxChoice@@QAE@XZ        00436560 f i bgimsystem.obj
 0001:000355a0       ?SetSelection@wxComboBox@@UAEXH@Z 004365a0 f i bgimsystem.obj
 0001:000355d0       ??_GwxComboBox@@UAEPAXI@Z  004365d0 f i bgimsystem.obj
 0001:000355d0       ??_EwxComboBox@@UAEPAXI@Z  004365d0 f i bgimsystem.obj
 0001:00035610       ??1wxComboBox@@UAE@XZ      00436610 f i bgimsystem.obj
 0001:00035630       ??0wxMDIParentFrame@@QAE@PAVwxWindow@@HABVwxString@@ABVwxPoint@@ABVwxSize@@J1@Z 00436630 f i bgimsystem.obj
 0001:000356b0       ??0wxFrame@@QAE@XZ         004366b0 f i bgimsystem.obj
 0001:00035710       ?GetClassInfo@wxFrame@@UBEPAVwxClassInfo@@XZ 00436710 f i bgimsystem.obj
 0001:00035730       ??_GwxFrame@@UAEPAXI@Z     00436730 f i bgimsystem.obj
 0001:00035730       ??_EwxFrame@@UAEPAXI@Z     00436730 f i bgimsystem.obj
 0001:00035770       ?GetClientWindow@wxMDIParentFrame@@QBEPAVwxMDIClientWindow@@XZ 00436770 f i bgimsystem.obj
 0001:00035790       ?GetClassInfo@wxMDIParentFrame@@UBEPAVwxClassInfo@@XZ 00436790 f i bgimsystem.obj
 0001:000357b0       ??_GwxMDIParentFrame@@UAEPAXI@Z 004367b0 f i bgimsystem.obj
 0001:000357b0       ??_EwxMDIParentFrame@@UAEPAXI@Z 004367b0 f i bgimsystem.obj
 0001:000357f0       ??0wxMDIChildFrame@@QAE@PAVwxMDIParentFrame@@HABVwxString@@ABVwxPoint@@ABVwxSize@@J1@Z 004367f0 f i bgimsystem.obj
 0001:00035880       ?IsTopLevel@wxMDIChildFrame@@UBE_NXZ 00436880 f i bgimsystem.obj
 0001:000358a0       ?IsMDIChild@wxMDIChildFrame@@MBE_NXZ 004368a0 f i bgimsystem.obj
 0001:000358c0       ?GetClassInfo@wxMDIChildFrame@@UBEPAVwxClassInfo@@XZ 004368c0 f i bgimsystem.obj
 0001:000358e0       ??_EwxMDIChildFrame@@UAEPAXI@Z 004368e0 f i bgimsystem.obj
 0001:000358e0       ??_GwxMDIChildFrame@@UAEPAXI@Z 004368e0 f i bgimsystem.obj
 0001:00035920       ?GetPath@wxFileDialog@@QBE?AVwxString@@XZ 00436920 f i bgimsystem.obj
 0001:00035960       ?GetFilename@wxFileDialog@@QBE?AVwxString@@XZ 00436960 f i bgimsystem.obj
 0001:000359a0       ?GetFilterIndex@wxFileDialog@@QBEHXZ 004369a0 f i bgimsystem.obj
 0001:000359c0       ??0wxHtmlWindow@@QAE@PAVwxWindow@@HABVwxPoint@@ABVwxSize@@JABVwxString@@@Z 004369c0 f i bgimsystem.obj
 0001:00035aa0       ??0wxScrolledWindow@@QAE@XZ 00436aa0 f i bgimsystem.obj
 0001:00035ae0       ??0wxGenericScrolledWindow@@QAE@XZ 00436ae0 f i bgimsystem.obj
 0001:00035b60       ?GetClassInfo@wxHtmlWindow@@UBEPAVwxClassInfo@@XZ 00436b60 f i bgimsystem.obj
 0001:00035b80       ?AcceptsFocusFromKeyboard@wxHtmlWindow@@UBE_NXZ 00436b80 f i bgimsystem.obj
 0001:00035ba0       ?OnOpeningURL@wxHtmlWindow@@UBE?AW4wxHtmlOpeningStatus@@W4wxHtmlURLType@@ABVwxString@@PAV4@@Z 00436ba0 f i bgimsystem.obj
 0001:00035bc0       ?GetDefaultFilter@wxHtmlWindow@@MAEPAVwxHtmlFilter@@XZ 00436bc0 f i bgimsystem.obj
 0001:00035c30       ??_GwxHtmlWindow@@UAEPAXI@Z 00436c30 f i bgimsystem.obj
 0001:00035c30       ??_EwxHtmlWindow@@UAEPAXI@Z 00436c30 f i bgimsystem.obj
 0001:00035c70       ??0wxHtmlFilterPlainText@@QAE@XZ 00436c70 f i bgimsystem.obj
 0001:00035ca0       ??0wxHtmlFilter@@QAE@XZ    00436ca0 f i bgimsystem.obj
 0001:00035cd0       ?GetClassInfo@wxHtmlFilter@@UBEPAVwxClassInfo@@XZ 00436cd0 f i bgimsystem.obj
 0001:00035cf0       ??_GwxHtmlFilter@@UAEPAXI@Z 00436cf0 f i bgimsystem.obj
 0001:00035cf0       ??_EwxHtmlFilter@@UAEPAXI@Z 00436cf0 f i bgimsystem.obj
 0001:00035d30       ??1wxHtmlFilter@@UAE@XZ    00436d30 f i bgimsystem.obj
 0001:00035d60       ?GetClassInfo@wxHtmlFilterPlainText@@UBEPAVwxClassInfo@@XZ 00436d60 f i bgimsystem.obj
 0001:00035d80       ??_GwxHtmlFilterPlainText@@UAEPAXI@Z 00436d80 f i bgimsystem.obj
 0001:00035d80       ??_EwxHtmlFilterPlainText@@UAEPAXI@Z 00436d80 f i bgimsystem.obj
 0001:00035dc0       ??1wxHtmlFilterPlainText@@UAE@XZ 00436dc0 f i bgimsystem.obj
 0001:00035de0       ??4wxImage@@QAEAAV0@ABV0@@Z 00436de0 f i bgimsystem.obj
 0001:00035e20       ??9wxImage@@QBE_NABV0@@Z   00436e20 f i bgimsystem.obj
 0001:00035e50       ??1wxImage@@UAE@XZ         00436e50 f i bgimsystem.obj
 0001:00035e70       ??0wxPNGHandler@@QAE@XZ    00436e70 f i bgimsystem.obj
 0001:00035f00       ?GetClassInfo@wxPNGHandler@@UBEPAVwxClassInfo@@XZ 00436f00 f i bgimsystem.obj
 0001:00035f20       ??_EwxPNGHandler@@UAEPAXI@Z 00436f20 f i bgimsystem.obj
 0001:00035f20       ??_GwxPNGHandler@@UAEPAXI@Z 00436f20 f i bgimsystem.obj
 0001:00035f60       ??1wxPNGHandler@@UAE@XZ    00436f60 f i bgimsystem.obj
 0001:00035f80       ??0wxGIFHandler@@QAE@XZ    00436f80 f i bgimsystem.obj
 0001:00036010       ?GetClassInfo@wxGIFHandler@@UBEPAVwxClassInfo@@XZ 00437010 f i bgimsystem.obj
 0001:00036030       ??_EwxGIFHandler@@UAEPAXI@Z 00437030 f i bgimsystem.obj
 0001:00036030       ??_GwxGIFHandler@@UAEPAXI@Z 00437030 f i bgimsystem.obj
 0001:00036070       ??1wxGIFHandler@@UAE@XZ    00437070 f i bgimsystem.obj
 0001:00036090       ??0wxPCXHandler@@QAE@XZ    00437090 f i bgimsystem.obj
 0001:00036120       ?GetClassInfo@wxPCXHandler@@UBEPAVwxClassInfo@@XZ 00437120 f i bgimsystem.obj
 0001:00036140       ??_GwxPCXHandler@@UAEPAXI@Z 00437140 f i bgimsystem.obj
 0001:00036140       ??_EwxPCXHandler@@UAEPAXI@Z 00437140 f i bgimsystem.obj
 0001:00036180       ??1wxPCXHandler@@UAE@XZ    00437180 f i bgimsystem.obj
 0001:000361a0       ??0wxJPEGHandler@@QAE@XZ   004371a0 f i bgimsystem.obj
 0001:00036230       ?GetClassInfo@wxJPEGHandler@@UBEPAVwxClassInfo@@XZ 00437230 f i bgimsystem.obj
 0001:00036250       ??_GwxJPEGHandler@@UAEPAXI@Z 00437250 f i bgimsystem.obj
 0001:00036250       ??_EwxJPEGHandler@@UAEPAXI@Z 00437250 f i bgimsystem.obj
 0001:00036290       ??1wxJPEGHandler@@UAE@XZ   00437290 f i bgimsystem.obj
 0001:000362b0       ??0wxTIFFHandler@@QAE@XZ   004372b0 f i bgimsystem.obj
 0001:00036340       ?GetClassInfo@wxTIFFHandler@@UBEPAVwxClassInfo@@XZ 00437340 f i bgimsystem.obj
 0001:00036360       ??_GwxTIFFHandler@@UAEPAXI@Z 00437360 f i bgimsystem.obj
 0001:00036360       ??_EwxTIFFHandler@@UAEPAXI@Z 00437360 f i bgimsystem.obj
 0001:000363a0       ??1wxTIFFHandler@@UAE@XZ   004373a0 f i bgimsystem.obj
 0001:00036410       ??0wxSplitterWindow@@QAE@PAVwxWindow@@HABVwxPoint@@ABVwxSize@@JABVwxString@@@Z 00437410 f i bgimsystem.obj
 0001:000364d0       ?SplitVertically@wxSplitterWindow@@UAE_NPAVwxWindow@@0H@Z 004374d0 f i bgimsystem.obj
 0001:00036500       ?SplitHorizontally@wxSplitterWindow@@UAE_NPAVwxWindow@@0H@Z 00437500 f i bgimsystem.obj
 0001:00036530       ?GetClassInfo@wxSplitterWindow@@UBEPAVwxClassInfo@@XZ 00437530 f i bgimsystem.obj
 0001:00036550       ??_GwxSplitterWindow@@UAEPAXI@Z 00437550 f i bgimsystem.obj
 0001:00036550       ??_EwxSplitterWindow@@UAEPAXI@Z 00437550 f i bgimsystem.obj
 0001:00036590       ??_EwxComboBox@@WBDA@AEPAXI@Z 00437590 f i bgimsystem.obj
 0001:000365a0       ?Clear@wxChoice@@WBDA@AEXXZ 004375a0 f i bgimsystem.obj
 0001:000365b0       ??_EwxChoiceBase@@WBDA@AEPAXI@Z 004375b0 f i bgimsystem.obj
 0001:000365c0       ??_EwxScrolledWindow@@WBDI@AEPAXI@Z 004375c0 f i bgimsystem.obj
 0001:000365d0       ??_EwxControlWithItems@@WBDA@AEPAXI@Z 004375d0 f i bgimsystem.obj
 0001:000365e0       ??_EwxChoice@@WBDA@AEPAXI@Z 004375e0 f i bgimsystem.obj
 0001:000365f0       ??_EwxGenericScrolledWindow@@WBDI@AEPAXI@Z 004375f0 f i bgimsystem.obj
 0001:00036600       ??_EwxHtmlWindow@@WBDI@AEPAXI@Z 00437600 f i bgimsystem.obj
 0001:00036610       ??0MeanShift@@QAE@XZ       00437610 f   ms.obj
 0001:00036770       ??1MeanShift@@QAE@XZ       00437770 f   ms.obj
 0001:00036860       ?DefineKernel@MeanShift@@QAEXPAW4kernelType@@PAMPAHH@Z 00437860 f   ms.obj
 0001:00036ae0       ?AddWeightFunction@MeanShift@@QAEXP6ANN@ZMHH@Z 00437ae0 f   ms.obj
 0001:00036c10       ?ClearWeightFunctions@MeanShift@@QAEXXZ 00437c10 f   ms.obj
 0001:00036c80       ?DefineInput@MeanShift@@QAEXPAMHH@Z 00437c80 f   ms.obj
 0001:00036d90       ?DefineLInput@MeanShift@@QAEXPAMHHH@Z 00437d90 f   ms.obj
 0001:00036ed0       ?SetLatticeWeightMap@MeanShift@@QAEXPAM@Z 00437ed0 f   ms.obj
 0001:00036f40       ?RemoveLatticeWeightMap@MeanShift@@QAEXXZ 00437f40 f   ms.obj
 0001:00036f90       ?msVector@MeanShift@@QAEXPAN0@Z 00437f90 f   ms.obj
 0001:00036ff0       ?latticeMSVector@MeanShift@@QAEXPAN0@Z 00437ff0 f   ms.obj
 0001:00037050       ?FindMode@MeanShift@@QAEXPAN0@Z 00438050 f   ms.obj
 0001:00037260       ?FindLMode@MeanShift@@QAEXPAN0@Z 00438260 f   ms.obj
 0001:00037490       ?MSVector@MeanShift@@IAEXPAN0@Z 00438490 f   ms.obj
 0001:00037750       ?LatticeMSVector@MeanShift@@IAEXPAN0@Z 00438750 f   ms.obj
 0001:00037870       ?OptLatticeMSVector@MeanShift@@IAEXPAN0@Z 00438870 f   ms.obj
 0001:00037990       ?classConsistencyCheck@MeanShift@@IAEXH_N@Z 00438990 f   ms.obj
 0001:00037a90       ?ErrorHandler@MeanShift@@IAEXPAD00@Z 00438a90 f   ms.obj
 0001:00037b10       ?generateLookupTable@MeanShift@@AAEXXZ 00438b10 f   ms.obj
 0001:00037dc0       ?DestroyKernel@MeanShift@@AAEXXZ 00438dc0 f   ms.obj
 0001:00037f60       ?CreateBST@MeanShift@@AAEXXZ 00438f60 f   ms.obj
 0001:00038030       ?InitializeInput@MeanShift@@AAEXPAM@Z 00439030 f   ms.obj
 0001:000380d0       ?ResetInput@MeanShift@@AAEXXZ 004390d0 f   ms.obj
 0001:00038180       ?BuildKDTree@MeanShift@@AAEPAUtree@@PAU2@HH0@Z 00439180 f   ms.obj
 0001:00038280       ?QuickMedian@MeanShift@@AAEXPAUtree@@HHH@Z 00439280 f   ms.obj
 0001:00038600       ?uniformSearch@MeanShift@@AAEXPAUtree@@HPAN1@Z 00439600 f   ms.obj
 0001:000388e0       ?generalSearch@MeanShift@@AAEXPAUtree@@HPAN1@Z 004398e0 f   ms.obj
 0001:00038d70       ?uniformLSearch@MeanShift@@AAEXPAN0@Z 00439d70 f   ms.obj
 0001:00039100       ?optUniformLSearch@MeanShift@@AAEXPAN0@Z 0043a100 f   ms.obj
 0001:000394e0       ?generalLSearch@MeanShift@@AAEXPAN0@Z 0043a4e0 f   ms.obj
 0001:000399d0       ?optGeneralLSearch@MeanShift@@AAEXPAN0@Z 0043a9d0 f   ms.obj
 0001:00039f10       ??0msImageProcessor@@QAE@XZ 0043af10 f   msImageProcessor.obj
 0001:0003a010       ??1msImageProcessor@@QAE@XZ 0043b010 f   msImageProcessor.obj
 0001:0003a0c0       ??_GRegionList@@QAEPAXI@Z  0043b0c0 f i msImageProcessor.obj
 0001:0003a100       ?DefineImage@msImageProcessor@@QAEXPAEW4imageType@@HH@Z 0043b100 f   msImageProcessor.obj
 0001:0003a2a0       ?DefineBgImage@msImageProcessor@@QAEXPAEW4imageType@@HH@Z 0043b2a0 f   msImageProcessor.obj
 0001:0003a3f0       ?SetWeightMap@msImageProcessor@@QAEXPAMM@Z 0043b3f0 f   msImageProcessor.obj
 0001:0003a450       ?RemoveWeightMap@msImageProcessor@@QAEXXZ 0043b450 f   msImageProcessor.obj
 0001:0003a480       ?Filter@msImageProcessor@@QAEXHMW4SpeedUpLevel@@@Z 0043b480 f   msImageProcessor.obj
 0001:0003a700       ?FuseRegions@msImageProcessor@@QAEXMH@Z 0043b700 f   msImageProcessor.obj
 0001:0003ab00       ?Segment@msImageProcessor@@QAEXHMHW4SpeedUpLevel@@@Z 0043bb00 f   msImageProcessor.obj
 0001:0003ae00       ?RGBtoLUV@msImageProcessor@@QAEXPAEPAM@Z 0043be00 f   msImageProcessor.obj
 0001:0003afe0       ?LUVtoRGB@msImageProcessor@@QAEXPAMPAE@Z 0043bfe0 f   msImageProcessor.obj
 0001:0003b200       ?my_round@@YAHN@Z          0043c200 f i msImageProcessor.obj
 0001:0003b240       ?GetRawData@msImageProcessor@@QAEXPAM@Z 0043c240 f   msImageProcessor.obj
 0001:0003b2c0       ?GetResults@msImageProcessor@@QAEXPAE@Z 0043c2c0 f   msImageProcessor.obj
 0001:0003b3e0       ?GetBoundaries@msImageProcessor@@QAEPAVRegionList@@XZ 0043c3e0 f   msImageProcessor.obj
 0001:0003b410       ?GetRegions@msImageProcessor@@QAEHPAPAHPAPAM0@Z 0043c410 f   msImageProcessor.obj
 0001:0003b5e0       ?NonOptimizedFilter@msImageProcessor@@AAEXMM@Z 0043c5e0 f   msImageProcessor.obj
 0001:0003b950       ?OptimizedFilter1@msImageProcessor@@AAEXMM@Z 0043c950 f   msImageProcessor.obj
 0001:0003bfe0       ?OptimizedFilter2@msImageProcessor@@AAEXMM@Z 0043cfe0 f   msImageProcessor.obj
 0001:0003c6c0       ?Connect@msImageProcessor@@AAEXXZ 0043d6c0 f   msImageProcessor.obj
 0001:0003c880       ?Fill@msImageProcessor@@AAEXHH@Z 0043d880 f   msImageProcessor.obj
 0001:0003ca70       ?BuildRAM@msImageProcessor@@AAEXXZ 0043da70 f   msImageProcessor.obj
 0001:0003d100       ??_ERAList@@QAEPAXI@Z      0043e100 f i msImageProcessor.obj
 0001:0003d180       ?DestroyRAM@msImageProcessor@@AAEXXZ 0043e180 f   msImageProcessor.obj
 0001:0003d230       ?TransitiveClosure@msImageProcessor@@AAEXXZ 0043e230 f   msImageProcessor.obj
 0001:0003d7b0       ?ComputeEdgeStrengths@msImageProcessor@@AAEXXZ 0043e7b0 f   msImageProcessor.obj
 0001:0003db90       ?Prune@msImageProcessor@@AAEXH@Z 0043eb90 f   msImageProcessor.obj
 0001:0003e100       ?DefineBoundaries@msImageProcessor@@AAEXXZ 0043f100 f   msImageProcessor.obj
 0001:0003e6a0       ?InWindow@msImageProcessor@@AAE_NHH@Z 0043f6a0 f   msImageProcessor.obj
 0001:0003e820       ?SqDistance@msImageProcessor@@AAEMHH@Z 0043f820 f   msImageProcessor.obj
 0001:0003e920       ?InitializeOutput@msImageProcessor@@AAEXXZ 0043f920 f   msImageProcessor.obj
 0001:0003eaa0       ?DestroyOutput@msImageProcessor@@AAEXXZ 0043faa0 f   msImageProcessor.obj
 0001:0003ebe0       ?NewOptimizedFilter1@msImageProcessor@@AAEXMM@Z 0043fbe0 f   msImageProcessor.obj
 0001:0003fde0       ?NewOptimizedFilter2@msImageProcessor@@AAEXMM@Z 00440de0 f   msImageProcessor.obj
 0001:00041090       ?NewNonOptimizedFilter@msImageProcessor@@AAEXMM@Z 00442090 f   msImageProcessor.obj
 0001:00042020       ?SetSpeedThreshold@msImageProcessor@@QAEXM@Z 00443020 f   msImageProcessor.obj
 0001:00042050       ??0msSystem@@QAE@XZ        00443050 f   msSys.obj
 0001:00042070       ??1msSystem@@QAE@XZ        00443070 f   msSys.obj
 0001:00042090       ?StartTimer@msSystem@@QAEXXZ 00443090 f   msSys.obj
 0001:000420b0       ?ElapsedTime@msSystem@@QAENXZ 004430b0 f   msSys.obj
 0001:000420e0       ?Prompt@msSystem@@QAAXPBDZZ 004430e0 f   msSys.obj
 0001:00042110       ?Progress@msSystem@@QAE?AW4ErrorLevel@@M@Z 00443110 f   msSys.obj
 0001:00042160       ??0RAList@@QAE@XZ          00443160 f   RAList.obj
 0001:000421a0       ??1RAList@@QAE@XZ          004431a0 f   RAList.obj
 0001:000421c0       ?Insert@RAList@@QAEHPAV1@@Z 004431c0 f   RAList.obj
 0001:000422b0       ??0RegionList@@QAE@HHH@Z   004432b0 f   rlist.obj
 0001:000423c0       ??1RegionList@@QAE@XZ      004433c0 f   rlist.obj
 0001:00042400       ?AddRegion@RegionList@@QAEXHHPAH@Z 00443400 f   rlist.obj
 0001:00042530       ?Reset@RegionList@@QAEXXZ  00443530 f   rlist.obj
 0001:00042570       ?GetNumRegions@RegionList@@QAEHXZ 00443570 f   rlist.obj
 0001:00042590       ?GetLabel@RegionList@@QAEHH@Z 00443590 f   rlist.obj
 0001:000425c0       ?GetRegionCount@RegionList@@QAEHH@Z 004435c0 f   rlist.obj
 0001:000425f0       ?GetRegionIndeces@RegionList@@QAEPAHH@Z 004435f0 f   rlist.obj
 0001:00042620       ?ErrorHandler@RegionList@@AAEXPAD0W4ErrorType@@@Z 00443620 f   rlist.obj
 0001:000426e9       ?IsKindOf@wxObject@@QBE_NPAVwxClassInfo@@@Z 004436e9 f   wxmswd:object.obj
 0001:00042723       ??1wxClassInfo@@QAE@XZ     00443723 f   wxmswd:object.obj
 0001:0004277b       ?FindClass@wxClassInfo@@SAPAV1@PBD@Z 0044377b f   wxmswd:object.obj
 0001:000427d9       ?InitializeClasses@wxClassInfo@@SAXXZ 004437d9 f   wxmswd:object.obj
 0001:000428d4       ?CleanUpClasses@wxClassInfo@@SAXXZ 004438d4 f   wxmswd:object.obj
 0001:00042915       ?wxCreateDynamicObject@@YAPAVwxObject@@PBD@Z 00443915 f   wxmswd:object.obj
 0001:0004299f       ?InitFrom@wxObject@@AAEXABV1@@Z 0044399f f   wxmswd:object.obj
 0001:000429d6       ?Ref@wxObject@@QAEXABV1@@Z 004439d6 f   wxmswd:object.obj
 0001:00042a25       ?UnRef@wxObject@@QAEXXZ    00443a25 f   wxmswd:object.obj
 0001:00042ac3       ?AllocExclusive@wxObject@@IAEXXZ 00443ac3 f   wxmswd:object.obj
 0001:00042b6b       ?CreateRefData@wxObject@@MBEPAVwxObjectRefData@@XZ 00443b6b f   wxmswd:object.obj
 0001:00042b96       ?CloneRefData@wxObject@@MBEPAVwxObjectRefData@@PBV2@@Z 00443b96 f   wxmswd:object.obj
 0001:00042bd0       ?GetBaseByName@wxClassInfo@@CAPAV1@PBD@Z 00443bd0 f i wxmswd:object.obj
 0001:00042c40       ?CreateObject@wxClassInfo@@QAEPAVwxObject@@XZ 00443c40 f i wxmswd:object.obj
 0001:00042c70       ?GetClassName@wxClassInfo@@QBEPBDXZ 00443c70 f i wxmswd:object.obj
 0001:00042c80       ?GetBaseClassName1@wxClassInfo@@QBEPBDXZ 00443c80 f i wxmswd:object.obj
 0001:00042ca0       ?GetBaseClassName2@wxClassInfo@@QBEPBDXZ 00443ca0 f i wxmswd:object.obj
 0001:00042cc0       ?IsKindOf@wxClassInfo@@QBE_NPBV1@@Z 00443cc0 f i wxmswd:object.obj
 0001:00042d40       ?GetRefCount@wxObjectRefData@@QBEHXZ 00443d40 f i wxmswd:object.obj
 0001:00042d60       ??_I@YGXPAXIHP6EX0@Z@Z     00443d60 f i wxmswd:object.obj
 0001:00042da0       ??0wxTextInputStream@@QAE@AAVwxInputStream@@ABVwxString@@@Z 00443da0 f   wxmswd:txtstrm.obj
 0001:00042dc7       ??1wxTextInputStream@@QAE@XZ 00443dc7 f   wxmswd:txtstrm.obj
 0001:00042ddd       ?NextNonSeparators@wxTextInputStream@@IAEDXZ 00443ddd f   wxmswd:txtstrm.obj
 0001:00042e69       ?EatEOL@wxTextInputStream@@IAE_NABD@Z 00443e69 f   wxmswd:txtstrm.obj
 0001:00042ed3       ?SkipIfEndOfLine@wxTextInputStream@@IAEXD@Z 00443ed3 f   wxmswd:txtstrm.obj
 0001:00042f05       ?Read32@wxTextInputStream@@QAEIXZ 00443f05 f   wxmswd:txtstrm.obj
 0001:00043011       ?Read16@wxTextInputStream@@QAEGXZ 00444011 f   wxmswd:txtstrm.obj
 0001:00043024       ?Read8@wxTextInputStream@@QAEEXZ 00444024 f   wxmswd:txtstrm.obj
 0001:00043037       ?ReadDouble@wxTextInputStream@@QAENXZ 00444037 f   wxmswd:txtstrm.obj
 0001:0004327b       ?ReadString@wxTextInputStream@@QAE?AVwxString@@XZ 0044427b f   wxmswd:txtstrm.obj
 0001:00043297       ?ReadLine@wxTextInputStream@@QAE?AVwxString@@XZ 00444297 f   wxmswd:txtstrm.obj
 0001:00043324       ?ReadWord@wxTextInputStream@@QAE?AVwxString@@XZ 00444324 f   wxmswd:txtstrm.obj
 0001:00043459       ??5wxTextInputStream@@QAEAAV0@AAVwxString@@@Z 00444459 f   wxmswd:txtstrm.obj
 0001:00043488       ??5wxTextInputStream@@QAEAAV0@AAD@Z 00444488 f   wxmswd:txtstrm.obj
 0001:000434e0       ??5wxTextInputStream@@QAEAAV0@AAF@Z 004444e0 f   wxmswd:txtstrm.obj
 0001:000434fe       ??5wxTextInputStream@@QAEAAV0@AAH@Z 004444fe f   wxmswd:txtstrm.obj
 0001:0004351b       ??5wxTextInputStream@@QAEAAV0@AAG@Z 0044451b f   wxmswd:txtstrm.obj
 0001:00043539       ??5wxTextInputStream@@QAEAAV0@AAI@Z 00444539 f   wxmswd:txtstrm.obj
 0001:00043556       ??5wxTextInputStream@@QAEAAV0@AAN@Z 00444556 f   wxmswd:txtstrm.obj
 0001:00043573       ??5wxTextInputStream@@QAEAAV0@AAM@Z 00444573 f   wxmswd:txtstrm.obj
 0001:00043590       ??0wxTextOutputStream@@QAE@AAVwxOutputStream@@W4wxEOL@@@Z 00444590 f   wxmswd:txtstrm.obj
 0001:000435ce       ??1wxTextOutputStream@@UAE@XZ 004445ce f   wxmswd:txtstrm.obj
 0001:000435e2       ?SetMode@wxTextOutputStream@@QAEXW4wxEOL@@@Z 004445e2 f   wxmswd:txtstrm.obj
 0001:0004360b       ?Write32@wxTextOutputStream@@QAEXI@Z 0044460b f   wxmswd:txtstrm.obj
 0001:0004364e       ?Write16@wxTextOutputStream@@QAEXG@Z 0044464e f   wxmswd:txtstrm.obj
 0001:00043696       ?Write8@wxTextOutputStream@@QAEXE@Z 00444696 f   wxmswd:txtstrm.obj
 0001:000436de       ?WriteDouble@wxTextOutputStream@@UAEXN@Z 004446de f   wxmswd:txtstrm.obj
 0001:00043725       ?WriteString@wxTextOutputStream@@UAEXABVwxString@@@Z 00444725 f   wxmswd:txtstrm.obj
 0001:00043828       ??6wxTextOutputStream@@QAEAAV0@PBD@Z 00444828 f   wxmswd:txtstrm.obj
 0001:0004385c       ??6wxTextOutputStream@@QAEAAV0@ABVwxString@@@Z 0044485c f   wxmswd:txtstrm.obj
 0001:0004387b       ??6wxTextOutputStream@@QAEAAV0@D@Z 0044487b f   wxmswd:txtstrm.obj
 0001:000438b1       ??6wxTextOutputStream@@QAEAAV0@F@Z 004448b1 f   wxmswd:txtstrm.obj
 0001:000438fe       ??6wxTextOutputStream@@QAEAAV0@H@Z 004448fe f   wxmswd:txtstrm.obj
 0001:0004394a       ??6wxTextOutputStream@@QAEAAV0@G@Z 0044494a f   wxmswd:txtstrm.obj
 0001:0004399b       ??6wxTextOutputStream@@QAEAAV0@I@Z 0044499b f   wxmswd:txtstrm.obj
 0001:000439e7       ??6wxTextOutputStream@@QAEAAV0@N@Z 004449e7 f   wxmswd:txtstrm.obj
 0001:00043a0a       ??6wxTextOutputStream@@QAEAAV0@M@Z 00444a0a f   wxmswd:txtstrm.obj
 0001:00043a2e       ?endl@@YAAAVwxTextOutputStream@@AAV1@@Z 00444a2e f   wxmswd:txtstrm.obj
 0001:00043a40       ??_GwxTextOutputStream@@UAEPAXI@Z 00444a40 f i wxmswd:txtstrm.obj
 0001:00043a40       ??_EwxTextOutputStream@@UAEPAXI@Z 00444a40 f i wxmswd:txtstrm.obj
 0001:00043a70       ??AwxString@@QBEDI@Z       00444a70 f i wxmswd:txtstrm.obj
 0001:00043ac0       ?FromAscii@wxString@@SA?AV1@D@Z 00444ac0 f i wxmswd:txtstrm.obj
 0001:00043ae0       ??6wxString@@QAEAAV0@D@Z   00444ae0 f i wxmswd:txtstrm.obj
 0001:00043b00       ??YwxString@@QAEXD@Z       00444b00 f i wxmswd:txtstrm.obj
 0001:00043b20       ?Contains@wxString@@QBE_NABV1@@Z 00444b20 f i wxmswd:txtstrm.obj
 0001:00043b50       ?length@wxString@@QBEIXZ   00444b50 f i wxmswd:txtstrm.obj
 0001:00043b70       ?reserve@wxString@@QAEXI@Z 00444b70 f i wxmswd:txtstrm.obj
 0001:00043b90       ??0wxImageRefData@@QAE@XZ  00444b90 f   wxmswd:image.obj
 0001:00043c18       ??1wxImageRefData@@UAE@XZ  00444c18 f   wxmswd:image.obj
 0001:00043d17       ?wxConstructorForwxImage@@YAPAVwxObject@@XZ 00444d17 f   wxmswd:image.obj
 0001:00043dba       ??0wxImage@@QAE@XZ         00444dba f   wxmswd:image.obj
 0001:00043dd9       ??0wxImage@@QAE@HH@Z       00444dd9 f   wxmswd:image.obj
 0001:00043e0a       ??0wxImage@@QAE@HHPAE_N@Z  00444e0a f   wxmswd:image.obj
 0001:00043e43       ??0wxImage@@QAE@ABVwxString@@JH@Z 00444e43 f   wxmswd:image.obj
 0001:00043e78       ??0wxImage@@QAE@ABVwxString@@0H@Z 00444e78 f   wxmswd:image.obj
 0001:00043ead       ??0wxImage@@QAE@AAVwxInputStream@@JH@Z 00444ead f   wxmswd:image.obj
 0001:00043ee2       ??0wxImage@@QAE@AAVwxInputStream@@ABVwxString@@H@Z 00444ee2 f   wxmswd:image.obj
 0001:00043f17       ??0wxImage@@QAE@ABV0@@Z    00444f17 f   wxmswd:image.obj
 0001:00043f44       ??0wxImage@@QAE@PBV0@@Z    00444f44 f   wxmswd:image.obj
 0001:00043f77       ?Create@wxImage@@QAEXHH@Z  00444f77 f   wxmswd:image.obj
 0001:00044046       ?Create@wxImage@@QAEXHHPAE_N@Z 00445046 f   wxmswd:image.obj
 0001:000440dd       ?Destroy@wxImage@@QAEXXZ   004450dd f   wxmswd:image.obj
 0001:000440f0       ?Copy@wxImage@@QBE?AV1@XZ  004450f0 f   wxmswd:image.obj
 0001:0004424a       ?Scale@wxImage@@QBE?AV1@HH@Z 0044524a f   wxmswd:image.obj
 0001:000445b9       ?Rotate90@wxImage@@QBE?AV1@_N@Z 004455b9 f   wxmswd:image.obj
 0001:000447b2       ?Mirror@wxImage@@QBE?AV1@_N@Z 004457b2 f   wxmswd:image.obj
 0001:000449e1       ?GetSubImage@wxImage@@QBE?AV1@ABVwxRect@@@Z 004459e1 f   wxmswd:image.obj
 0001:00044c2e       ?Paste@wxImage@@QAEXABV1@HH@Z 00445c2e f   wxmswd:image.obj
 0001:0004506c       ?Replace@wxImage@@QAEXEEEEEE@Z 0044606c f   wxmswd:image.obj
 0001:0004517c       ?ConvertToMono@wxImage@@QBE?AV1@EEE@Z 0044617c f   wxmswd:image.obj
 0001:000453b5       ?SetRGB@wxImage@@QAEXHHEEE@Z 004463b5 f   wxmswd:image.obj
 0001:000454ac       ?GetRed@wxImage@@QBEEHH@Z  004464ac f   wxmswd:image.obj
 0001:0004557e       ?GetGreen@wxImage@@QBEEHH@Z 0044657e f   wxmswd:image.obj
 0001:00045651       ?GetBlue@wxImage@@QBEEHH@Z 00446651 f   wxmswd:image.obj
 0001:00045724       ?Ok@wxImage@@QBE_NXZ       00446724 f   wxmswd:image.obj
 0001:00045771       ?GetData@wxImage@@QBEPAEXZ 00446771 f   wxmswd:image.obj
 0001:000457c4       ?SetData@wxImage@@QAEXPAE@Z 004467c4 f   wxmswd:image.obj
 0001:000458bb       ?SetData@wxImage@@QAEXPAEHH@Z 004468bb f   wxmswd:image.obj
 0001:00045993       ?SetMaskColour@wxImage@@QAEXEEE@Z 00446993 f   wxmswd:image.obj
 0001:00045a0b       ?GetMaskRed@wxImage@@QBEEXZ 00446a0b f   wxmswd:image.obj
 0001:00045a5e       ?GetMaskGreen@wxImage@@QBEEXZ 00446a5e f   wxmswd:image.obj
 0001:00045ab1       ?GetMaskBlue@wxImage@@QBEEXZ 00446ab1 f   wxmswd:image.obj
 0001:00045b04       ?SetMask@wxImage@@QAEX_N@Z 00446b04 f   wxmswd:image.obj
 0001:00045b5a       ?HasMask@wxImage@@QBE_NXZ  00446b5a f   wxmswd:image.obj
 0001:00045bad       ?GetWidth@wxImage@@QBEHXZ  00446bad f   wxmswd:image.obj
 0001:00045c00       ?GetHeight@wxImage@@QBEHXZ 00446c00 f   wxmswd:image.obj
 0001:00045c53       ?FindFirstUnusedColour@wxImage@@QBE_NPAE00EEE@Z 00446c53 f   wxmswd:image.obj
 0001:00045dd7       ?SetMaskFromImage@wxImage@@QAE_NABV1@EEE@Z 00446dd7 f   wxmswd:image.obj
 0001:00045f60       ?HasPalette@wxImage@@QBE_NXZ 00446f60 f   wxmswd:image.obj
 0001:00045f95       ?GetPalette@wxImage@@QBEABVwxPalette@@XZ 00446f95 f   wxmswd:image.obj
 0001:00045feb       ?SetPalette@wxImage@@QAEXABVwxPalette@@@Z 00446feb f   wxmswd:image.obj
 0001:00046047       ?SetOption@wxImage@@QAEXABVwxString@@0@Z 00447047 f   wxmswd:image.obj
 0001:0004611e       ?SetOption@wxImage@@QAEXABVwxString@@H@Z 0044711e f   wxmswd:image.obj
 0001:00046162       ?GetOption@wxImage@@QBE?AVwxString@@ABV2@@Z 00447162 f   wxmswd:image.obj
 0001:00046219       ?GetOptionInt@wxImage@@QBEHABVwxString@@@Z 00447219 f   wxmswd:image.obj
 0001:00046296       ?HasOption@wxImage@@QBE_NABVwxString@@@Z 00447296 f   wxmswd:image.obj
 0001:00046307       ?LoadFile@wxImage@@UAE_NABVwxString@@JH@Z 00447307 f   wxmswd:image.obj
 0001:00046395       ?LoadFile@wxImage@@UAE_NABVwxString@@0H@Z 00447395 f   wxmswd:image.obj
 0001:00046423       ?SaveFile@wxImage@@UBE_NABVwxString@@@Z 00447423 f   wxmswd:image.obj
 0001:000464c1       ?SaveFile@wxImage@@UBE_NABVwxString@@H@Z 004474c1 f   wxmswd:image.obj
 0001:00046559       ?SaveFile@wxImage@@UBE_NABVwxString@@0@Z 00447559 f   wxmswd:image.obj
 0001:000465f1       ?CanRead@wxImage@@SA_NABVwxString@@@Z 004475f1 f   wxmswd:image.obj
 0001:00046621       ?GetImageCount@wxImage@@SAHABVwxString@@J@Z 00447621 f   wxmswd:image.obj
 0001:0004667a       ?CanRead@wxImage@@SA_NAAVwxInputStream@@@Z 0044767a f   wxmswd:image.obj
 0001:000466d2       ?GetImageCount@wxImage@@SAHAAVwxInputStream@@J@Z 004476d2 f   wxmswd:image.obj
 0001:000467cd       ?LoadFile@wxImage@@UAE_NAAVwxInputStream@@JH@Z 004477cd f   wxmswd:image.obj
 0001:000468e3       ?LoadFile@wxImage@@UAE_NAAVwxInputStream@@ABVwxString@@H@Z 004478e3 f   wxmswd:image.obj
 0001:0004697b       ?SaveFile@wxImage@@UBE_NAAVwxOutputStream@@H@Z 0044797b f   wxmswd:image.obj
 0001:00046a11       ?SaveFile@wxImage@@UBE_NAAVwxOutputStream@@ABVwxString@@@Z 00447a11 f   wxmswd:image.obj
 0001:00046aac       ?AddHandler@wxImage@@SAXPAVwxImageHandler@@@Z 00447aac f   wxmswd:image.obj
 0001:00046b3b       ?InsertHandler@wxImage@@SAXPAVwxImageHandler@@@Z 00447b3b f   wxmswd:image.obj
 0001:00046bca       ?RemoveHandler@wxImage@@SA_NABVwxString@@@Z 00447bca f   wxmswd:image.obj
 0001:00046bfb       ?FindHandler@wxImage@@SAPAVwxImageHandler@@ABVwxString@@@Z 00447bfb f   wxmswd:image.obj
 0001:00046c70       ?FindHandler@wxImage@@SAPAVwxImageHandler@@ABVwxString@@J@Z 00447c70 f   wxmswd:image.obj
 0001:00046d46       ?FindHandler@wxImage@@SAPAVwxImageHandler@@J@Z 00447d46 f   wxmswd:image.obj
 0001:00046d8f       ?FindHandlerMime@wxImage@@SAPAVwxImageHandler@@ABVwxString@@@Z 00447d8f f   wxmswd:image.obj
 0001:00046e01       ?InitStandardHandlers@wxImage@@SAXXZ 00447e01 f   wxmswd:image.obj
 0001:00046e71       ?CleanUpHandlers@wxImage@@SAXXZ 00447e71 f   wxmswd:image.obj
 0001:00046f6d       ?LoadFile@wxImageHandler@@UAE_NPAVwxImage@@AAVwxInputStream@@_NH@Z 00447f6d f   wxmswd:image.obj
 0001:00046f7c       ?SaveFile@wxImageHandler@@UAE_NPAVwxImage@@AAVwxOutputStream@@_N@Z 00447f7c f   wxmswd:image.obj
 0001:00046f8b       ?GetImageCount@wxImageHandler@@UAEHAAVwxInputStream@@@Z 00447f8b f   wxmswd:image.obj
 0001:00046f9d       ?CanRead@wxImageHandler@@QAE_NABVwxString@@@Z 00447f9d f   wxmswd:image.obj
 0001:0004700a       ?CallDoCanRead@wxImageHandler@@IAE_NAAVwxInputStream@@@Z 0044800a f   wxmswd:image.obj
 0001:0004706d       ?CountColours@wxImage@@QBEKK@Z 0044806d f   wxmswd:image.obj
 0001:0004718a       ?ComputeHistogram@wxImage@@QBEKAAVwxImageHistogram@@@Z 0044818a f   wxmswd:image.obj
 0001:00047286       ?Rotate@wxImage@@QBE?AV1@NABVwxPoint@@_NPAV2@@Z 00448286 f   wxmswd:image.obj
 0001:000486fa       ?wxConstructorForwxImageModule@@YAPAVwxObject@@XZ 004496fa f   wxmswd:image.obj
 0001:000487a0       ??0wxArrayString@@QAE@XZ   004497a0 f i wxmswd:image.obj
 0001:000487e0       ??_GwxImageRefData@@UAEPAXI@Z 004497e0 f i wxmswd:image.obj
 0001:000487e0       ??_EwxImageRefData@@UAEPAXI@Z 004497e0 f i wxmswd:image.obj
 0001:00048810       ?GetClassInfo@wxImage@@UBEPAVwxClassInfo@@XZ 00449810 f i wxmswd:image.obj
 0001:00048820       ??_GwxImage@@UAEPAXI@Z     00449820 f i wxmswd:image.obj
 0001:00048820       ??_EwxImage@@UAEPAXI@Z     00449820 f i wxmswd:image.obj
 0001:00048850       ??0wxObjectRefData@@QAE@XZ 00449850 f i wxmswd:image.obj
 0001:00048880       ??1wxObjectRefData@@UAE@XZ 00449880 f i wxmswd:image.obj
 0001:000488a0       ??_GwxObjectRefData@@UAEPAXI@Z 004498a0 f i wxmswd:image.obj
 0001:000488a0       ??_EwxObjectRefData@@UAEPAXI@Z 004498a0 f i wxmswd:image.obj
 0001:000488d0       ??0wxIntegerHash@@QAE@XZ   004498d0 f i wxmswd:image.obj
 0001:000488e0       ??0wxIntegerEqual@@QAE@XZ  004498e0 f i wxmswd:image.obj
 0001:000488f0       ??9Iterator@wxImageHistogram_wxImplementation_HashTable@@QBE_NABU01@@Z 004498f0 f i wxmswd:image.obj
 0001:00048910       ?end@wxImageHistogram_wxImplementation_HashTable@@QAE?AUiterator@1@XZ 00449910 f i wxmswd:image.obj
 0001:00048940       ??0iterator@wxImageHistogram_wxImplementation_HashTable@@QAE@PAUNode@1@PAV1@@Z 00449940 f i wxmswd:image.obj
 0001:00048960       ??0Iterator@wxImageHistogram_wxImplementation_HashTable@@QAE@PAUNode@1@PBV1@@Z 00449960 f i wxmswd:image.obj
 0001:00048990       ??0wxImageHistogram@@QAE@IVwxIntegerHash@@VwxIntegerEqual@@@Z 00449990 f i wxmswd:image.obj
 0001:000489c0       ??0wxImageHistogram_wxImplementation_KeyEx@@QAE@XZ 004499c0 f i wxmswd:image.obj
 0001:000489d0       ??0wxImageHistogram_wxImplementation_HashTable@@QAE@IABVwxIntegerHash@@ABVwxIntegerEqual@@ABVwxImageHistogram_wxImplementation_KeyEx@@@Z 004499d0 f i wxmswd:image.obj
 0001:00048a40       ?AllocTable@_wxHashTableBase2@@KAPAPAXI@Z 00449a40 f i wxmswd:image.obj
 0001:00048a60       ?find@wxImageHistogram@@QAE?AUiterator@wxImageHistogram_wxImplementation_HashTable@@ABK@Z 00449a60 f i wxmswd:image.obj
 0001:00048aa0       ?GetNode@wxImageHistogram_wxImplementation_HashTable@@IBEPAUNode@1@ABK@Z 00449aa0 f i wxmswd:image.obj
 0001:00048b30       ??RwxIntegerHash@@QBEKK@Z  00449b30 f i wxmswd:image.obj
 0001:00048b40       ??RwxIntegerEqual@@QBE_NKK@Z 00449b40 f i wxmswd:image.obj
 0001:00048b60       ??RwxImageHistogram_wxImplementation_KeyEx@@QBEABKABVwxImageHistogram_wxImplementation_Pair@@@Z 00449b60 f i wxmswd:image.obj
 0001:00048b70       ?m_next@Node@wxImageHistogram_wxImplementation_HashTable@@QAEPAU12@XZ 00449b70 f i wxmswd:image.obj
 0001:00048b80       ??1wxImageHistogram@@QAE@XZ 00449b80 f i wxmswd:image.obj
 0001:00048ba0       ??1wxImageHistogram_wxImplementation_HashTable@@QAE@XZ 00449ba0 f i wxmswd:image.obj
 0001:00048bd0       ?clear@wxImageHistogram_wxImplementation_HashTable@@QAEXXZ 00449bd0 f i wxmswd:image.obj
 0001:00048c00       ?DeleteNode@wxImageHistogram_wxImplementation_HashTable@@KAXPAU_wxHashTable_NodeBase@@@Z 00449c00 f i wxmswd:image.obj
 0001:00048c20       ??AwxArrayString@@QBEAAVwxString@@I@Z 00449c20 f i wxmswd:image.obj
 0001:00048c40       ?Item@wxArrayString@@QBEAAVwxString@@I@Z 00449c40 f i wxmswd:image.obj
 0001:00048c90       ?GetType@wxImageHandler@@QBEJXZ 00449c90 f i wxmswd:image.obj
 0001:00048cb0       ?Ok@wxFileInputStream@@QBE_NXZ 00449cb0 f i wxmswd:image.obj
 0001:00048cd0       ?IsOpened@wxFile@@QBE_NXZ  00449cd0 f i wxmswd:image.obj
 0001:00048cf0       ?CanRead@wxImageHandler@@QAE_NAAVwxInputStream@@@Z 00449cf0 f i wxmswd:image.obj
 0001:00048d10       ?GetHandlers@wxImage@@SAAAVwxList@@XZ 00449d10 f i wxmswd:image.obj
 0001:00048d20       ?GetNext@wxObjectListNode@@QBEPAV1@XZ 00449d20 f i wxmswd:image.obj
 0001:00048d40       ?GetNext@wxNodeBase@@IBEPAV1@XZ 00449d40 f i wxmswd:image.obj
 0001:00048d60       ?GetData@wxObjectListNode@@QBEPAVwxObject@@XZ 00449d60 f i wxmswd:image.obj
 0001:00048d80       ?GetFirst@wxObjectList@@QBEPAVwxObjectListNode@@XZ 00449d80 f i wxmswd:image.obj
 0001:00048da0       ?GetData@wxString@@QBEPBDXZ 00449da0 f i wxmswd:image.obj
 0001:00048db0       ?GetName@wxImageHandler@@QBE?AVwxString@@XZ 00449db0 f i wxmswd:image.obj
 0001:00048dd0       ?DeleteContents@wxListBase@@QAEX_N@Z 00449dd0 f i wxmswd:image.obj
 0001:00048df0       ?Insert@wxObjectList@@QAEPAVwxObjectListNode@@PAVwxObject@@@Z 00449df0 f i wxmswd:image.obj
 0001:00048e10       ?Insert@wxObjectList@@QAEPAVwxObjectListNode@@PAV2@PAVwxObject@@@Z 00449e10 f i wxmswd:image.obj
 0001:00048e30       ?Next@wxNodeBase@@QBEPAVwxObjectListNode@@XZ 00449e30 f i wxmswd:image.obj
 0001:00048e50       ?Data@wxNodeBase@@QBEPAVwxObject@@XZ 00449e50 f i wxmswd:image.obj
 0001:00048e70       ?First@wxListBase@@QBEPAVwxObjectListNode@@XZ 00449e70 f i wxmswd:image.obj
 0001:00048e90       ?GetExtension@wxImageHandler@@QBE?AVwxString@@XZ 00449e90 f i wxmswd:image.obj
 0001:00048eb0       ?GetMimeType@wxImageHandler@@QBE?AVwxString@@XZ 00449eb0 f i wxmswd:image.obj
 0001:00048ed0       ?IsSameAs@wxString@@QBE_NPBD_N@Z 00449ed0 f i wxmswd:image.obj
 0001:00048f20       ?CmpNoCase@wxString@@QBEHPBD@Z 00449f20 f i wxmswd:image.obj
 0001:00048f50       ??0wxBMPHandler@@QAE@XZ    00449f50 f i wxmswd:image.obj
 0001:00048fb0       ?GetClassInfo@wxBMPHandler@@UBEPAVwxClassInfo@@XZ 00449fb0 f i wxmswd:image.obj
 0001:00048fc0       ??_GwxBMPHandler@@UAEPAXI@Z 00449fc0 f i wxmswd:image.obj
 0001:00048fc0       ??_EwxBMPHandler@@UAEPAXI@Z 00449fc0 f i wxmswd:image.obj
 0001:00048ff0       ??1wxBMPHandler@@UAE@XZ    00449ff0 f i wxmswd:image.obj
 0001:00049010       ??0wxXPMHandler@@QAE@XZ    0044a010 f i wxmswd:image.obj
 0001:00049070       ?GetClassInfo@wxXPMHandler@@UBEPAVwxClassInfo@@XZ 0044a070 f i wxmswd:image.obj
 0001:00049080       ??_GwxXPMHandler@@UAEPAXI@Z 0044a080 f i wxmswd:image.obj
 0001:00049080       ??_EwxXPMHandler@@UAEPAXI@Z 0044a080 f i wxmswd:image.obj
 0001:000490b0       ??1wxXPMHandler@@UAE@XZ    0044a0b0 f i wxmswd:image.obj
 0001:000490d0       ??AwxImageHistogram@@QAEAAVwxImageHistogramEntry@@ABK@Z 0044a0d0 f i wxmswd:image.obj
 0001:00049100       ??0wxImageHistogram_wxImplementation_Pair@@QAE@ABK@Z 0044a100 f i wxmswd:image.obj
 0001:00049140       ??0wxImageHistogramEntry@@QAE@XZ 0044a140 f i wxmswd:image.obj
 0001:00049170       ?GetOrCreateNode@wxImageHistogram_wxImplementation_HashTable@@IAEPAUNode@1@ABVwxImageHistogram_wxImplementation_Pair@@@Z 0044a170 f i wxmswd:image.obj
 0001:000492a0       ?grow_lf70@@YA_NII@Z       0044a2a0 f i wxmswd:image.obj
 0001:000492f0       ??0Node@wxImageHistogram_wxImplementation_HashTable@@QAE@ABVwxImageHistogram_wxImplementation_Pair@@@Z 0044a2f0 f i wxmswd:image.obj
 0001:00049330       ??0_wxHashTable_NodeBase@@QAE@XZ 0044a330 f i wxmswd:image.obj
 0001:00049350       ?ResizeTable@wxImageHistogram_wxImplementation_HashTable@@IAEXI@Z 0044a350 f i wxmswd:image.obj
 0001:000493d0       ?GetBucketForNode@wxImageHistogram_wxImplementation_HashTable@@KAIPAV1@PAUNode@1@@Z 0044a3d0 f i wxmswd:image.obj
 0001:00049400       ?rotated_point@@YA?AVwxRealPoint@@NNNNABV1@@Z 0044a400 f i wxmswd:image.obj
 0001:00049460       ?rotated_point@@YA?AVwxRealPoint@@ABV1@NN0@Z 0044a460 f i wxmswd:image.obj
 0001:000494f0       ??0wxRealPoint@@QAE@NN@Z   0044a4f0 f i wxmswd:image.obj
 0001:00049520       ??0wxImageModule@@QAE@XZ   0044a520 f i wxmswd:image.obj
 0001:00049540       ?GetClassInfo@wxImageModule@@UBEPAVwxClassInfo@@XZ 0044a540 f i wxmswd:image.obj
 0001:00049550       ?OnInit@wxImageModule@@UAE_NXZ 0044a550 f i wxmswd:image.obj
 0001:00049570       ?OnExit@wxImageModule@@UAEXXZ 0044a570 f i wxmswd:image.obj
 0001:00049580       ??_EwxImageModule@@UAEPAXI@Z 0044a580 f i wxmswd:image.obj
 0001:00049580       ??_GwxImageModule@@UAEPAXI@Z 0044a580 f i wxmswd:image.obj
 0001:000495b0       ??1wxImageModule@@UAE@XZ   0044a5b0 f i wxmswd:image.obj
 0001:000495d0       ?GetWidth@wxRect@@QBEHXZ   0044a5d0 f i wxmswd:image.obj
 0001:000495f0       ?GetHeight@wxRect@@QBEHXZ  0044a5f0 f i wxmswd:image.obj
 0001:00049610       ?GetLeft@wxRect@@QBEHXZ    0044a610 f i wxmswd:image.obj
 0001:00049620       ?GetTop@wxRect@@QBEHXZ     0044a620 f i wxmswd:image.obj
 0001:00049640       ?GetBottom@wxRect@@QBEHXZ  0044a640 f i wxmswd:image.obj
 0001:00049660       ?GetRight@wxRect@@QBEHXZ   0044a660 f i wxmswd:image.obj
 0001:00049680       ??0wxModule@@QAE@XZ        0044a680 f i wxmswd:image.obj
 0001:000496a0       ??1wxModule@@UAE@XZ        0044a6a0 f i wxmswd:image.obj
 0001:000496c0       ?GetClassInfo@wxModule@@UBEPAVwxClassInfo@@XZ 0044a6c0 f i wxmswd:image.obj
 0001:000496d0       ??_GwxModule@@UAEPAXI@Z    0044a6d0 f i wxmswd:image.obj
 0001:000496d0       ??_EwxModule@@UAEPAXI@Z    0044a6d0 f i wxmswd:image.obj
 0001:00049700       ??4wxPalette@@QAEAAV0@ABV0@@Z 0044a700 f i wxmswd:image.obj
 0001:00049740       ??8wxPalette@@QBE_NABV0@@Z 0044a740 f i wxmswd:image.obj
 0001:00049760       ?SetError@wxStreamBuffer@@IAEXW4wxStreamError@@@Z 0044a760 f   wxmswd:stream.obj
 0001:0004978e       ?InitBuffer@wxStreamBuffer@@IAEXXZ 0044a78e f   wxmswd:stream.obj
 0001:000497c8       ?Init@wxStreamBuffer@@IAEXXZ 0044a7c8 f   wxmswd:stream.obj
 0001:000497e2       ??0wxStreamBuffer@@QAE@W4BufMode@0@@Z 0044a7e2 f   wxmswd:stream.obj
 0001:0004981d       ??0wxStreamBuffer@@QAE@AAVwxStreamBase@@W4BufMode@0@@Z 0044a81d f   wxmswd:stream.obj
 0001:00049857       ??0wxStreamBuffer@@QAE@ABV0@@Z 0044a857 f   wxmswd:stream.obj
 0001:000498fe       ?FreeBuffer@wxStreamBuffer@@IAEXXZ 0044a8fe f   wxmswd:stream.obj
 0001:00049925       ??1wxStreamBuffer@@UAE@XZ  0044a925 f   wxmswd:stream.obj
 0001:00049941       ?GetInputStream@wxStreamBuffer@@QBEPAVwxInputStream@@XZ 0044a941 f   wxmswd:stream.obj
 0001:0004996c       ?GetOutputStream@wxStreamBuffer@@QBEPAVwxOutputStream@@XZ 0044a96c f   wxmswd:stream.obj
 0001:00049997       ?SetBufferIO@wxStreamBuffer@@QAEXPAX0_N@Z 0044a997 f   wxmswd:stream.obj
 0001:000499bb       ?SetBufferIO@wxStreamBuffer@@QAEXPAXI_N@Z 0044a9bb f   wxmswd:stream.obj
 0001:00049a02       ?SetBufferIO@wxStreamBuffer@@QAEXI@Z 0044aa02 f   wxmswd:stream.obj
 0001:00049a43       ?ResetBuffer@wxStreamBuffer@@QAEXXZ 0044aa43 f   wxmswd:stream.obj
 0001:00049aa3       ?FillBuffer@wxStreamBuffer@@QAE_NXZ 0044aaa3 f   wxmswd:stream.obj
 0001:00049b08       ?FlushBuffer@wxStreamBuffer@@QAE_NXZ 0044ab08 f   wxmswd:stream.obj
 0001:00049be9       ?GetDataLeft@wxStreamBuffer@@QAEIXZ 0044abe9 f   wxmswd:stream.obj
 0001:00049c1e       ?GetFromBuffer@wxStreamBuffer@@IAEXPAXI@Z 0044ac1e f   wxmswd:stream.obj
 0001:00049c6c       ?PutToBuffer@wxStreamBuffer@@IAEXPBXI@Z 0044ac6c f   wxmswd:stream.obj
 0001:00049d57       ?PutChar@wxStreamBuffer@@UAEXD@Z 0044ad57 f   wxmswd:stream.obj
 0001:00049e0b       ?Peek@wxStreamBuffer@@UAEDXZ 0044ae0b f   wxmswd:stream.obj
 0001:00049e9b       ?GetChar@wxStreamBuffer@@UAEDXZ 0044ae9b f   wxmswd:stream.obj
 0001:00049f45       ?Read@wxStreamBuffer@@UAEIPAXI@Z 0044af45 f   wxmswd:stream.obj
 0001:0004a071       ?Read@wxStreamBuffer@@QAEIPAV1@@Z 0044b071 f   wxmswd:stream.obj
 0001:0004a138       ?Write@wxStreamBuffer@@UAEIPBXI@Z 0044b138 f   wxmswd:stream.obj
 0001:0004a296       ?Write@wxStreamBuffer@@QAEIPAV1@@Z 0044b296 f   wxmswd:stream.obj
 0001:0004a3f2       ?Seek@wxStreamBuffer@@UAEJJW4wxSeekMode@@@Z 0044b3f2 f   wxmswd:stream.obj
 0001:0004a585       ?Tell@wxStreamBuffer@@UBEJXZ 0044b585 f   wxmswd:stream.obj
 0001:0004a5fb       ??0wxStreamBase@@QAE@XZ    0044b5fb f   wxmswd:stream.obj
 0001:0004a626       ??1wxStreamBase@@UAE@XZ    0044b626 f   wxmswd:stream.obj
 0001:0004a63a       ?OnSysSeek@wxStreamBase@@MAEJJW4wxSeekMode@@@Z 0044b63a f   wxmswd:stream.obj
 0001:0004a64a       ?OnSysTell@wxStreamBase@@MBEJXZ 0044b64a f   wxmswd:stream.obj
 0001:0004a658       ??0wxInputStream@@QAE@XZ   0044b658 f   wxmswd:stream.obj
 0001:0004a695       ??1wxInputStream@@UAE@XZ   0044b695 f   wxmswd:stream.obj
 0001:0004a6c1       ?CanRead@wxInputStream@@UBE_NXZ 0044b6c1 f   wxmswd:stream.obj
 0001:0004a6da       ?Eof@wxInputStream@@UBE_NXZ 0044b6da f   wxmswd:stream.obj
 0001:0004a6f5       ?AllocSpaceWBack@wxInputStream@@IAEPADI@Z 0044b6f5 f   wxmswd:stream.obj
 0001:0004a78f       ?GetWBack@wxInputStream@@IAEIPAXI@Z 0044b78f f   wxmswd:stream.obj
 0001:0004a836       ?Ungetch@wxInputStream@@QAEIPBXI@Z 0044b836 f   wxmswd:stream.obj
 0001:0004a89e       ?Ungetch@wxInputStream@@QAE_ND@Z 0044b89e f   wxmswd:stream.obj
 0001:0004a8bf       ?GetC@wxInputStream@@QAEDXZ 0044b8bf f   wxmswd:stream.obj
 0001:0004a8e0       ?Read@wxInputStream@@UAEAAV1@PAXI@Z 0044b8e0 f   wxmswd:stream.obj
 0001:0004a97c       ?Peek@wxInputStream@@UAEDXZ 0044b97c f   wxmswd:stream.obj
 0001:0004a9b6       ?Read@wxInputStream@@QAEAAV1@AAVwxOutputStream@@@Z 0044b9b6 f   wxmswd:stream.obj
 0001:0004aa59       ?SeekI@wxInputStream@@UAEJJW4wxSeekMode@@@Z 0044ba59 f   wxmswd:stream.obj
 0001:0004aad0       ?TellI@wxInputStream@@UBEJXZ 0044bad0 f   wxmswd:stream.obj
 0001:0004ab08       ??0wxOutputStream@@QAE@XZ  0044bb08 f   wxmswd:stream.obj
 0001:0004ab27       ??1wxOutputStream@@UAE@XZ  0044bb27 f   wxmswd:stream.obj
 0001:0004ab43       ?OnSysWrite@wxOutputStream@@MAEIPBXI@Z 0044bb43 f   wxmswd:stream.obj
 0001:0004ab52       ?PutC@wxOutputStream@@QAEXD@Z 0044bb52 f   wxmswd:stream.obj
 0001:0004ab70       ?Write@wxOutputStream@@UAEAAV1@PBXI@Z 0044bb70 f   wxmswd:stream.obj
 0001:0004ab99       ?Write@wxOutputStream@@QAEAAV1@AAVwxInputStream@@@Z 0044bb99 f   wxmswd:stream.obj
 0001:0004abb5       ?TellO@wxOutputStream@@UBEJXZ 0044bbb5 f   wxmswd:stream.obj
 0001:0004abcb       ?SeekO@wxOutputStream@@UAEJJW4wxSeekMode@@@Z 0044bbcb f   wxmswd:stream.obj
 0001:0004abeb       ?Sync@wxOutputStream@@UAEXXZ 0044bbeb f   wxmswd:stream.obj
 0001:0004abf6       ??0wxCountingOutputStream@@QAE@XZ 0044bbf6 f   wxmswd:stream.obj
 0001:0004ac1f       ?GetSize@wxCountingOutputStream@@UBEIXZ 0044bc1f f   wxmswd:stream.obj
 0001:0004ac30       ?OnSysWrite@wxCountingOutputStream@@MAEIPBXI@Z 0044bc30 f   wxmswd:stream.obj
 0001:0004ac6c       ?OnSysSeek@wxCountingOutputStream@@MAEJJW4wxSeekMode@@@Z 0044bc6c f   wxmswd:stream.obj
 0001:0004ad11       ?OnSysTell@wxCountingOutputStream@@MBEJXZ 0044bd11 f   wxmswd:stream.obj
 0001:0004ad22       ??0wxFilterInputStream@@QAE@XZ 0044bd22 f   wxmswd:stream.obj
 0001:0004ad4b       ??0wxFilterInputStream@@QAE@AAVwxInputStream@@@Z 0044bd4b f   wxmswd:stream.obj
 0001:0004ad75       ??1wxFilterInputStream@@UAE@XZ 0044bd75 f   wxmswd:stream.obj
 0001:0004ad91       ??0wxFilterOutputStream@@QAE@XZ 0044bd91 f   wxmswd:stream.obj
 0001:0004adba       ??0wxFilterOutputStream@@QAE@AAVwxOutputStream@@@Z 0044bdba f   wxmswd:stream.obj
 0001:0004ade4       ??1wxFilterOutputStream@@UAE@XZ 0044bde4 f   wxmswd:stream.obj
 0001:0004ae00       ??0wxBufferedInputStream@@QAE@AAVwxInputStream@@PAVwxStreamBuffer@@@Z 0044be00 f   wxmswd:stream.obj
 0001:0004ae7e       ??1wxBufferedInputStream@@UAE@XZ 0044be7e f   wxmswd:stream.obj
 0001:0004aeea       ?Peek@wxBufferedInputStream@@UAEDXZ 0044beea f   wxmswd:stream.obj
 0001:0004af06       ?Read@wxBufferedInputStream@@UAEAAVwxInputStream@@PAXI@Z 0044bf06 f   wxmswd:stream.obj
 0001:0004af8a       ?SeekI@wxBufferedInputStream@@UAEJJW4wxSeekMode@@@Z 0044bf8a f   wxmswd:stream.obj
 0001:0004b005       ?TellI@wxBufferedInputStream@@UBEJXZ 0044c005 f   wxmswd:stream.obj
 0001:0004b043       ?OnSysRead@wxBufferedInputStream@@MAEIPAXI@Z 0044c043 f   wxmswd:stream.obj
 0001:0004b079       ?OnSysSeek@wxBufferedInputStream@@MAEJJW4wxSeekMode@@@Z 0044c079 f   wxmswd:stream.obj
 0001:0004b09f       ?OnSysTell@wxBufferedInputStream@@MBEJXZ 0044c09f f   wxmswd:stream.obj
 0001:0004b0bb       ?SetInputStreamBuffer@wxBufferedInputStream@@QAEXPAVwxStreamBuffer@@@Z 0044c0bb f   wxmswd:stream.obj
 0001:0004b132       ??0wxBufferedOutputStream@@QAE@AAVwxOutputStream@@PAVwxStreamBuffer@@@Z 0044c132 f   wxmswd:stream.obj
 0001:0004b1b0       ??1wxBufferedOutputStream@@UAE@XZ 0044c1b0 f   wxmswd:stream.obj
 0001:0004b203       ?Write@wxBufferedOutputStream@@UAEAAVwxOutputStream@@PBXI@Z 0044c203 f   wxmswd:stream.obj
 0001:0004b236       ?SeekO@wxBufferedOutputStream@@UAEJJW4wxSeekMode@@@Z 0044c236 f   wxmswd:stream.obj
 0001:0004b267       ?TellO@wxBufferedOutputStream@@UBEJXZ 0044c267 f   wxmswd:stream.obj
 0001:0004b283       ?Sync@wxBufferedOutputStream@@UAEXXZ 0044c283 f   wxmswd:stream.obj
 0001:0004b2aa       ?OnSysWrite@wxBufferedOutputStream@@MAEIPBXI@Z 0044c2aa f   wxmswd:stream.obj
 0001:0004b2e0       ?OnSysSeek@wxBufferedOutputStream@@MAEJJW4wxSeekMode@@@Z 0044c2e0 f   wxmswd:stream.obj
 0001:0004b306       ?OnSysTell@wxBufferedOutputStream@@MBEJXZ 0044c306 f   wxmswd:stream.obj
 0001:0004b322       ?GetSize@wxBufferedOutputStream@@UBEIXZ 0044c322 f   wxmswd:stream.obj
 0001:0004b34f       ?SetOutputStreamBuffer@wxBufferedOutputStream@@QAEXPAVwxStreamBuffer@@@Z 0044c34f f   wxmswd:stream.obj
 0001:0004b3c6       ?wxEndL@@YAAAVwxOutputStream@@AAV1@@Z 0044c3c6 f   wxmswd:stream.obj
 0001:0004b420       ??_EwxStreamBuffer@@UAEPAXI@Z 0044c420 f i wxmswd:stream.obj
 0001:0004b420       ??_GwxStreamBuffer@@UAEPAXI@Z 0044c420 f i wxmswd:stream.obj
 0001:0004b450       ??_EwxStreamBase@@UAEPAXI@Z 0044c450 f i wxmswd:stream.obj
 0001:0004b450       ??_GwxStreamBase@@UAEPAXI@Z 0044c450 f i wxmswd:stream.obj
 0001:0004b480       ??_GwxInputStream@@UAEPAXI@Z 0044c480 f i wxmswd:stream.obj
 0001:0004b480       ??_EwxInputStream@@UAEPAXI@Z 0044c480 f i wxmswd:stream.obj
 0001:0004b4b0       ??_GwxOutputStream@@UAEPAXI@Z 0044c4b0 f i wxmswd:stream.obj
 0001:0004b4b0       ??_EwxOutputStream@@UAEPAXI@Z 0044c4b0 f i wxmswd:stream.obj
 0001:0004b4e0       ??_EwxCountingOutputStream@@UAEPAXI@Z 0044c4e0 f i wxmswd:stream.obj
 0001:0004b4e0       ??_GwxCountingOutputStream@@UAEPAXI@Z 0044c4e0 f i wxmswd:stream.obj
 0001:0004b510       ??1wxCountingOutputStream@@UAE@XZ 0044c510 f i wxmswd:stream.obj
 0001:0004b530       ??_GwxFilterInputStream@@UAEPAXI@Z 0044c530 f i wxmswd:stream.obj
 0001:0004b530       ??_EwxFilterInputStream@@UAEPAXI@Z 0044c530 f i wxmswd:stream.obj
 0001:0004b560       ??_EwxFilterOutputStream@@UAEPAXI@Z 0044c560 f i wxmswd:stream.obj
 0001:0004b560       ??_GwxFilterOutputStream@@UAEPAXI@Z 0044c560 f i wxmswd:stream.obj
 0001:0004b590       ??_GwxBufferedInputStream@@UAEPAXI@Z 0044c590 f i wxmswd:stream.obj
 0001:0004b590       ??_EwxBufferedInputStream@@UAEPAXI@Z 0044c590 f i wxmswd:stream.obj
 0001:0004b5c0       ??_EwxBufferedOutputStream@@UAEPAXI@Z 0044c5c0 f i wxmswd:stream.obj
 0001:0004b5c0       ??_GwxBufferedOutputStream@@UAEPAXI@Z 0044c5c0 f i wxmswd:stream.obj
 0001:0004b5f0       ?Reset@wxStreamBase@@QAEXXZ 0044c5f0 f i wxmswd:stream.obj
 0001:0004b610       ?GetSize@wxStreamBase@@UBEIXZ 0044c610 f i wxmswd:stream.obj
 0001:0004b620       ?LastRead@wxInputStream@@UBEIXZ 0044c620 f i wxmswd:stream.obj
 0001:0004b640       ?LastWrite@wxOutputStream@@UBEIXZ 0044c640 f i wxmswd:stream.obj
 0001:0004b660       ?Peek@wxFilterInputStream@@UAEDXZ 0044c660 f i wxmswd:stream.obj
 0001:0004b680       ?GetSize@wxFilterInputStream@@UBEIXZ 0044c680 f i wxmswd:stream.obj
 0001:0004b6a0       ?GetSize@wxFilterOutputStream@@UBEIXZ 0044c6a0 f i wxmswd:stream.obj
 0001:0004b6c0       ?GetIntPosition@wxStreamBuffer@@QBEIXZ 0044c6c0 f i wxmswd:stream.obj
 0001:0004b6e0       ?SetIntPosition@wxStreamBuffer@@QAEXI@Z 0044c6e0 f i wxmswd:stream.obj
 0001:0004b700       ?GetLastAccess@wxStreamBuffer@@QBEIXZ 0044c700 f i wxmswd:stream.obj
 0001:0004b720       ?GetBytesLeft@wxStreamBuffer@@QBEIXZ 0044c720 f i wxmswd:stream.obj
 0001:0004b740       ?GetStream@wxStreamBuffer@@QBEPAVwxStreamBase@@XZ 0044c740 f i wxmswd:stream.obj
 0001:0004b760       ?HasBuffer@wxStreamBuffer@@QBE_NXZ 0044c760 f i wxmswd:stream.obj
 0001:0004b895       ?wxVLogGeneric@@YAXKPBDPAD@Z 0044c895 f   wxmswd:log.obj
 0001:0004b92f       ?wxLogGeneric@@YAXKPBDZZ   0044c92f f   wxmswd:log.obj
 0001:0004b958       ?wxVLogError@@YAXPBDPAD@Z  0044c958 f   wxmswd:log.obj
 0001:0004b9be       ?wxLogError@@YAXPBDZZ      0044c9be f   wxmswd:log.obj
 0001:0004b9e3       ?wxVLogWarning@@YAXPBDPAD@Z 0044c9e3 f   wxmswd:log.obj
 0001:0004ba49       ?wxLogWarning@@YAXPBDZZ    0044ca49 f   wxmswd:log.obj
 0001:0004ba6e       ?wxVLogMessage@@YAXPBDPAD@Z 0044ca6e f   wxmswd:log.obj
 0001:0004bad4       ?wxLogMessage@@YAXPBDZZ    0044cad4 f   wxmswd:log.obj
 0001:0004baf9       ?wxVLogInfo@@YAXPBDPAD@Z   0044caf9 f   wxmswd:log.obj
 0001:0004bb5f       ?wxLogInfo@@YAXPBDZZ       0044cb5f f   wxmswd:log.obj
 0001:0004bb84       ?wxVLogStatus@@YAXPBDPAD@Z 0044cb84 f   wxmswd:log.obj
 0001:0004bbea       ?wxLogStatus@@YAXPBDZZ     0044cbea f   wxmswd:log.obj
 0001:0004bc0f       ?wxSafeShowMessage@@YAXABVwxString@@0@Z 0044cc0f f   wxmswd:log.obj
 0001:0004bc30       ?wxVLogFatalError@@YAXPBDPAD@Z 0044cc30 f   wxmswd:log.obj
 0001:0004bc9e       ?wxLogFatalError@@YAXPBDZZ 0044cc9e f   wxmswd:log.obj
 0001:0004bcc3       ?wxVLogVerbose@@YAXPBDPAD@Z 0044ccc3 f   wxmswd:log.obj
 0001:0004bd47       ?wxLogVerbose@@YAXPBDZZ    0044cd47 f   wxmswd:log.obj
 0001:0004bd6c       ?wxVLogTrace@@YAXPBD0PAD@Z 0044cd6c f   wxmswd:log.obj
 0001:0004be86       ?wxLogTrace@@YAXPBD0ZZ     0044ce86 f   wxmswd:log.obj
 0001:0004beaf       ?wxVLogTrace@@YAXKPBDPAD@Z 0044ceaf f   wxmswd:log.obj
 0001:0004bf22       ?wxLogTrace@@YAXKPBDZZ     0044cf22 f   wxmswd:log.obj
 0001:0004bf4b       ?wxVLogDebug@@YAXPBDPAD@Z  0044cf4b f   wxmswd:log.obj
 0001:0004bfb1       ?wxLogDebug@@YAXPBDZZ      0044cfb1 f   wxmswd:log.obj
 0001:0004bfd6       ?wxVLogTrace@@YAXPBDPAD@Z  0044cfd6 f   wxmswd:log.obj
 0001:0004c03c       ?wxLogTrace@@YAXPBDZZ      0044d03c f   wxmswd:log.obj
 0001:0004c061       ?wxLogSysErrorHelper@@YAXJ@Z 0044d061 f   wxmswd:log.obj
 0001:0004c0ec       ?wxVLogSysError@@YAXPBDPAD@Z 0044d0ec f   wxmswd:log.obj
 0001:0004c143       ?wxLogSysError@@YAXPBDZZ   0044d143 f   wxmswd:log.obj
 0001:0004c168       ?wxVLogSysError@@YAXJPBDPAD@Z 0044d168 f   wxmswd:log.obj
 0001:0004c1bd       ?wxLogSysError@@YAXJPBDZZ  0044d1bd f   wxmswd:log.obj
 0001:0004c1e6       ??0wxLog@@QAE@XZ           0044d1e6 f   wxmswd:log.obj
 0001:0004c204       ?SetLogBuffer@wxLog@@SAPADPADI@Z 0044d204 f   wxmswd:log.obj
 0001:0004c251       ?GetActiveTarget@wxLog@@SAPAV1@XZ 0044d251 f   wxmswd:log.obj
 0001:0004c2e1       ?SetActiveTarget@wxLog@@SAPAV1@PAV1@@Z 0044d2e1 f   wxmswd:log.obj
 0001:0004c315       ?DontCreateOnDemand@wxLog@@SAXXZ 0044d315 f   wxmswd:log.obj
 0001:0004c326       ?RemoveTraceMask@wxLog@@SAXABVwxString@@@Z 0044d326 f   wxmswd:log.obj
 0001:0004c35e       ?ClearTraceMasks@wxLog@@SAXXZ 0044d35e f   wxmswd:log.obj
 0001:0004c36d       ?TimeStamp@wxLog@@SAXPAVwxString@@@Z 0044d36d f   wxmswd:log.obj
 0001:0004c3e3       ?DoLog@wxLog@@MAEXKPBDJ@Z  0044d3e3 f   wxmswd:log.obj
 0001:0004c5c3       ?DoLogString@wxLog@@MAEXPBDJ@Z 0044d5c3 f   wxmswd:log.obj
 0001:0004c5fa       ?Flush@wxLog@@UAEXXZ       0044d5fa f   wxmswd:log.obj
 0001:0004c60c       ??0wxLogStderr@@QAE@PAU_iobuf@@@Z 0044d60c f   wxmswd:log.obj
 0001:0004c64d       ?DoLogString@wxLogStderr@@MAEXPBDJ@Z 0044d64d f   wxmswd:log.obj
 0001:0004c6db       ??0wxLogChain@@QAE@PAVwxLog@@@Z 0044d6db f   wxmswd:log.obj
 0001:0004c71e       ??1wxLogChain@@UAE@XZ      0044d71e f   wxmswd:log.obj
 0001:0004c7a3       ?SetLog@wxLogChain@@QAEXPAVwxLog@@@Z 0044d7a3 f   wxmswd:log.obj
 0001:0004c7f4       ?Flush@wxLogChain@@UAEXXZ  0044d7f4 f   wxmswd:log.obj
 0001:0004c83c       ?DoLog@wxLogChain@@MAEXKPBDJ@Z 0044d83c f   wxmswd:log.obj
 0001:0004c8b1       ??0wxLogPassThrough@@QAE@XZ 0044d8b1 f   wxmswd:log.obj
 0001:0004c930       ?wxSysErrorCode@@YAKXZ     0044d930 f   wxmswd:log.obj
 0001:0004c93b       ?wxSysErrorMsg@@YAPBDK@Z   0044d93b f   wxmswd:log.obj
 0001:0004ca00       ?Empty@wxString@@QAEXXZ    0044da00 f i wxmswd:log.obj
 0001:0004ca50       ??_GwxLogStderr@@UAEPAXI@Z 0044da50 f i wxmswd:log.obj
 0001:0004ca50       ??_EwxLogStderr@@UAEPAXI@Z 0044da50 f i wxmswd:log.obj
 0001:0004ca80       ??1wxLogStderr@@UAE@XZ     0044da80 f i wxmswd:log.obj
 0001:0004caa0       ?mb_str@wxString@@QBEPBDXZ 0044daa0 f i wxmswd:log.obj
 0001:0004cab0       ??YwxString@@QAEXPBD@Z     0044dab0 f i wxmswd:log.obj
 0001:0004cad0       ??_GwxLogChain@@UAEPAXI@Z  0044dad0 f i wxmswd:log.obj
 0001:0004cad0       ??_EwxLogChain@@UAEPAXI@Z  0044dad0 f i wxmswd:log.obj
 0001:0004cb00       ??_GwxLogPassThrough@@UAEPAXI@Z 0044db00 f i wxmswd:log.obj
 0001:0004cb00       ??_EwxLogPassThrough@@UAEPAXI@Z 0044db00 f i wxmswd:log.obj
 0001:0004cb30       ??1wxLogPassThrough@@UAE@XZ 0044db30 f i wxmswd:log.obj
 0001:0004cb50       ?IsEnabled@wxLog@@SA_NXZ   0044db50 f i wxmswd:log.obj
 0001:0004cb60       ?OnLog@wxLog@@SAXKPBDJ@Z   0044db60 f i wxmswd:log.obj
 0001:0004cbb0       ?GetVerbose@wxLog@@SA_NXZ  0044dbb0 f i wxmswd:log.obj
 0001:0004cbc0       ?GetTraceMask@wxLog@@SAKXZ 0044dbc0 f i wxmswd:log.obj
 0001:0004cbd0       ?IsAllowedTraceMask@wxLog@@SA_NPBD@Z 0044dbd0 f i wxmswd:log.obj
 0001:0004cc00       ?IsPassingMessages@wxLogChain@@QBE_NXZ 0044dc00 f i wxmswd:log.obj
 0001:0004cc20       ??0wxCriticalSectionLocker@@QAE@AAVwxCriticalSection@@@Z 0044dc20 f i wxmswd:log.obj
 0001:0004cc50       ??1wxCriticalSectionLocker@@QAE@XZ 0044dc50 f i wxmswd:log.obj
 0001:0004cc70       ??0wxString@@QAE@DI@Z      0044dc70 f   wxmswd:string.obj
 0001:0004cce7       ?InitWith@wxString@@AAEXPBDII@Z 0044dce7 f   wxmswd:string.obj
 0001:0004cda4       ??0wxString@@QAE@PBX0@Z    0044dda4 f   wxmswd:string.obj
 0001:0004cdc9       ??0wxString@@QAE@PBGAAVwxMBConv@@I@Z 0044ddc9 f   wxmswd:string.obj
 0001:0004ce8c       ?AllocBuffer@wxString@@AAE_NI@Z 0044de8c f   wxmswd:string.obj
 0001:0004cf78       ?CopyBeforeWrite@wxString@@AAE_NXZ 0044df78 f   wxmswd:string.obj
 0001:0004d01b       ?AllocBeforeWrite@wxString@@AAE_NI@Z 0044e01b f   wxmswd:string.obj
 0001:0004d13b       ?Alloc@wxString@@QAE_NI@Z  0044e13b f   wxmswd:string.obj
 0001:0004d292       ?Shrink@wxString@@QAE_NXZ  0044e292 f   wxmswd:string.obj
 0001:0004d325       ?GetWriteBuf@wxString@@QAEPADI@Z 0044e325 f   wxmswd:string.obj
 0001:0004d38b       ?UngetWriteBuf@wxString@@QAEXXZ 0044e38b f   wxmswd:string.obj
 0001:0004d3c4       ?UngetWriteBuf@wxString@@QAEXI@Z 0044e3c4 f   wxmswd:string.obj
 0001:0004d3f0       ?AssignCopy@wxString@@AAE_NIPBD@Z 0044e3f0 f   wxmswd:string.obj
 0001:0004d458       ??4wxString@@QAEAAV0@ABV0@@Z 0044e458 f   wxmswd:string.obj
 0001:0004d4f2       ??4wxString@@QAEAAV0@D@Z   0044e4f2 f   wxmswd:string.obj
 0001:0004d544       ??4wxString@@QAEAAV0@PBD@Z 0044e544 f   wxmswd:string.obj
 0001:0004d5a1       ??4wxString@@QAEAAV0@PBE@Z 0044e5a1 f   wxmswd:string.obj
 0001:0004d5bd       ??4wxString@@QAEAAV0@PBG@Z 0044e5bd f   wxmswd:string.obj
 0001:0004d5fc       ?ConcatSelf@wxString@@AAE_NHPBD@Z 0044e5fc f   wxmswd:string.obj
 0001:0004d713       ??H@YA?AVwxString@@ABV0@0@Z 0044e713 f   wxmswd:string.obj
 0001:0004d7b2       ??H@YA?AVwxString@@ABV0@D@Z 0044e7b2 f   wxmswd:string.obj
 0001:0004d81d       ??H@YA?AVwxString@@DABV0@@Z 0044e81d f   wxmswd:string.obj
 0001:0004d88a       ??H@YA?AVwxString@@ABV0@PBD@Z 0044e88a f   wxmswd:string.obj
 0001:0004d954       ??H@YA?AVwxString@@PBDABV0@@Z 0044e954 f   wxmswd:string.obj
 0001:0004da1e       ?AllocCopy@wxString@@ABE_NAAV1@HH@Z 0044ea1e f   wxmswd:string.obj
 0001:0004da71       ?Mid@wxString@@QBE?AV1@II@Z 0044ea71 f   wxmswd:string.obj
 0001:0004db2c       ?StartsWith@wxString@@QBE_NPBDPAV1@@Z 0044eb2c f   wxmswd:string.obj
 0001:0004dbb2       ?Right@wxString@@QBE?AV1@I@Z 0044ebb2 f   wxmswd:string.obj
 0001:0004dc50       ?AfterLast@wxString@@QBE?AV1@D@Z 0044ec50 f   wxmswd:string.obj
 0001:0004dcbb       ?Left@wxString@@QBE?AV1@I@Z 0044ecbb f   wxmswd:string.obj
 0001:0004dd4d       ?BeforeFirst@wxString@@QBE?AV1@D@Z 0044ed4d f   wxmswd:string.obj
 0001:0004ddb6       ?BeforeLast@wxString@@QBE?AV1@D@Z 0044edb6 f   wxmswd:string.obj
 0001:0004de27       ?AfterFirst@wxString@@QBE?AV1@D@Z 0044ee27 f   wxmswd:string.obj
 0001:0004de84       ?Replace@wxString@@QAEIPBD0_N@Z 0044ee84 f   wxmswd:string.obj
 0001:0004dfc5       ?IsAscii@wxString@@QBE_NXZ 0044efc5 f   wxmswd:string.obj
 0001:0004e005       ?IsWord@wxString@@QBE_NXZ  0044f005 f   wxmswd:string.obj
 0001:0004e04c       ?IsNumber@wxString@@QBE_NXZ 0044f04c f   wxmswd:string.obj
 0001:0004e0c2       ?Strip@wxString@@QBE?AV1@W4stripType@1@@Z 0044f0c2 f   wxmswd:string.obj
 0001:0004e11c       ?MakeUpper@wxString@@QAEAAV1@XZ 0044f11c f   wxmswd:string.obj
 0001:0004e1a0       ?MakeLower@wxString@@QAEAAV1@XZ 0044f1a0 f   wxmswd:string.obj
 0001:0004e224       ?Trim@wxString@@QAEAAV1@_N@Z 0044f224 f   wxmswd:string.obj
 0001:0004e3bd       ?Pad@wxString@@QAEAAV1@ID_N@Z 0044f3bd f   wxmswd:string.obj
 0001:0004e420       ?Truncate@wxString@@QAEAAV1@I@Z 0044f420 f   wxmswd:string.obj
 0001:0004e497       ?Find@wxString@@QBEHD_N@Z  0044f497 f   wxmswd:string.obj
 0001:0004e505       ?Find@wxString@@QBEHPBD@Z  0044f505 f   wxmswd:string.obj
 0001:0004e547       ?ToLong@wxString@@QBE_NPAJH@Z 0044f547 f   wxmswd:string.obj
 0001:0004e619       ?ToULong@wxString@@QBE_NPAKH@Z 0044f619 f   wxmswd:string.obj
 0001:0004e6eb       ?ToDouble@wxString@@QBE_NPAN@Z 0044f6eb f   wxmswd:string.obj
 0001:0004e774       ?Format@wxString@@SA?AV1@PBDZZ 0044f774 f   wxmswd:string.obj
 0001:0004e7ba       ?FormatV@wxString@@SA?AV1@PBDPAD@Z 0044f7ba f   wxmswd:string.obj
 0001:0004e7f1       ?Printf@wxString@@QAAHPBDZZ 0044f7f1 f   wxmswd:string.obj
 0001:0004e81e       ?PrintfV@wxString@@QAEHPBDPAD@Z 0044f81e f   wxmswd:string.obj
 0001:0004e8a0       ?Matches@wxString@@QBE_NPBD@Z 0044f8a0 f   wxmswd:string.obj
 0001:0004ea3a       ?Freq@wxString@@QBEHD@Z    0044fa3a f   wxmswd:string.obj
 0001:0004ea9a       ?Upper@wxString@@QBE?AV1@XZ 0044fa9a f   wxmswd:string.obj
 0001:0004ead1       ?Lower@wxString@@QBE?AV1@XZ 0044fad1 f   wxmswd:string.obj
 0001:0004eb08       ?sprintf@wxString@@QAAHPBDZZ 0044fb08 f   wxmswd:string.obj
 0001:0004eb35       ?resize@wxString@@QAEXID@Z 0044fb35 f   wxmswd:string.obj
 0001:0004eb91       ?swap@wxString@@QAEXAAV1@@Z 0044fb91 f   wxmswd:string.obj
 0001:0004ebcc       ?insert@wxString@@QAEAAV1@IABV1@@Z 0044fbcc f   wxmswd:string.obj
 0001:0004ecec       ?find@wxString@@QBEIABV1@I@Z 0044fcec f   wxmswd:string.obj
 0001:0004ed9a       ?find@wxString@@QBEIPBDII@Z 0044fd9a f   wxmswd:string.obj
 0001:0004edd4       ?find@wxString@@QBEIDI@Z   0044fdd4 f   wxmswd:string.obj
 0001:0004ee4a       ?rfind@wxString@@QBEIABV1@I@Z 0044fe4a f   wxmswd:string.obj
 0001:0004ef67       ?rfind@wxString@@QBEIPBDII@Z 0044ff67 f   wxmswd:string.obj
 0001:0004efb6       ?rfind@wxString@@QBEIDI@Z  0044ffb6 f   wxmswd:string.obj
 0001:0004f051       ?find_first_of@wxString@@QBEIPBDI@Z 00450051 f   wxmswd:string.obj
 0001:0004f09e       ?find_last_of@wxString@@QBEIPBDI@Z 0045009e f   wxmswd:string.obj
 0001:0004f14b       ?find_first_not_of@wxString@@QBEIPBDI@Z 0045014b f   wxmswd:string.obj
 0001:0004f1cb       ?find_first_not_of@wxString@@QBEIDI@Z 004501cb f   wxmswd:string.obj
 0001:0004f24b       ?find_last_not_of@wxString@@QBEIPBDI@Z 0045024b f   wxmswd:string.obj
 0001:0004f2ef       ?find_last_not_of@wxString@@QBEIDI@Z 004502ef f   wxmswd:string.obj
 0001:0004f389       ?erase@wxString@@QAEAAV1@II@Z 00450389 f   wxmswd:string.obj
 0001:0004f418       ?replace@wxString@@QAEAAV1@IIPBD@Z 00450418 f   wxmswd:string.obj
 0001:0004f4cc       ?replace@wxString@@QAEAAV1@IIID@Z 004504cc f   wxmswd:string.obj
 0001:0004f511       ?replace@wxString@@QAEAAV1@IIABV1@II@Z 00450511 f   wxmswd:string.obj
 0001:0004f55a       ?replace@wxString@@QAEAAV1@IIPBDI@Z 0045055a f   wxmswd:string.obj
 0001:0004f59f       ?Init@wxArrayString@@IAEX_N@Z 0045059f f   wxmswd:string.obj
 0001:0004f5d2       ??0wxArrayString@@QAE@ABV0@@Z 004505d2 f   wxmswd:string.obj
 0001:0004f5fd       ??4wxArrayString@@QAEAAV0@ABV0@@Z 004505fd f   wxmswd:string.obj
 0001:0004f635       ?Copy@wxArrayString@@IAEXABV1@@Z 00450635 f   wxmswd:string.obj
 0001:0004f692       ?Grow@wxArrayString@@AAEXI@Z 00450692 f   wxmswd:string.obj
 0001:0004f7ae       ?Free@wxArrayString@@AAEXXZ 004507ae f   wxmswd:string.obj
 0001:0004f7f2       ?Empty@wxArrayString@@QAEXXZ 004507f2 f   wxmswd:string.obj
 0001:0004f80f       ?Clear@wxArrayString@@QAEXXZ 0045080f f   wxmswd:string.obj
 0001:0004f85f       ??1wxArrayString@@QAE@XZ   0045085f f   wxmswd:string.obj
 0001:0004f89c       ?Alloc@wxArrayString@@QAEXI@Z 0045089c f   wxmswd:string.obj
 0001:0004f912       ?Shrink@wxArrayString@@QAEXXZ 00450912 f   wxmswd:string.obj
 0001:0004f982       ?GetStringArray@wxArrayString@@QBEPAVwxString@@XZ 00450982 f   wxmswd:string.obj
 0001:0004fa3c       ?Index@wxArrayString@@QBEHPBD_N1@Z 00450a3c f   wxmswd:string.obj
 0001:0004fbb4       ?Add@wxArrayString@@QAEIABVwxString@@I@Z 00450bb4 f   wxmswd:string.obj
 0001:0004fd2a       ?Insert@wxArrayString@@QAEXABVwxString@@II@Z 00450d2a f   wxmswd:string.obj
 0001:0004fe78       ?SetCount@wxArrayString@@QAEXI@Z 00450e78 f   wxmswd:string.obj
 0001:0004fed6       ?Remove@wxArrayString@@QAEXII@Z 00450ed6 f   wxmswd:string.obj
 0001:0004ffd9       ?Remove@wxArrayString@@QAEXPBD@Z 00450fd9 f   wxmswd:string.obj
 0001:0005003c       _wxStringCompareFunction   0045103c f   wxmswd:string.obj
 0001:000500aa       ?Sort@wxArrayString@@QAEXP6AHABVwxString@@0@Z@Z 004510aa f   wxmswd:string.obj
 0001:0005019a       ?Sort@wxArrayString@@QAEX_N@Z 0045119a f   wxmswd:string.obj
 0001:0005028a       ?DoSort@wxArrayString@@AAEXXZ 0045128a f   wxmswd:string.obj
 0001:000502ec       ??8wxArrayString@@QBE_NABV0@@Z 004512ec f   wxmswd:string.obj
 0001:00050360       ?data@wxStringData@@QBEPADXZ 00451360 f i wxmswd:string.obj
 0001:00050380       ?IsShared@wxStringData@@QBE_NXZ 00451380 f i wxmswd:string.obj
 0001:000503a0       ?Validate@wxStringData@@QAEX_N@Z 004513a0 f i wxmswd:string.obj
 0001:000503c0       ?Reinit@wxString@@AAEXXZ   004513c0 f i wxmswd:string.obj
 0001:000503f0       ?GetChar@wxString@@QBEDI@Z 004513f0 f i wxmswd:string.obj
 0001:00050440       ?wxSafeIsspace@@YAHD@Z     00451440 f i wxmswd:string.obj
 0001:00050490       ??YwxString@@QAEXABV0@@Z   00451490 f i wxmswd:string.obj
 0001:000504b0       ??6wxString@@QAEAAV0@ABV0@@Z 004514b0 f i wxmswd:string.obj
 0001:00050520       ?append@wxString@@QAEAAV1@PBDI@Z 00451520 f i wxmswd:string.obj
 0001:00050570       ?substr@wxString@@QBE?AV1@II@Z 00451570 f i wxmswd:string.obj
 0001:000505a0       ??9@YA_NABVwxString@@0@Z   004515a0 f i wxmswd:string.obj
 0001:000505f0       ??_GwxCriticalSection@@QAEPAXI@Z 004515f0 f i wxmswd:string.obj
 0001:00050735       ??0wxMsgCatalogFile@@QAE@XZ 00451735 f   wxmswd:intl.obj
 0001:0005074c       ??1wxMsgCatalogFile@@QAE@XZ 0045174c f   wxmswd:intl.obj
 0001:0005077e       ?Load@wxMsgCatalogFile@@QAE_NPBD0@Z 0045177e f   wxmswd:intl.obj
 0001:00050da9       ?FillHash@wxMsgCatalogFile@@QBEXAAVwxMessagesHash@@_N@Z 00451da9 f   wxmswd:intl.obj
 0001:00050f48       ?GetCharset@wxMsgCatalogFile@@ABE?AVwxString@@XZ 00451f48 f   wxmswd:intl.obj
 0001:0005109d       ?Load@wxMsgCatalog@@QAE_NPBD0_N@Z 0045209d f   wxmswd:intl.obj
 0001:0005110f       ?GetString@wxMsgCatalog@@QBEPBDPBD@Z 0045210f f   wxmswd:intl.obj
 0001:00051189       ??1wxLanguageInfoArray@@QAE@XZ 00452189 f   wxmswd:intl.obj
 0001:000511a4       ?DoCopy@wxLanguageInfoArray@@AAEXABV1@@Z 004521a4 f   wxmswd:intl.obj
 0001:000511eb       ??4wxLanguageInfoArray@@QAEAAV0@ABV0@@Z 004521eb f   wxmswd:intl.obj
 0001:0005120f       ??0wxLanguageInfoArray@@QAE@ABV0@@Z 0045220f f   wxmswd:intl.obj
 0001:00051233       ?DoEmpty@wxLanguageInfoArray@@AAEXXZ 00452233 f   wxmswd:intl.obj
 0001:00051294       ?RemoveAt@wxLanguageInfoArray@@QAEXII@Z 00452294 f   wxmswd:intl.obj
 0001:0005133e       ?Add@wxLanguageInfoArray@@QAEXABUwxLanguageInfo@@I@Z 0045233e f   wxmswd:intl.obj
 0001:00051405       ?Insert@wxLanguageInfoArray@@QAEXABUwxLanguageInfo@@II@Z 00452405 f   wxmswd:intl.obj
 0001:000514c5       ?Index@wxLanguageInfoArray@@QBEHABUwxLanguageInfo@@_N@Z 004524c5 f   wxmswd:intl.obj
 0001:0005155f       ?CreateLanguagesDB@wxLocale@@SAXXZ 0045255f f   wxmswd:intl.obj
 0001:000515a6       ?DestroyLanguagesDB@wxLocale@@SAXXZ 004525a6 f   wxmswd:intl.obj
 0001:000515e4       ??0wxLocale@@QAE@XZ        004525e4 f   wxmswd:intl.obj
 0001:00051623       ?Init@wxLocale@@QAE_NPBD00_N1@Z 00452623 f   wxmswd:intl.obj
 0001:00051745       ?Init@wxLocale@@QAE_NHH@Z  00452745 f   wxmswd:intl.obj
 0001:00051a1a       ?AddCatalogLookupPathPrefix@wxLocale@@SAXABVwxString@@@Z 00452a1a f   wxmswd:intl.obj
 0001:00051a4b       ?GetSystemLanguage@wxLocale@@SAHXZ 00452a4b f   wxmswd:intl.obj
 0001:00051b09       ?GetSystemEncodingName@wxLocale@@SA?AVwxString@@XZ 00452b09 f   wxmswd:intl.obj
 0001:00051b50       ?GetSystemEncoding@wxLocale@@SA?AW4wxFontEncoding@@XZ 00452b50 f   wxmswd:intl.obj
 0001:00051bc0       ?AddLanguage@wxLocale@@SAXABUwxLanguageInfo@@@Z 00452bc0 f   wxmswd:intl.obj
 0001:00051bdb       ?GetLanguageInfo@wxLocale@@SAPBUwxLanguageInfo@@H@Z 00452bdb f   wxmswd:intl.obj
 0001:00051c3d       ?GetSysName@wxLocale@@QBE?AVwxString@@XZ 00452c3d f   wxmswd:intl.obj
 0001:00051c65       ??1wxLocale@@QAE@XZ        00452c65 f   wxmswd:intl.obj
 0001:00051cf0       ?GetString@wxLocale@@QBEPBDPBD0@Z 00452cf0 f   wxmswd:intl.obj
 0001:00051df9       ?FindCatalog@wxLocale@@ABEPAVwxMsgCatalog@@PBD@Z 00452df9 f   wxmswd:intl.obj
 0001:00051e67       ?IsLoaded@wxLocale@@QBE_NPBD@Z 00452e67 f   wxmswd:intl.obj
 0001:00051e86       ?AddCatalog@wxLocale@@QAE_NPBD@Z 00452e86 f   wxmswd:intl.obj
 0001:00051f2c       ?wxGetLocale@@YAPAVwxLocale@@XZ 00452f2c f   wxmswd:intl.obj
 0001:00051f52       ?wxConstructorForwxLocaleModule@@YAPAVwxObject@@XZ 00452f52 f   wxmswd:intl.obj
 0001:00051ff5       ?InitLanguagesDB@wxLocale@@CAXXZ 00452ff5 f   wxmswd:intl.obj
 0001:000554b0       ??1wxFile@@QAE@XZ          004564b0 f i wxmswd:intl.obj
 0001:000554d0       ??0NoTransErr@@QAE@XZ      004564d0 f i wxmswd:intl.obj
 0001:000554f0       ??1NoTransErr@@QAE@XZ      004564f0 f i wxmswd:intl.obj
 0001:00055510       ?Swap@wxMsgCatalogFile@@ABEII@Z 00456510 f i wxmswd:intl.obj
 0001:00055570       ??1wxWCharBuffer@@QAE@XZ   00456570 f i wxmswd:intl.obj
 0001:00055590       ??BwxWCharBuffer@@QBEPBGXZ 00456590 f i wxmswd:intl.obj
 0001:000555a0       ??0wxString@@QAE@PBDAAVwxMBConv@@I@Z 004565a0 f i wxmswd:intl.obj
 0001:000555d0       ??7wxString@@QBE_NXZ       004565d0 f i wxmswd:intl.obj
 0001:000555f0       ??AwxMessagesHash@@QAEAAVwxString@@ABV1@@Z 004565f0 f i wxmswd:intl.obj
 0001:00055630       ??0wxMessagesHash_wxImplementation_Pair@@QAE@ABVwxString@@@Z 00456630 f i wxmswd:intl.obj
 0001:00055660       ?GetOrCreateNode@wxMessagesHash_wxImplementation_HashTable@@IAEPAUNode@1@ABVwxMessagesHash_wxImplementation_Pair@@@Z 00456660 f i wxmswd:intl.obj
 0001:00055780       ??RwxStringHash@@QBEKABVwxString@@@Z 00456780 f i wxmswd:intl.obj
 0001:000557a0       ??RwxStringEqual@@QBE_NABVwxString@@0@Z 004567a0 f i wxmswd:intl.obj
 0001:000557c0       ??RwxMessagesHash_wxImplementation_KeyEx@@QBEABVwxString@@ABVwxMessagesHash_wxImplementation_Pair@@@Z 004567c0 f i wxmswd:intl.obj
 0001:000557d0       ??0Node@wxMessagesHash_wxImplementation_HashTable@@QAE@ABVwxMessagesHash_wxImplementation_Pair@@@Z 004567d0 f i wxmswd:intl.obj
 0001:00055800       ?m_next@Node@wxMessagesHash_wxImplementation_HashTable@@QAEPAU12@XZ 00456800 f i wxmswd:intl.obj
 0001:00055810       ?ResizeTable@wxMessagesHash_wxImplementation_HashTable@@IAEXI@Z 00456810 f i wxmswd:intl.obj
 0001:00055890       ?GetBucketForNode@wxMessagesHash_wxImplementation_HashTable@@KAIPAV1@PAUNode@1@@Z 00456890 f i wxmswd:intl.obj
 0001:000558c0       ??0wxMessagesHash_wxImplementation_Pair@@QAE@ABV0@@Z 004568c0 f i wxmswd:intl.obj
 0001:000558f0       ??1wxMessagesHash_wxImplementation_Pair@@QAE@XZ 004568f0 f i wxmswd:intl.obj
 0001:00055910       ?StringAtOfs@wxMsgCatalogFile@@ABEPBDPAUwxMsgTableEntry@1@I@Z 00456910 f i wxmswd:intl.obj
 0001:00055940       ??AwxString@@QAEAADI@Z     00456940 f i wxmswd:intl.obj
 0001:00055990       ?FromAscii@wxString@@SA?AV1@PBD@Z 00456990 f i wxmswd:intl.obj
 0001:000559b0       ??9Iterator@wxMessagesHash_wxImplementation_HashTable@@QBE_NABU01@@Z 004569b0 f i wxmswd:intl.obj
 0001:000559d0       ??Cconst_iterator@wxMessagesHash_wxImplementation_HashTable@@QBEPBVwxMessagesHash_wxImplementation_Pair@@XZ 004569d0 f i wxmswd:intl.obj
 0001:000559f0       ?end@wxMessagesHash_wxImplementation_HashTable@@QBE?AUconst_iterator@1@XZ 004569f0 f i wxmswd:intl.obj
 0001:00055a20       ??0const_iterator@wxMessagesHash_wxImplementation_HashTable@@QAE@PAUNode@1@PBV1@@Z 00456a20 f i wxmswd:intl.obj
 0001:00055a40       ??0Iterator@wxMessagesHash_wxImplementation_HashTable@@QAE@PAUNode@1@PBV1@@Z 00456a40 f i wxmswd:intl.obj
 0001:00055a70       ?find@wxMessagesHash@@QBE?AUconst_iterator@wxMessagesHash_wxImplementation_HashTable@@ABVwxString@@@Z 00456a70 f i wxmswd:intl.obj
 0001:00055ab0       ?GetNode@wxMessagesHash_wxImplementation_HashTable@@IBEPAUNode@1@ABVwxString@@@Z 00456ab0 f i wxmswd:intl.obj
 0001:00055b30       ?Count@wxArrayString@@QBEIXZ 00456b30 f i wxmswd:intl.obj
 0001:00055b50       ?Empty@wxLanguageInfoArray@@QAEXXZ 00456b50 f i wxmswd:intl.obj
 0001:00055b70       ??AwxLanguageInfoArray@@QBEAAUwxLanguageInfo@@I@Z 00456b70 f i wxmswd:intl.obj
 0001:00055b90       ??8@YA_NABVwxString@@PBD@Z 00456b90 f i wxmswd:intl.obj
 0001:00055bb0       ??_GwxLanguageInfo@@QAEPAXI@Z 00456bb0 f i wxmswd:intl.obj
 0001:00055be0       ??1wxLanguageInfo@@QAE@XZ  00456be0 f i wxmswd:intl.obj
 0001:00055c10       ??0wxLanguageInfo@@QAE@ABU0@@Z 00456c10 f i wxmswd:intl.obj
 0001:00055c70       ??0wxLanguageInfoArray@@QAE@XZ 00456c70 f i wxmswd:intl.obj
 0001:00055c90       ??_GwxLanguageInfoArray@@QAEPAXI@Z 00456c90 f i wxmswd:intl.obj
 0001:00055cc0       ?Empty@wxBaseArrayPtrVoid@@QAEXXZ 00456cc0 f i wxmswd:intl.obj
 0001:00055ce0       ?GetCount@wxBaseArrayPtrVoid@@QBEIXZ 00456ce0 f i wxmswd:intl.obj
 0001:00055d00       ?Count@wxBaseArrayPtrVoid@@QBEIXZ 00456d00 f i wxmswd:intl.obj
 0001:00055d20       ?Item@wxBaseArrayPtrVoid@@IBEAAPBXI@Z 00456d20 f i wxmswd:intl.obj
 0001:00055d60       ?Item@wxLanguageInfoArray@@QBEAAUwxLanguageInfo@@I@Z 00456d60 f i wxmswd:intl.obj
 0001:00055d80       ??_GwxMsgCatalog@@QAEPAXI@Z 00456d80 f i wxmswd:intl.obj
 0001:00055db0       ??1wxMsgCatalog@@QAE@XZ    00456db0 f i wxmswd:intl.obj
 0001:00055de0       ??1wxMessagesHash@@QAE@XZ  00456de0 f i wxmswd:intl.obj
 0001:00055e00       ??1wxMessagesHash_wxImplementation_HashTable@@QAE@XZ 00456e00 f i wxmswd:intl.obj
 0001:00055e30       ?clear@wxMessagesHash_wxImplementation_HashTable@@QAEXXZ 00456e30 f i wxmswd:intl.obj
 0001:00055e60       ?DeleteNode@wxMessagesHash_wxImplementation_HashTable@@KAXPAU_wxHashTable_NodeBase@@@Z 00456e60 f i wxmswd:intl.obj
 0001:00055ea0       ??_GNode@wxMessagesHash_wxImplementation_HashTable@@QAEPAXI@Z 00456ea0 f i wxmswd:intl.obj
 0001:00055ed0       ??1Node@wxMessagesHash_wxImplementation_HashTable@@QAE@XZ 00456ed0 f i wxmswd:intl.obj
 0001:00055ef0       ?wxIsEmpty@@YA_NPBD@Z      00456ef0 f i wxmswd:intl.obj
 0001:00055f20       ?Suppress@NoTransErr@@SA_NXZ 00456f20 f i wxmswd:intl.obj
 0001:00055f40       ?GetName@wxMsgCatalog@@QBE?AVwxString@@XZ 00456f40 f i wxmswd:intl.obj
 0001:00055f60       ??0wxMsgCatalog@@QAE@XZ    00456f60 f i wxmswd:intl.obj
 0001:00055fa0       ??0wxStringHash@@QAE@XZ    00456fa0 f i wxmswd:intl.obj
 0001:00055fb0       ??0wxStringEqual@@QAE@XZ   00456fb0 f i wxmswd:intl.obj
 0001:00055fc0       ??0wxMessagesHash@@QAE@IVwxStringHash@@VwxStringEqual@@@Z 00456fc0 f i wxmswd:intl.obj
 0001:00055ff0       ??0wxMessagesHash_wxImplementation_KeyEx@@QAE@XZ 00456ff0 f i wxmswd:intl.obj
 0001:00056000       ??0wxMessagesHash_wxImplementation_HashTable@@QAE@IABVwxStringHash@@ABVwxStringEqual@@ABVwxMessagesHash_wxImplementation_KeyEx@@@Z 00457000 f i wxmswd:intl.obj
 0001:00056070       ??0wxLocaleModule@@QAE@XZ  00457070 f i wxmswd:intl.obj
 0001:00056090       ?GetClassInfo@wxLocaleModule@@UBEPAVwxClassInfo@@XZ 00457090 f i wxmswd:intl.obj
 0001:000560a0       ?OnInit@wxLocaleModule@@UAE_NXZ 004570a0 f i wxmswd:intl.obj
 0001:000560b0       ?OnExit@wxLocaleModule@@UAEXXZ 004570b0 f i wxmswd:intl.obj
 0001:000560c0       ??_GwxLocaleModule@@UAEPAXI@Z 004570c0 f i wxmswd:intl.obj
 0001:000560c0       ??_EwxLocaleModule@@UAEPAXI@Z 004570c0 f i wxmswd:intl.obj
 0001:000560f0       ??1wxLocaleModule@@UAE@XZ  004570f0 f i wxmswd:intl.obj
 0001:00056110       ??0wxStringTokenizer@@QAE@XZ 00457110 f i wxmswd:intl.obj
 0001:00056150       ??_EwxStringTokenizer@@UAEPAXI@Z 00457150 f i wxmswd:intl.obj
 0001:00056150       ??_GwxStringTokenizer@@UAEPAXI@Z 00457150 f i wxmswd:intl.obj
 0001:00056180       ??1wxStringTokenizer@@UAE@XZ 00457180 f i wxmswd:intl.obj
 0001:000561b0       ??0wxArrayPtrVoid@@QAE@XZ  004571b0 f i wxmswd:intl.obj
 0001:000561d0       ??1wxArrayPtrVoid@@QAE@XZ  004571d0 f i wxmswd:intl.obj
 0001:000561f0       ?Item@wxArrayPtrVoid@@QBEAAPAXI@Z 004571f0 f i wxmswd:intl.obj
 0001:00056210       ??0wxLanguageInfo@@QAE@XZ  00457210 f i wxmswd:intl.obj
 0001:00056240       ?wxConstructorForwxPanel@@YAPAVwxObject@@XZ 00457240 f   wxmswd:panelg.obj
 0001:000562e9       ?GetEventTable@wxPanel@@MBEPBUwxEventTable@@XZ 004572e9 f   wxmswd:panelg.obj
 0001:000563dc       ?SetDefaultItem@wxPanel@@UAEPAVwxWindow@@PAV2@@Z 004573dc f   wxmswd:panelg.obj
 0001:000563fb       ?SetTmpDefaultItem@wxPanel@@UAEXPAVwxWindow@@@Z 004573fb f   wxmswd:panelg.obj
 0001:0005641a       ?GetDefaultItem@wxPanel@@UBEPAVwxWindow@@XZ 0045741a f   wxmswd:panelg.obj
 0001:00056433       ?OnNavigationKey@wxPanel@@QAEXAAVwxNavigationKeyEvent@@@Z 00457433 f   wxmswd:panelg.obj
 0001:00056452       ?RemoveChild@wxPanel@@UAEXPAVwxWindowBase@@@Z 00457452 f   wxmswd:panelg.obj
 0001:0005647d       ?SetFocus@wxPanel@@UAEXXZ  0045747d f   wxmswd:panelg.obj
 0001:000564a7       ?OnChildFocus@wxPanel@@UAEXAAVwxChildFocusEvent@@@Z 004574a7 f   wxmswd:panelg.obj
 0001:000564cb       ?OnFocus@wxPanel@@QAEXAAVwxFocusEvent@@@Z 004574cb f   wxmswd:panelg.obj
 0001:000564ea       ?Init@wxPanel@@IAEXXZ      004574ea f   wxmswd:panelg.obj
 0001:00056507       ?Create@wxPanel@@QAE_NPAVwxWindow@@HABVwxPoint@@ABVwxSize@@JABVwxString@@@Z 00457507 f   wxmswd:panelg.obj
 0001:00056534       ??1wxPanel@@UAE@XZ         00457534 f   wxmswd:panelg.obj
 0001:00056550       ?InitDialog@wxPanel@@UAEXXZ 00457550 f   wxmswd:panelg.obj
 0001:0005659c       ?OnSysColourChanged@wxPanel@@QAEXAAVwxSysColourChangedEvent@@@Z 0045759c f   wxmswd:panelg.obj
 0001:000565ee       ?OnSize@wxPanel@@QAEXAAVwxSizeEvent@@@Z 004575ee f   wxmswd:panelg.obj
 0001:00056630       ??_9@$BCAM@AE              00457630 f i wxmswd:panelg.obj
 0001:00056640       ?SetEventObject@wxEvent@@QAEXPAVwxObject@@@Z 00457640 f i wxmswd:panelg.obj
 0001:00056660       ?GetWindow@wxChildFocusEvent@@QBEPAVwxWindow@@XZ 00457660 f i wxmswd:panelg.obj
 0001:00056680       ?GetEventObject@wxEvent@@QBEPAVwxObject@@XZ 00457680 f i wxmswd:panelg.obj
 0001:000566a0       ??0wxInitDialogEvent@@QAE@H@Z 004576a0 f i wxmswd:panelg.obj
 0001:000566d0       ?Clone@wxInitDialogEvent@@UBEPAVwxEvent@@XZ 004576d0 f i wxmswd:panelg.obj
 0001:00056710       ?GetClassInfo@wxInitDialogEvent@@UBEPAVwxClassInfo@@XZ 00457710 f i wxmswd:panelg.obj
 0001:00056720       ??_EwxInitDialogEvent@@UAEPAXI@Z 00457720 f i wxmswd:panelg.obj
 0001:00056720       ??_GwxInitDialogEvent@@UAEPAXI@Z 00457720 f i wxmswd:panelg.obj
 0001:00056750       ??0wxInitDialogEvent@@QAE@ABV0@@Z 00457750 f i wxmswd:panelg.obj
 0001:00056780       ??1wxInitDialogEvent@@UAE@XZ 00457780 f i wxmswd:panelg.obj
 0001:000567a0       ?GetEventHandler@wxWindowBase@@QBEPAVwxEvtHandler@@XZ 004577a0 f i wxmswd:panelg.obj
 0001:000567c0       ?GetAutoLayout@wxWindowBase@@QBE_NXZ 004577c0 f i wxmswd:panelg.obj
 0001:000567e0       ?SetContainerWindow@wxControlContainer@@QAEXPAVwxWindow@@@Z 004577e0 f i wxmswd:panelg.obj
 0001:00056800       ?GetDefaultItem@wxControlContainer@@QBEPAVwxWindow@@XZ 00457800 f i wxmswd:panelg.obj
 0001:00056830       ?SetDefaultItem@wxControlContainer@@QAEPAVwxWindow@@PAV2@@Z 00457830 f i wxmswd:panelg.obj
 0001:00056860       ?SetTmpDefaultItem@wxControlContainer@@QAEXPAVwxWindow@@@Z 00457860 f i wxmswd:panelg.obj
 0001:00056956       ?wxConstructorForwxWindow@@YAPAVwxObject@@XZ 00457956 f   wxmswd:window.obj
 0001:000569ff       ?GetEventTable@wxWindow@@MBEPBUwxEventTable@@XZ 004579ff f   wxmswd:window.obj
 0001:00056acf       ?FindItem@wxWindow@@QBEPAV1@J@Z 00457acf f   wxmswd:window.obj
 0001:00056b96       ?FindItemByHWND@wxWindow@@QBEPAV1@K_N@Z 00457b96 f   wxmswd:window.obj
 0001:00056c5a       ?MSWCommand@wxWindow@@UAE_NIG@Z 00457c5a f   wxmswd:window.obj
 0001:00056c69       ?Init@wxWindow@@AAEXXZ     00457c69 f   wxmswd:window.obj
 0001:00056d48       ??1wxWindow@@UAE@XZ        00457d48 f   wxmswd:window.obj
 0001:00056e84       ?Create@wxWindow@@QAE_NPAV1@HABVwxPoint@@ABVwxSize@@JABVwxString@@@Z 00457e84 f   wxmswd:window.obj
 0001:00056fac       ?SetFocus@wxWindow@@UAEXXZ 00457fac f   wxmswd:window.obj
 0001:00057059       ?SetFocusFromKbd@wxWindow@@UAEXXZ 00458059 f   wxmswd:window.obj
 0001:000570a3       ?FindFocus@wxWindowBase@@SAPAVwxWindow@@XZ 004580a3 f   wxmswd:window.obj
 0001:000570ca       ?Enable@wxWindow@@UAE_N_N@Z 004580ca f   wxmswd:window.obj
 0001:00057291       ?Show@wxWindow@@UAE_N_N@Z  00458291 f   wxmswd:window.obj
 0001:00057344       ?Raise@wxWindow@@UAEXXZ    00458344 f   wxmswd:window.obj
 0001:00057360       ?Lower@wxWindow@@UAEXXZ    00458360 f   wxmswd:window.obj
 0001:00057386       ?SetTitle@wxWindow@@UAEXABVwxString@@@Z 00458386 f   wxmswd:window.obj
 0001:000573ab       ?GetTitle@wxWindow@@UBE?AVwxString@@XZ 004583ab f   wxmswd:window.obj
 0001:000573d0       ?DoCaptureMouse@wxWindow@@MAEXXZ 004583d0 f   wxmswd:window.obj
 0001:000573f8       ?DoReleaseMouse@wxWindow@@MAEXXZ 004583f8 f   wxmswd:window.obj
 0001:0005743e       ?GetCapture@wxWindowBase@@SAPAVwxWindow@@XZ 0045843e f   wxmswd:window.obj
 0001:00057472       ?SetFont@wxWindow@@UAE_NABVwxFont@@@Z 00458472 f   wxmswd:window.obj
 0001:000574f7       ?SetCursor@wxWindow@@UAE_NABVwxCursor@@@Z 004584f7 f   wxmswd:window.obj
 0001:000575c6       ?WarpPointer@wxWindow@@UAEXHH@Z 004585c6 f   wxmswd:window.obj
 0001:00057626       ?GetScrollPos@wxWindow@@UBEHH@Z 00458626 f   wxmswd:window.obj
 0001:0005769a       ?GetScrollRange@wxWindow@@UBEHH@Z 0045869a f   wxmswd:window.obj
 0001:0005771f       ?GetScrollThumb@wxWindow@@UBEHH@Z 0045871f f   wxmswd:window.obj
 0001:00057746       ?SetScrollPos@wxWindow@@UAEXHH_N@Z 00458746 f   wxmswd:window.obj
 0001:000577db       ?SetScrollbar@wxWindow@@UAEXHHHH_N@Z 004587db f   wxmswd:window.obj
 0001:000578a1       ?ScrollWindow@wxWindow@@UAEXHHPBVwxRect@@@Z 004588a1 f   wxmswd:window.obj
 0001:00057912       ?ScrollLines@wxWindow@@UAE_NH@Z 00458912 f   wxmswd:window.obj
 0001:000579ef       ?ScrollPages@wxWindow@@UAE_NH@Z 004589ef f   wxmswd:window.obj
 0001:00057a4f       ?SubclassWin@wxWindow@@QAEXK@Z 00458a4f f   wxmswd:window.obj
 0001:00057b2a       ?UnsubclassWin@wxWindow@@QAEXXZ 00458b2a f   wxmswd:window.obj
 0001:00057bed       ?wxCheckWindowWndProc@@YA_NKP6GHXZ@Z 00458bed f   wxmswd:window.obj
 0001:00057c7d       ?SetWindowStyleFlag@wxWindow@@UAEXJ@Z 00458c7d f   wxmswd:window.obj
 0001:00057de9       ?MSWGetStyle@wxWindow@@UBEKJPAK@Z 00458de9 f   wxmswd:window.obj
 0001:00057f75       ?MakeExtendedStyle@wxWindow@@SAKJ_N@Z 00458f75 f   wxmswd:window.obj
 0001:00058001       ?Determine3DEffects@wxWindow@@QBEKKPA_N@Z 00459001 f   wxmswd:window.obj
 0001:000581a6       ?SetupColours@wxWindow@@UAEXXZ 004591a6 f   wxmswd:window.obj
 0001:000581e9       ?IsMouseInWindow@wxWindow@@QBE_NXZ 004591e9 f   wxmswd:window.obj
 0001:0005823c       ?OnIdle@wxWindow@@QAEXAAVwxIdleEvent@@@Z 0045923c f   wxmswd:window.obj
 0001:000583f4       ?Reparent@wxWindow@@UAE_NPAVwxWindowBase@@@Z 004593f4 f   wxmswd:window.obj
 0001:00058464       ?Clear@wxWindow@@UAEXXZ    00459464 f   wxmswd:window.obj
 0001:000584e7       ?Freeze@wxWindow@@UAEXXZ   004594e7 f   wxmswd:window.obj
 0001:00058521       ?Thaw@wxWindow@@UAEXXZ     00459521 f   wxmswd:window.obj
 0001:00058551       ?Refresh@wxWindow@@UAEX_NPBVwxRect@@@Z 00459551 f   wxmswd:window.obj
 0001:000585d5       ?Update@wxWindow@@UAEXXZ   004595d5 f   wxmswd:window.obj
 0001:0005862a       ?SetDropTarget@wxWindow@@UAEXPAVwxDropTarget@@@Z 0045962a f   wxmswd:window.obj
 0001:000586ab       ?DragAcceptFiles@wxWindow@@UAEX_N@Z 004596ab f   wxmswd:window.obj
 0001:000586de       ?DoSetToolTip@wxWindow@@MAEXPAVwxToolTip@@@Z 004596de f   wxmswd:window.obj
 0001:00058715       ?DoGetSize@wxWindow@@MBEXPAH0@Z 00459715 f   wxmswd:window.obj
 0001:0005878a       ?DoGetClientSize@wxWindow@@MBEXPAH0@Z 0045978a f   wxmswd:window.obj
 0001:000587f9       ?DoGetPosition@wxWindow@@MBEXPAH0@Z 004597f9 f   wxmswd:window.obj
 0001:000588f4       ?DoScreenToClient@wxWindow@@MBEXPAH0@Z 004598f4 f   wxmswd:window.obj
 0001:0005894e       ?DoClientToScreen@wxWindow@@MBEXPAH0@Z 0045994e f   wxmswd:window.obj
 0001:000589a8       ?DoMoveWindow@wxWindow@@MAEXHHHH@Z 004599a8 f   wxmswd:window.obj
 0001:00058a25       ?DoSetSize@wxWindow@@MAEXHHHHH@Z 00459a25 f   wxmswd:window.obj
 0001:00058b65       ?DoSetClientSize@wxWindow@@MAEXHH@Z 00459b65 f   wxmswd:window.obj
 0001:00058c6f       ?GetClientAreaOrigin@wxWindow@@UBE?AVwxPoint@@XZ 00459c6f f   wxmswd:window.obj
 0001:00058c9a       ?GetCharHeight@wxWindow@@UBEHXZ 00459c9a f   wxmswd:window.obj
 0001:00058cca       ?GetCharWidth@wxWindow@@UBEHXZ 00459cca f   wxmswd:window.obj
 0001:00058cfa       ?GetTextExtent@wxWindow@@UBEXABVwxString@@PAH111PBVwxFont@@@Z 00459cfa f   wxmswd:window.obj
 0001:00058e14       ?DoPopupMenu@wxWindow@@UAE_NPAVwxMenu@@HH@Z 00459e14 f   wxmswd:window.obj
 0001:00058efd       ?MSWDefWindowProc@wxWindow@@UAEJIIJ@Z 00459efd f   wxmswd:window.obj
 0001:00058f58       ?MSWProcessMessage@wxWindow@@UAE_NPAPAX@Z 00459f58 f   wxmswd:window.obj
 0001:00059320       ?MSWTranslateMessage@wxWindow@@UAE_NPAPAX@Z 0045a320 f   wxmswd:window.obj
 0001:00059343       ?MSWShouldPreProcessMessage@wxWindow@@UAE_NPAPAX@Z 0045a343 f   wxmswd:window.obj
 0001:00059352       ?UnpackCommand@wxWindow@@QAEXIJPAGPAK0@Z 0045a352 f   wxmswd:window.obj
 0001:00059383       ?UnpackActivate@wxWindow@@QAEXIJPAG0PAK@Z 0045a383 f   wxmswd:window.obj
 0001:000593b4       ?UnpackScroll@wxWindow@@QAEXIJPAG0PAK@Z 0045a3b4 f   wxmswd:window.obj
 0001:000593e5       ?UnpackCtlColor@wxWindow@@QAEXIJPAGPAK1@Z 0045a3e5 f   wxmswd:window.obj
 0001:0005940a       ?UnpackMenuSelect@wxWindow@@QAEXIJPAG0PAK@Z 0045a40a f   wxmswd:window.obj
 0001:0005943b       ??0wxWindowCreationHook@@QAE@PAVwxWindow@@@Z 0045a43b f   wxmswd:window.obj
 0001:00059453       ??1wxWindowCreationHook@@QAE@XZ 0045a453 f   wxmswd:window.obj
 0001:00059468       ?wxWndProc@@YGJPAUHWND__@@IIJ@Z 0045a468 f   wxmswd:window.obj
 0001:00059528       ?MSWWindowProc@wxWindow@@UAEJIIJ@Z 0045a528 f   wxmswd:window.obj
 0001:0005a4c3       ?wxFindWinFromHandle@@YAPAVwxWindow@@K@Z 0045b4c3 f   wxmswd:window.obj
 0001:0005a4d7       ?wxAssociateWinWithHandle@@YAXPAUHWND__@@PAVwxWindow@@@Z 0045b4d7 f   wxmswd:window.obj
 0001:0005a56c       ?wxRemoveHandleAssociation@@YAXPAVwxWindow@@@Z 0045b56c f   wxmswd:window.obj
 0001:0005a585       ?MSWDestroyWindow@wxWindow@@UAEXXZ 0045b585 f   wxmswd:window.obj
 0001:0005a590       ?MSWGetCreateWindowCoords@wxWindow@@QBE_NABVwxPoint@@ABVwxSize@@AAH222@Z 0045b590 f   wxmswd:window.obj
 0001:0005a640       ?MSWGetParent@wxWindow@@UBEKXZ 0045b640 f   wxmswd:window.obj
 0001:0005a670       ?MSWCreate@wxWindow@@QAE_NPBD0ABVwxPoint@@ABVwxSize@@KK@Z 0045b670 f   wxmswd:window.obj
 0001:0005a7f4       ?HandleNotify@wxWindow@@AAE_NHJPAJ@Z 0045b7f4 f   wxmswd:window.obj
 0001:0005a85c       ?HandleTooltipNotify@wxWindow@@IAE_NIJABVwxString@@@Z 0045b85c f   wxmswd:window.obj
 0001:0005a95f       ?MSWOnNotify@wxWindow@@UAE_NHJPAJ@Z 0045b95f f   wxmswd:window.obj
 0001:0005a9b1       ?HandleQueryEndSession@wxWindow@@QAE_NJPA_N@Z 0045b9b1 f   wxmswd:window.obj
 0001:0005aa4a       ?HandleEndSession@wxWindow@@QAE_N_NJ@Z 0045ba4a f   wxmswd:window.obj
 0001:0005aae4       ?HandleCreate@wxWindow@@QAE_NPAXPA_N@Z 0045bae4 f   wxmswd:window.obj
 0001:0005abaf       ?HandleDestroy@wxWindow@@QAE_NXZ 0045bbaf f   wxmswd:window.obj
 0001:0005ac46       ?HandleActivate@wxWindow@@QAE_NH_NK@Z 0045bc46 f   wxmswd:window.obj
 0001:0005acbe       ?HandleSetFocus@wxWindow@@QAE_NK@Z 0045bcbe f   wxmswd:window.obj
 0001:0005adaa       ?HandleKillFocus@wxWindow@@QAE_NK@Z 0045bdaa f   wxmswd:window.obj
 0001:0005ae7e       ?HandleShow@wxWindow@@QAE_N_NH@Z 0045be7e f   wxmswd:window.obj
 0001:0005aed0       ?HandleInitDialog@wxWindow@@QAE_NK@Z 0045bed0 f   wxmswd:window.obj
 0001:0005af1e       ?HandleDropFiles@wxWindow@@QAE_NI@Z 0045bf1e f   wxmswd:window.obj
 0001:0005b06f       ?HandleSetCursor@wxWindow@@QAE_NKFH@Z 0045c06f f   wxmswd:window.obj
 0001:0005b210       ?MSWOnDrawItem@wxWindow@@UAE_NHPAPAX@Z 0045c210 f   wxmswd:window.obj
 0001:0005b356       ?MSWOnMeasureItem@wxWindow@@UAE_NHPAPAX@Z 0045c356 f   wxmswd:window.obj
 0001:0005b424       ?HandleSysColorChange@wxWindow@@QAE_NXZ 0045c424 f   wxmswd:window.obj
 0001:0005b46e       ?HandleDisplayChange@wxWindow@@QAE_NXZ 0045c46e f   wxmswd:window.obj
 0001:0005b4b7       ?HandleCtlColor@wxWindow@@QAE_NPAKKKIIIJ@Z 0045c4b7 f   wxmswd:window.obj
 0001:0005b555       ?OnCtlColor@wxWindow@@UAEKKKIIIJ@Z 0045c555 f   wxmswd:window.obj
 0001:0005b564       ?HandlePaletteChanged@wxWindow@@QAE_NK@Z 0045c564 f   wxmswd:window.obj
 0001:0005b6c1       ?HandleCaptureChanged@wxWindow@@QAE_NK@Z 0045c6c1 f   wxmswd:window.obj
 0001:0005b722       ?HandleQueryNewPalette@wxWindow@@QAE_NXZ 0045c722 f   wxmswd:window.obj
 0001:0005b88f       ?OnSysColourChanged@wxWindow@@QAEXAAVwxSysColourChangedEvent@@@Z 0045c88f f   wxmswd:window.obj
 0001:0005b994       ?wxGetStdColourMap@@YAPAUwxCOLORMAP@@XZ 0045c994 f   wxmswd:window.obj
 0001:0005bb6f       ?HandlePaint@wxWindow@@QAE_NXZ 0045cb6f f   wxmswd:window.obj
 0001:0005bcb7       ?OnPaint@wxWindow@@QAEXAAVwxPaintEvent@@@Z 0045ccb7 f   wxmswd:window.obj
 0001:0005bcf6       ?HandleEraseBkgnd@wxWindow@@QAE_NK@Z 0045ccf6 f   wxmswd:window.obj
 0001:0005bdfe       ?OnEraseBackground@wxWindow@@QAEXAAVwxEraseEvent@@@Z 0045cdfe f   wxmswd:window.obj
 0001:0005bf00       ?HandleMinimize@wxWindow@@QAE_NXZ 0045cf00 f   wxmswd:window.obj
 0001:0005bf52       ?HandleMaximize@wxWindow@@QAE_NXZ 0045cf52 f   wxmswd:window.obj
 0001:0005bfa2       ?HandleMove@wxWindow@@AAE_NHH@Z 0045cfa2 f   wxmswd:window.obj
 0001:0005c005       ?HandleSize@wxWindow@@QAE_NHHI@Z 0045d005 f   wxmswd:window.obj
 0001:0005c064       ?HandleGetMinMaxInfo@wxWindow@@QAE_NPAX@Z 0045d064 f   wxmswd:window.obj
 0001:0005c0fe       ?HandleCommand@wxWindow@@QAE_NGGK@Z 0045d0fe f   wxmswd:window.obj
 0001:0005c250       ?HandleSysCommand@wxWindow@@QAE_NIJ@Z 0045d250 f   wxmswd:window.obj
 0001:0005c291       ?InitMouseEvent@wxWindow@@QAEXAAVwxMouseEvent@@HHI@Z 0045d291 f   wxmswd:window.obj
 0001:0005c477       ?HandleMouseEvent@wxWindow@@QAE_NIHHI@Z 0045d477 f   wxmswd:window.obj
 0001:0005c56c       ?HandleMouseMove@wxWindow@@QAE_NHHI@Z 0045d56c f   wxmswd:window.obj
 0001:0005c637       ?HandleMouseWheel@wxWindow@@QAE_NIJ@Z 0045d637 f   wxmswd:window.obj
 0001:0005c721       ?CreateKeyEvent@wxWindow@@IBE?AVwxKeyEvent@@HHJI@Z 0045d721 f   wxmswd:window.obj
 0001:0005c7fc       ?HandleChar@wxWindow@@QAE_NIJ_N@Z 0045d7fc f   wxmswd:window.obj
 0001:0005c8fa       ?HandleKeyDown@wxWindow@@QAE_NIJ@Z 0045d8fa f   wxmswd:window.obj
 0001:0005c987       ?HandleKeyUp@wxWindow@@QAE_NIJ@Z 0045d987 f   wxmswd:window.obj
 0001:0005ca14       ?HandleJoystickEvent@wxWindow@@AAE_NIHHI@Z 0045da14 f   wxmswd:window.obj
 0001:0005cc5f       ?MSWOnScroll@wxWindow@@UAE_NHGGK@Z 0045dc5f f   wxmswd:window.obj
 0001:0005ce55       ?wxGetCharSize@@YAXKPAH0PBVwxFont@@@Z 0045de55 f   wxmswd:window.obj
 0001:0005cf00       ?wxCharCodeMSWToWX@@YAHH@Z 0045df00 f   wxmswd:window.obj
 0001:0005d4d8       ?wxCharCodeWXToMSW@@YAHHPA_N@Z 0045e4d8 f   wxmswd:window.obj
 0001:0005da1e       ?wxGetActiveWindow@@YAPAVwxWindow@@XZ 0045ea1e f   wxmswd:window.obj
 0001:0005da45       ?wxGetWindowFromHWND@@YAPAVwxWindow@@K@Z 0045ea45 f   wxmswd:window.obj
 0001:0005daf4       ?wxSetKeyboardHook@@YAX_N@Z 0045eaf4 f   wxmswd:window.obj
 0001:0005db3f       ?wxKeyboardHook@@YGHHGK@Z  0045eb3f f   wxmswd:window.obj
 0001:0005dc8c       ?wxGetMessageName@@YAPBDH@Z 0045ec8c f   wxmswd:window.obj
 0001:0005f7ba       ?wxFindWindowAtPointer@@YAPAVwxWindow@@AAVwxPoint@@@Z 004607ba f   wxmswd:window.obj
 0001:0005f7e9       ?wxFindWindowAtPoint@@YAPAVwxWindow@@ABVwxPoint@@@Z 004607e9 f   wxmswd:window.obj
 0001:0005f857       ?wxGetMousePosition@@YA?AVwxPoint@@XZ 00460857 f   wxmswd:window.obj
 0001:0005f890       ?wxCheckDynamicCast@@YAPAVwxObject@@PAV1@PAVwxClassInfo@@@Z 00460890 f i wxmswd:window.obj
 0001:0005f8d0       ?wxGetWindowRect@@YA?AUtagRECT@@PAUHWND__@@@Z 004608d0 f i wxmswd:window.obj
 0001:0005f940       ?GetScrollPosition@@YAHPAUHWND__@@H@Z 00460940 f i wxmswd:window.obj
 0001:0005f960       ??1wxArrayLong@@QAE@XZ     00460960 f i wxmswd:window.obj
 0001:0005f980       ?Index@wxArrayLong@@QBEHJ_N@Z 00460980 f i wxmswd:window.obj
 0001:0005f9a0       ?GetClassInfo@@YAHPAUHINSTANCE__@@PBDPAUtagWNDCLASSA@@@Z 004609a0 f i wxmswd:window.obj
 0001:0005f9c0       ?wxIsShiftDown@@YA_NXZ     004609c0 f i wxmswd:window.obj
 0001:0005f9e0       ?wxIsCtrlDown@@YA_NXZ      004609e0 f i wxmswd:window.obj
 0001:0005fa00       ?wxGetClientRect@@YA?AUtagRECT@@PAUHWND__@@@Z 00460a00 f i wxmswd:window.obj
 0001:0005fa70       ?Length@wxString@@QBEIXZ   00460a70 f i wxmswd:window.obj
 0001:0005fa90       ?Ok@wxFontBase@@QBE_NXZ    00460a90 f i wxmswd:window.obj
 0001:0005fab0       ?empty@wxString@@QBE_NXZ   00460ab0 f i wxmswd:window.obj
 0001:0005fad0       ?GetTip@wxToolTip@@QBEABVwxString@@XZ 00460ad0 f i wxmswd:window.obj
 0001:0005faf0       ??0wxRect@@QAE@HHHH@Z      00460af0 f i wxmswd:window.obj
 0001:0005fb30       ?wxColourToRGB@@YAKABVwxColour@@@Z 00460b30 f i wxmswd:window.obj
 0001:0005fb70       ?Ok@wxGDIImage@@QBE_NXZ    00460b70 f i wxmswd:window.obj
 0001:0005fb90       ?GetHandle@wxGDIImage@@QBEKXZ 00460b90 f i wxmswd:window.obj
 0001:0005fbd0       ?IsNull@wxGDIObject@@QBE_NXZ 00460bd0 f i wxmswd:window.obj
 0001:0005fbf0       ?GetGDIImageData@wxGDIImage@@QBEPAVwxGDIImageRefData@@XZ 00460bf0 f i wxmswd:window.obj
 0001:0005fc10       ?GetWidth@wxGDIImage@@QBEHXZ 00460c10 f i wxmswd:window.obj
 0001:0005fc50       ??1wxMemoryDC@@UAE@XZ      00460c50 f i wxmswd:window.obj
 0001:0005fc70       ?GetHCURSOR@wxCursor@@QBEKXZ 00460c70 f i wxmswd:window.obj
 0001:0005fc90       ??1wxKeyEvent@@UAE@XZ      00460c90 f i wxmswd:window.obj
 0001:0005fcb0       ?SetTimestamp@wxEvent@@QAEXJ@Z 00460cb0 f i wxmswd:window.obj
 0001:0005fcd0       ?SetId@wxEvent@@QAEXH@Z    00460cd0 f i wxmswd:window.obj
 0001:0005fcf0       ?SetInt@wxCommandEvent@@QAEXH@Z 00460cf0 f i wxmswd:window.obj
 0001:0005fd10       ?SetOrientation@wxScrollWinEvent@@QAEXH@Z 00460d10 f i wxmswd:window.obj
 0001:0005fd30       ?SetPosition@wxScrollWinEvent@@QAEXH@Z 00460d30 f i wxmswd:window.obj
 0001:0005fd50       ??1wxScrollWinEvent@@UAE@XZ 00460d50 f i wxmswd:window.obj
 0001:0005fd70       ??1wxMouseEvent@@UAE@XZ    00460d70 f i wxmswd:window.obj
 0001:0005fd90       ??0wxSetCursorEvent@@QAE@HH@Z 00460d90 f i wxmswd:window.obj
 0001:0005fde0       ?GetCursor@wxSetCursorEvent@@QBEABVwxCursor@@XZ 00460de0 f i wxmswd:window.obj
 0001:0005fe00       ?HasCursor@wxSetCursorEvent@@QBE_NXZ 00460e00 f i wxmswd:window.obj
 0001:0005fe20       ?Clone@wxSetCursorEvent@@UBEPAVwxEvent@@XZ 00460e20 f i wxmswd:window.obj
 0001:0005fe60       ??0wxSetCursorEvent@@QAE@ABV0@@Z 00460e60 f i wxmswd:window.obj
 0001:0005fec0       ??4wxCursor@@QAEAAV0@ABV0@@Z 00460ec0 f i wxmswd:window.obj
 0001:0005ff00       ??8wxCursor@@QBE_NABV0@@Z  00460f00 f i wxmswd:window.obj
 0001:0005ff20       ?GetClassInfo@wxSetCursorEvent@@UBEPAVwxClassInfo@@XZ 00460f20 f i wxmswd:window.obj
 0001:0005ff30       ??_EwxSetCursorEvent@@UAEPAXI@Z 00460f30 f i wxmswd:window.obj
 0001:0005ff30       ??_GwxSetCursorEvent@@UAEPAXI@Z 00460f30 f i wxmswd:window.obj
 0001:0005ff60       ??1wxSetCursorEvent@@UAE@XZ 00460f60 f i wxmswd:window.obj
 0001:0005ff80       ??0wxSizeEvent@@QAE@ABVwxSize@@H@Z 00460f80 f i wxmswd:window.obj
 0001:0005ffc0       ?Clone@wxSizeEvent@@UBEPAVwxEvent@@XZ 00460fc0 f i wxmswd:window.obj
 0001:00060000       ??0wxSizeEvent@@QAE@ABV0@@Z 00461000 f i wxmswd:window.obj
 0001:00060040       ?GetClassInfo@wxSizeEvent@@UBEPAVwxClassInfo@@XZ 00461040 f i wxmswd:window.obj
 0001:00060050       ??_GwxSizeEvent@@UAEPAXI@Z 00461050 f i wxmswd:window.obj
 0001:00060050       ??_EwxSizeEvent@@UAEPAXI@Z 00461050 f i wxmswd:window.obj
 0001:00060080       ??1wxSizeEvent@@UAE@XZ     00461080 f i wxmswd:window.obj
 0001:000600a0       ??0wxMoveEvent@@QAE@ABVwxPoint@@H@Z 004610a0 f i wxmswd:window.obj
 0001:000600e0       ?Clone@wxMoveEvent@@UBEPAVwxEvent@@XZ 004610e0 f i wxmswd:window.obj
 0001:00060120       ??0wxMoveEvent@@QAE@ABV0@@Z 00461120 f i wxmswd:window.obj
 0001:00060160       ?GetClassInfo@wxMoveEvent@@UBEPAVwxClassInfo@@XZ 00461160 f i wxmswd:window.obj
 0001:00060170       ??_GwxMoveEvent@@UAEPAXI@Z 00461170 f i wxmswd:window.obj
 0001:00060170       ??_EwxMoveEvent@@UAEPAXI@Z 00461170 f i wxmswd:window.obj
 0001:000601a0       ??1wxMoveEvent@@UAE@XZ     004611a0 f i wxmswd:window.obj
 0001:000601c0       ??0wxPaintEvent@@QAE@H@Z   004611c0 f i wxmswd:window.obj
 0001:00060200       ??1wxPaintEvent@@UAE@XZ    00461200 f i wxmswd:window.obj
 0001:00060230       ?Clone@wxPaintEvent@@UBEPAVwxEvent@@XZ 00461230 f i wxmswd:window.obj
 0001:00060270       ?GetClassInfo@wxPaintEvent@@UBEPAVwxClassInfo@@XZ 00461270 f i wxmswd:window.obj
 0001:00060280       ??_GwxPaintEvent@@UAEPAXI@Z 00461280 f i wxmswd:window.obj
 0001:00060280       ??_EwxPaintEvent@@UAEPAXI@Z 00461280 f i wxmswd:window.obj
 0001:000602b0       ??0wxPaintEvent@@QAE@ABV0@@Z 004612b0 f i wxmswd:window.obj
 0001:000602e0       ??0wxNcPaintEvent@@QAE@H@Z 004612e0 f i wxmswd:window.obj
 0001:00060310       ?Clone@wxNcPaintEvent@@UBEPAVwxEvent@@XZ 00461310 f i wxmswd:window.obj
 0001:00060350       ?GetClassInfo@wxNcPaintEvent@@UBEPAVwxClassInfo@@XZ 00461350 f i wxmswd:window.obj
 0001:00060360       ??_EwxNcPaintEvent@@UAEPAXI@Z 00461360 f i wxmswd:window.obj
 0001:00060360       ??_GwxNcPaintEvent@@UAEPAXI@Z 00461360 f i wxmswd:window.obj
 0001:00060390       ??0wxNcPaintEvent@@QAE@ABV0@@Z 00461390 f i wxmswd:window.obj
 0001:000603c0       ??1wxNcPaintEvent@@UAE@XZ  004613c0 f i wxmswd:window.obj
 0001:000603e0       ??0wxEraseEvent@@QAE@HPAVwxDC@@@Z 004613e0 f i wxmswd:window.obj
 0001:00060420       ?GetDC@wxEraseEvent@@QBEPAVwxDC@@XZ 00461420 f i wxmswd:window.obj
 0001:00060440       ?Clone@wxEraseEvent@@UBEPAVwxEvent@@XZ 00461440 f i wxmswd:window.obj
 0001:00060480       ??0wxEraseEvent@@QAE@ABV0@@Z 00461480 f i wxmswd:window.obj
 0001:000604c0       ?GetClassInfo@wxEraseEvent@@UBEPAVwxClassInfo@@XZ 004614c0 f i wxmswd:window.obj
 0001:000604d0       ??_GwxEraseEvent@@UAEPAXI@Z 004614d0 f i wxmswd:window.obj
 0001:000604d0       ??_EwxEraseEvent@@UAEPAXI@Z 004614d0 f i wxmswd:window.obj
 0001:00060500       ??1wxEraseEvent@@UAE@XZ    00461500 f i wxmswd:window.obj
 0001:00060520       ??0wxFocusEvent@@QAE@HH@Z  00461520 f i wxmswd:window.obj
 0001:00060560       ?SetWindow@wxFocusEvent@@QAEXPAVwxWindow@@@Z 00461560 f i wxmswd:window.obj
 0001:00060580       ?Clone@wxFocusEvent@@UBEPAVwxEvent@@XZ 00461580 f i wxmswd:window.obj
 0001:000605c0       ??0wxFocusEvent@@QAE@ABV0@@Z 004615c0 f i wxmswd:window.obj
 0001:00060600       ?GetClassInfo@wxFocusEvent@@UBEPAVwxClassInfo@@XZ 00461600 f i wxmswd:window.obj
 0001:00060610       ??_EwxFocusEvent@@UAEPAXI@Z 00461610 f i wxmswd:window.obj
 0001:00060610       ??_GwxFocusEvent@@UAEPAXI@Z 00461610 f i wxmswd:window.obj
 0001:00060640       ??1wxFocusEvent@@UAE@XZ    00461640 f i wxmswd:window.obj
 0001:00060660       ??1wxChildFocusEvent@@UAE@XZ 00461660 f i wxmswd:window.obj
 0001:00060680       ??0wxActivateEvent@@QAE@H_NH@Z 00461680 f i wxmswd:window.obj
 0001:000606c0       ?Clone@wxActivateEvent@@UBEPAVwxEvent@@XZ 004616c0 f i wxmswd:window.obj
 0001:00060700       ??0wxActivateEvent@@QAE@ABV0@@Z 00461700 f i wxmswd:window.obj
 0001:00060740       ?GetClassInfo@wxActivateEvent@@UBEPAVwxClassInfo@@XZ 00461740 f i wxmswd:window.obj
 0001:00060750       ??_EwxActivateEvent@@UAEPAXI@Z 00461750 f i wxmswd:window.obj
 0001:00060750       ??_GwxActivateEvent@@UAEPAXI@Z 00461750 f i wxmswd:window.obj
 0001:00060780       ??1wxActivateEvent@@UAE@XZ 00461780 f i wxmswd:window.obj
 0001:000607a0       ??0wxCloseEvent@@QAE@HH@Z  004617a0 f i wxmswd:window.obj
 0001:000607e0       ?SetLoggingOff@wxCloseEvent@@QAEX_N@Z 004617e0 f i wxmswd:window.obj
 0001:00060800       ?SetCanVeto@wxCloseEvent@@QAEX_N@Z 00461800 f i wxmswd:window.obj
 0001:00060820       ?GetVeto@wxCloseEvent@@QBE_NXZ 00461820 f i wxmswd:window.obj
 0001:00060860       ?Clone@wxCloseEvent@@UBEPAVwxEvent@@XZ 00461860 f i wxmswd:window.obj
 0001:000608a0       ??0wxCloseEvent@@QAE@ABV0@@Z 004618a0 f i wxmswd:window.obj
 0001:000608f0       ?GetClassInfo@wxCloseEvent@@UBEPAVwxClassInfo@@XZ 004618f0 f i wxmswd:window.obj
 0001:00060900       ??_GwxCloseEvent@@UAEPAXI@Z 00461900 f i wxmswd:window.obj
 0001:00060900       ??_EwxCloseEvent@@UAEPAXI@Z 00461900 f i wxmswd:window.obj
 0001:00060930       ??1wxCloseEvent@@UAE@XZ    00461930 f i wxmswd:window.obj
 0001:00060950       ??0wxShowEvent@@QAE@H_N@Z  00461950 f i wxmswd:window.obj
 0001:00060990       ?Clone@wxShowEvent@@UBEPAVwxEvent@@XZ 00461990 f i wxmswd:window.obj
 0001:000609d0       ??0wxShowEvent@@QAE@ABV0@@Z 004619d0 f i wxmswd:window.obj
 0001:00060a10       ?GetClassInfo@wxShowEvent@@UBEPAVwxClassInfo@@XZ 00461a10 f i wxmswd:window.obj
 0001:00060a20       ??_GwxShowEvent@@UAEPAXI@Z 00461a20 f i wxmswd:window.obj
 0001:00060a20       ??_EwxShowEvent@@UAEPAXI@Z 00461a20 f i wxmswd:window.obj
 0001:00060a50       ??1wxShowEvent@@UAE@XZ     00461a50 f i wxmswd:window.obj
 0001:00060a70       ??0wxIconizeEvent@@QAE@H_N@Z 00461a70 f i wxmswd:window.obj
 0001:00060ab0       ?Clone@wxIconizeEvent@@UBEPAVwxEvent@@XZ 00461ab0 f i wxmswd:window.obj
 0001:00060af0       ??0wxIconizeEvent@@QAE@ABV0@@Z 00461af0 f i wxmswd:window.obj
 0001:00060b30       ?GetClassInfo@wxIconizeEvent@@UBEPAVwxClassInfo@@XZ 00461b30 f i wxmswd:window.obj
 0001:00060b40       ??_GwxIconizeEvent@@UAEPAXI@Z 00461b40 f i wxmswd:window.obj
 0001:00060b40       ??_EwxIconizeEvent@@UAEPAXI@Z 00461b40 f i wxmswd:window.obj
 0001:00060b70       ??1wxIconizeEvent@@UAE@XZ  00461b70 f i wxmswd:window.obj
 0001:00060b90       ??0wxMaximizeEvent@@QAE@H@Z 00461b90 f i wxmswd:window.obj
 0001:00060bc0       ?Clone@wxMaximizeEvent@@UBEPAVwxEvent@@XZ 00461bc0 f i wxmswd:window.obj
 0001:00060c00       ?GetClassInfo@wxMaximizeEvent@@UBEPAVwxClassInfo@@XZ 00461c00 f i wxmswd:window.obj
 0001:00060c10       ??_EwxMaximizeEvent@@UAEPAXI@Z 00461c10 f i wxmswd:window.obj
 0001:00060c10       ??_GwxMaximizeEvent@@UAEPAXI@Z 00461c10 f i wxmswd:window.obj
 0001:00060c40       ??0wxMaximizeEvent@@QAE@ABV0@@Z 00461c40 f i wxmswd:window.obj
 0001:00060c70       ??1wxMaximizeEvent@@UAE@XZ 00461c70 f i wxmswd:window.obj
 0001:00060c90       ??0wxJoystickEvent@@QAE@HHHH@Z 00461c90 f i wxmswd:window.obj
 0001:00060cf0       ?SetPosition@wxJoystickEvent@@QAEXABVwxPoint@@@Z 00461cf0 f i wxmswd:window.obj
 0001:00060d10       ?Clone@wxJoystickEvent@@UBEPAVwxEvent@@XZ 00461d10 f i wxmswd:window.obj
 0001:00060d50       ??0wxJoystickEvent@@QAE@ABV0@@Z 00461d50 f i wxmswd:window.obj
 0001:00060dc0       ?GetClassInfo@wxJoystickEvent@@UBEPAVwxClassInfo@@XZ 00461dc0 f i wxmswd:window.obj
 0001:00060dd0       ??_GwxJoystickEvent@@UAEPAXI@Z 00461dd0 f i wxmswd:window.obj
 0001:00060dd0       ??_EwxJoystickEvent@@UAEPAXI@Z 00461dd0 f i wxmswd:window.obj
 0001:00060e00       ??1wxJoystickEvent@@UAE@XZ 00461e00 f i wxmswd:window.obj
 0001:00060e20       ??0wxDropFilesEvent@@QAE@HHPAVwxString@@@Z 00461e20 f i wxmswd:window.obj
 0001:00060e70       ??0wxPoint@@QAE@XZ         00461e70 f i wxmswd:window.obj
 0001:00060ea0       ??1wxDropFilesEvent@@UAE@XZ 00461ea0 f i wxmswd:window.obj
 0001:00060ef0       ?Clone@wxDropFilesEvent@@UBEPAVwxEvent@@XZ 00461ef0 f i wxmswd:window.obj
 0001:00060f30       ??0wxDropFilesEvent@@QAE@ABV0@@Z 00461f30 f i wxmswd:window.obj
 0001:00061020       ?GetClassInfo@wxDropFilesEvent@@UBEPAVwxClassInfo@@XZ 00462020 f i wxmswd:window.obj
 0001:00061030       ??_EwxDropFilesEvent@@UAEPAXI@Z 00462030 f i wxmswd:window.obj
 0001:00061030       ??_GwxDropFilesEvent@@UAEPAXI@Z 00462030 f i wxmswd:window.obj
 0001:00061060       ??0wxSysColourChangedEvent@@QAE@XZ 00462060 f i wxmswd:window.obj
 0001:00061090       ?Clone@wxSysColourChangedEvent@@UBEPAVwxEvent@@XZ 00462090 f i wxmswd:window.obj
 0001:000610d0       ?GetClassInfo@wxSysColourChangedEvent@@UBEPAVwxClassInfo@@XZ 004620d0 f i wxmswd:window.obj
 0001:000610e0       ??_GwxSysColourChangedEvent@@UAEPAXI@Z 004620e0 f i wxmswd:window.obj
 0001:000610e0       ??_EwxSysColourChangedEvent@@UAEPAXI@Z 004620e0 f i wxmswd:window.obj
 0001:00061110       ??0wxSysColourChangedEvent@@QAE@ABV0@@Z 00462110 f i wxmswd:window.obj
 0001:00061140       ??1wxSysColourChangedEvent@@UAE@XZ 00462140 f i wxmswd:window.obj
 0001:00061160       ??0wxMouseCaptureChangedEvent@@QAE@HPAVwxWindow@@@Z 00462160 f i wxmswd:window.obj
 0001:000611a0       ?Clone@wxMouseCaptureChangedEvent@@UBEPAVwxEvent@@XZ 004621a0 f i wxmswd:window.obj
 0001:000611e0       ??0wxMouseCaptureChangedEvent@@QAE@ABV0@@Z 004621e0 f i wxmswd:window.obj
 0001:00061220       ?GetClassInfo@wxMouseCaptureChangedEvent@@UBEPAVwxClassInfo@@XZ 00462220 f i wxmswd:window.obj
 0001:00061230       ??_GwxMouseCaptureChangedEvent@@UAEPAXI@Z 00462230 f i wxmswd:window.obj
 0001:00061230       ??_EwxMouseCaptureChangedEvent@@UAEPAXI@Z 00462230 f i wxmswd:window.obj
 0001:00061260       ??1wxMouseCaptureChangedEvent@@UAE@XZ 00462260 f i wxmswd:window.obj
 0001:00061280       ??0wxDisplayChangedEvent@@QAE@XZ 00462280 f i wxmswd:window.obj
 0001:000612b0       ?GetClassInfo@wxDisplayChangedEvent@@UBEPAVwxClassInfo@@XZ 004622b0 f i wxmswd:window.obj
 0001:000612c0       ?Clone@wxDisplayChangedEvent@@UBEPAVwxEvent@@XZ 004622c0 f i wxmswd:window.obj
 0001:00061300       ??_EwxDisplayChangedEvent@@UAEPAXI@Z 00462300 f i wxmswd:window.obj
 0001:00061300       ??_GwxDisplayChangedEvent@@UAEPAXI@Z 00462300 f i wxmswd:window.obj
 0001:00061330       ??0wxDisplayChangedEvent@@QAE@ABV0@@Z 00462330 f i wxmswd:window.obj
 0001:00061360       ??1wxDisplayChangedEvent@@UAE@XZ 00462360 f i wxmswd:window.obj
 0001:00061380       ??0wxPaletteChangedEvent@@QAE@H@Z 00462380 f i wxmswd:window.obj
 0001:000613c0       ?SetChangedWindow@wxPaletteChangedEvent@@QAEXPAVwxWindow@@@Z 004623c0 f i wxmswd:window.obj
 0001:000613e0       ?Clone@wxPaletteChangedEvent@@UBEPAVwxEvent@@XZ 004623e0 f i wxmswd:window.obj
 0001:00061420       ??0wxPaletteChangedEvent@@QAE@ABV0@@Z 00462420 f i wxmswd:window.obj
 0001:00061460       ?GetClassInfo@wxPaletteChangedEvent@@UBEPAVwxClassInfo@@XZ 00462460 f i wxmswd:window.obj
 0001:00061470       ??_GwxPaletteChangedEvent@@UAEPAXI@Z 00462470 f i wxmswd:window.obj
 0001:00061470       ??_EwxPaletteChangedEvent@@UAEPAXI@Z 00462470 f i wxmswd:window.obj
 0001:000614a0       ??1wxPaletteChangedEvent@@UAE@XZ 004624a0 f i wxmswd:window.obj
 0001:000614c0       ??0wxQueryNewPaletteEvent@@QAE@H@Z 004624c0 f i wxmswd:window.obj
 0001:00061500       ?GetPaletteRealized@wxQueryNewPaletteEvent@@QBE_NXZ 00462500 f i wxmswd:window.obj
 0001:00061520       ?Clone@wxQueryNewPaletteEvent@@UBEPAVwxEvent@@XZ 00462520 f i wxmswd:window.obj
 0001:00061560       ??0wxQueryNewPaletteEvent@@QAE@ABV0@@Z 00462560 f i wxmswd:window.obj
 0001:000615a0       ?GetClassInfo@wxQueryNewPaletteEvent@@UBEPAVwxClassInfo@@XZ 004625a0 f i wxmswd:window.obj
 0001:000615b0       ??_EwxQueryNewPaletteEvent@@UAEPAXI@Z 004625b0 f i wxmswd:window.obj
 0001:000615b0       ??_GwxQueryNewPaletteEvent@@UAEPAXI@Z 004625b0 f i wxmswd:window.obj
 0001:000615e0       ??1wxQueryNewPaletteEvent@@UAE@XZ 004625e0 f i wxmswd:window.obj
 0001:00061600       ??0wxNavigationKeyEvent@@QAE@XZ 00462600 f i wxmswd:window.obj
 0001:00061640       ?SetDirection@wxNavigationKeyEvent@@QAEX_N@Z 00462640 f i wxmswd:window.obj
 0001:00061680       ?SetWindowChange@wxNavigationKeyEvent@@QAEX_N@Z 00462680 f i wxmswd:window.obj
 0001:000616c0       ?Clone@wxNavigationKeyEvent@@UBEPAVwxEvent@@XZ 004626c0 f i wxmswd:window.obj
 0001:00061700       ??0wxNavigationKeyEvent@@QAE@ABV0@@Z 00462700 f i wxmswd:window.obj
 0001:00061740       ?GetClassInfo@wxNavigationKeyEvent@@UBEPAVwxClassInfo@@XZ 00462740 f i wxmswd:window.obj
 0001:00061750       ??_GwxNavigationKeyEvent@@UAEPAXI@Z 00462750 f i wxmswd:window.obj
 0001:00061750       ??_EwxNavigationKeyEvent@@UAEPAXI@Z 00462750 f i wxmswd:window.obj
 0001:00061780       ??1wxNavigationKeyEvent@@UAE@XZ 00462780 f i wxmswd:window.obj
 0001:000617a0       ??1wxWindowCreateEvent@@UAE@XZ 004627a0 f i wxmswd:window.obj
 0001:000617c0       ??1wxWindowDestroyEvent@@UAE@XZ 004627c0 f i wxmswd:window.obj
 0001:000617e0       ??0wxHelpEvent@@QAE@HHABVwxPoint@@@Z 004627e0 f i wxmswd:window.obj
 0001:00061830       ?Clone@wxHelpEvent@@UBEPAVwxEvent@@XZ 00462830 f i wxmswd:window.obj
 0001:00061870       ??0wxHelpEvent@@QAE@ABV0@@Z 00462870 f i wxmswd:window.obj
 0001:000618d0       ??0wxCommandEvent@@QAE@ABV0@@Z 004628d0 f i wxmswd:window.obj
 0001:00061940       ?Clone@wxCommandEvent@@UBEPAVwxEvent@@XZ 00462940 f i wxmswd:window.obj
 0001:00061980       ?GetClassInfo@wxCommandEvent@@UBEPAVwxClassInfo@@XZ 00462980 f i wxmswd:window.obj
 0001:00061990       ??_GwxCommandEvent@@UAEPAXI@Z 00462990 f i wxmswd:window.obj
 0001:00061990       ??_EwxCommandEvent@@UAEPAXI@Z 00462990 f i wxmswd:window.obj
 0001:000619c0       ?GetClassInfo@wxHelpEvent@@UBEPAVwxClassInfo@@XZ 004629c0 f i wxmswd:window.obj
 0001:000619d0       ??_GwxHelpEvent@@UAEPAXI@Z 004629d0 f i wxmswd:window.obj
 0001:000619d0       ??_EwxHelpEvent@@UAEPAXI@Z 004629d0 f i wxmswd:window.obj
 0001:00061a00       ??1wxHelpEvent@@UAE@XZ     00462a00 f i wxmswd:window.obj
 0001:00061a30       ??0wxContextMenuEvent@@QAE@HHABVwxPoint@@@Z 00462a30 f i wxmswd:window.obj
 0001:00061a70       ?Clone@wxContextMenuEvent@@UBEPAVwxEvent@@XZ 00462a70 f i wxmswd:window.obj
 0001:00061ab0       ??0wxContextMenuEvent@@QAE@ABV0@@Z 00462ab0 f i wxmswd:window.obj
 0001:00061af0       ?GetClassInfo@wxContextMenuEvent@@UBEPAVwxClassInfo@@XZ 00462af0 f i wxmswd:window.obj
 0001:00061b00       ??_GwxContextMenuEvent@@UAEPAXI@Z 00462b00 f i wxmswd:window.obj
 0001:00061b00       ??_EwxContextMenuEvent@@UAEPAXI@Z 00462b00 f i wxmswd:window.obj
 0001:00061b30       ??1wxContextMenuEvent@@UAE@XZ 00462b30 f i wxmswd:window.obj
 0001:00061b50       ??4wxRegion@@QAEAAV0@ABV0@@Z 00462b50 f i wxmswd:window.obj
 0001:00061b70       ?GetHPALETTE@wxPalette@@QBEKXZ 00462b70 f i wxmswd:window.obj
 0001:00061ba0       ?BeginDrawing@wxDCBase@@UAEXXZ 00462ba0 f i wxmswd:window.obj
 0001:00061bb0       ?EndDrawing@wxDCBase@@UAEXXZ 00462bb0 f i wxmswd:window.obj
 0001:00061bc0       ?GetPixel@wxDCBase@@QBE_NHHPAVwxColour@@@Z 00462bc0 f i wxmswd:window.obj
 0001:00061bf0       ?SetWindow@wxDC@@QAEXPAVwxWindow@@@Z 00462bf0 f i wxmswd:window.obj
 0001:00061c20       ?GetHDC@wxDC@@QBEKXZ       00462c20 f i wxmswd:window.obj
 0001:00061c40       ?SetHDC@wxDC@@QAEXK_N@Z    00462c40 f i wxmswd:window.obj
 0001:00061c80       ??0wxDCTemp@@QAE@K@Z       00462c80 f i wxmswd:window.obj
 0001:00061cb0       ?DrawObject@wxDCBase@@UAEXPAVwxDrawObject@@@Z 00462cb0 f i wxmswd:window.obj
 0001:00061d10       ?MinX@wxDrawObject@@QBEHXZ 00462d10 f i wxmswd:window.obj
 0001:00061d30       ?MaxX@wxDrawObject@@QBEHXZ 00462d30 f i wxmswd:window.obj
 0001:00061d50       ?MinY@wxDrawObject@@QBEHXZ 00462d50 f i wxmswd:window.obj
 0001:00061d70       ?MaxY@wxDrawObject@@QBEHXZ 00462d70 f i wxmswd:window.obj
 0001:00061d90       ?Ok@wxDCBase@@UBE_NXZ      00462d90 f i wxmswd:window.obj
 0001:00061db0       ?SetTextForeground@wxDCBase@@UAEXABVwxColour@@@Z 00462db0 f i wxmswd:window.obj
 0001:00061dd0       ?SetTextBackground@wxDCBase@@UAEXABVwxColour@@@Z 00462dd0 f i wxmswd:window.obj
 0001:00061df0       ?GetUserScale@wxDCBase@@UBEXPAN0@Z 00462df0 f i wxmswd:window.obj
 0001:00061e30       ?GetLogicalScale@wxDCBase@@UAEXPAN0@Z 00462e30 f i wxmswd:window.obj
 0001:00061e70       ?SetOptimization@wxDCBase@@UAEX_N@Z 00462e70 f i wxmswd:window.obj
 0001:00061e80       ?GetOptimization@wxDCBase@@UAE_NXZ 00462e80 f i wxmswd:window.obj
 0001:00061e90       ?CalcBoundingBox@wxDCBase@@UAEXHH@Z 00462e90 f i wxmswd:window.obj
 0001:00061f40       ?DoGetClippingBox@wxDCBase@@MBEXPAH000@Z 00462f40 f i wxmswd:window.obj
 0001:00061fe0       ?DoGetLogicalOrigin@wxDCBase@@MBEXPAH0@Z 00462fe0 f i wxmswd:window.obj
 0001:00062010       ?DoGetDeviceOrigin@wxDCBase@@MBEXPAH0@Z 00463010 f i wxmswd:window.obj
 0001:00062040       ?DoGetClippingRegion@wxDC@@MAEXPAH000@Z 00463040 f i wxmswd:window.obj
 0001:00062070       ?GetClippingBox@wxDCBase@@QBEXPAH000@Z 00463070 f i wxmswd:window.obj
 0001:000620a0       ?GetClassInfo@wxDC@@UBEPAVwxClassInfo@@XZ 004630a0 f i wxmswd:window.obj
 0001:000620b0       ??1wxDCTemp@@UAE@XZ        004630b0 f i wxmswd:window.obj
 0001:000620e0       ??_EwxDCTemp@@UAEPAXI@Z    004630e0 f i wxmswd:window.obj
 0001:000620e0       ??_GwxDCTemp@@UAEPAXI@Z    004630e0 f i wxmswd:window.obj
 0001:00062110       ?GetNext@wxWindowListNode@@QBEPAV1@XZ 00463110 f i wxmswd:window.obj
 0001:00062130       ?Append@wxWindowList@@QAEPAVwxWindowListNode@@PAVwxWindowBase@@@Z 00463130 f i wxmswd:window.obj
 0001:00062150       ?Find@wxWindowList@@QBEPAVwxWindowListNode@@PAVwxWindowBase@@@Z 00463150 f i wxmswd:window.obj
 0001:00062170       ?GetPosition@wxWindowBase@@QBEXPAH0@Z 00463170 f i wxmswd:window.obj
 0001:000621a0       ?GetSize@wxWindowBase@@QBE?AVwxSize@@XZ 004631a0 f i wxmswd:window.obj
 0001:000621f0       ?GetMaxWidth@wxWindowBase@@QBEHXZ 004631f0 f i wxmswd:window.obj
 0001:00062210       ?GetMaxHeight@wxWindowBase@@QBEHXZ 00463210 f i wxmswd:window.obj
 0001:00062230       ?Disable@wxWindowBase@@QAE_NXZ 00463230 f i wxmswd:window.obj
 0001:00062250       ?GetChildren@wxWindowBase@@QBEABVwxWindowList@@XZ 00463250 f i wxmswd:window.obj
 0001:00062270       ?GetChildren@wxWindowBase@@QAEAAVwxWindowList@@XZ 00463270 f i wxmswd:window.obj
 0001:00062290       ?GetBackgroundColour@wxWindowBase@@QBE?AVwxColour@@XZ 00463290 f i wxmswd:window.obj
 0001:000622c0       ?ClientToScreen@wxWindowBase@@QBEXPAH0@Z 004632c0 f i wxmswd:window.obj
 0001:000622f0       ?ScreenToClient@wxWindowBase@@QBEXPAH0@Z 004632f0 f i wxmswd:window.obj
 0001:00062320       ?HasCustomPalette@wxWindowBase@@QBE_NXZ 00463320 f i wxmswd:window.obj
 0001:00062340       ?Put@wxWinHashTable@@QAEXJPAVwxWindow@@@Z 00463340 f i wxmswd:window.obj
 0001:00062370       ?Get@wxWinHashTable@@QBEPAVwxWindow@@J@Z 00463370 f i wxmswd:window.obj
 0001:00062390       ?Get@wxWinHashTable@@QBEPAVwxWindow@@JJ@Z 00463390 f i wxmswd:window.obj
 0001:000623d0       ?Delete@wxWinHashTable@@QAEPAVwxWindow@@J@Z 004633d0 f i wxmswd:window.obj
 0001:000623f0       ?Delete@wxWinHashTable@@QAEPAVwxWindow@@JJ@Z 004633f0 f i wxmswd:window.obj
 0001:00062470       ?DoPut@wxWinHashTable@@IAEXJJPAVwxWindow@@@Z 00463470 f i wxmswd:window.obj
 0001:00062530       ?Append@wxWindowList@@QAEPAVwxWindowListNode@@JPAX@Z 00463530 f i wxmswd:window.obj
 0001:00062550       ?SetHWND@wxWindow@@QAEXK@Z 00463550 f i wxmswd:window.obj
 0001:00062570       ?IsOfStandardClass@wxWindow@@QBE_NXZ 00463570 f i wxmswd:window.obj
 0001:00062590       ?MSWGetCreateWindowFlags@wxWindow@@QBEKPAK@Z 00463590 f i wxmswd:window.obj
 0001:000625c0       ?GetWindowStyle@wxWindowBase@@QBEJXZ 004635c0 f i wxmswd:window.obj
 0001:000625e0       ?GetAuto3D@wxApp@@QBE_NXZ  004635e0 f i wxmswd:window.obj
 0001:00062600       ?SetLastFocus@wxTopLevelWindowMSW@@QAEXPAVwxWindow@@@Z 00463600 f i wxmswd:window.obj
 0001:00062620       ?GetLastFocus@wxTopLevelWindowMSW@@QBEPAVwxWindow@@XZ 00463620 f i wxmswd:window.obj
 0001:00062640       ?GetSubcontrols@wxControl@@QAE?AVwxArrayLong@@XZ 00463640 f i wxmswd:window.obj
 0001:00062670       ??0wxArrayLong@@QAE@ABV0@@Z 00463670 f i wxmswd:window.obj
 0001:00062690       ?SetInvokingWindow@wxMenuBase@@QAEXPAVwxWindow@@@Z 00463690 f i wxmswd:window.obj
 0001:000626b0       ?GetHMenu@wxMenu@@QBEKXZ   004636b0 f i wxmswd:window.obj
 0001:000626d0       ?GetSystemColour@wxSystemSettings@@SA?AVwxColour@@H@Z 004636d0 f i wxmswd:window.obj
 0001:00062807       ?wxConstructorForwxDialog@@YAPAVwxObject@@XZ 00463807 f   wxmswd:dialog.obj
 0001:000628b0       ?GetEventTable@wxDialog@@MBEPBUwxEventTable@@XZ 004638b0 f   wxmswd:dialog.obj
 0001:000629d5       ?Init@wxDialog@@IAEXXZ     004639d5 f   wxmswd:dialog.obj
 0001:00062a36       ?Create@wxDialog@@QAE_NPAVwxWindow@@HABVwxString@@ABVwxPoint@@ABVwxSize@@J1@Z 00463a36 f   wxmswd:dialog.obj
 0001:00062ad8       ?SetModal@wxDialog@@QAEX_N@Z 00463ad8 f   wxmswd:dialog.obj
 0001:00062b38       ??1wxDialog@@UAE@XZ        00463b38 f   wxmswd:dialog.obj
 0001:00062b73       ?OnCharHook@wxDialog@@QAEXAAVwxKeyEvent@@@Z 00463b73 f   wxmswd:dialog.obj
 0001:00062c0b       ?IsModal@wxDialog@@UBE_NXZ 00463c0b f   wxmswd:dialog.obj
 0001:00062c2d       ?IsModalShowing@wxDialog@@QBE_NXZ 00463c2d f   wxmswd:dialog.obj
 0001:00062c4c       ?FindSuitableParent@wxDialog@@IBEPAVwxWindow@@XZ 00463c4c f   wxmswd:dialog.obj
 0001:00062cc9       ?DoShowModal@wxDialog@@IAEXXZ 00463cc9 f   wxmswd:dialog.obj
 0001:00062ecd       ?Show@wxDialog@@UAE_N_N@Z  00463ecd f   wxmswd:dialog.obj
 0001:00062fef       ?ShowModal@wxDialog@@UAEHXZ 00463fef f   wxmswd:dialog.obj
 0001:00063030       ?EndModal@wxDialog@@UAEXH@Z 00464030 f   wxmswd:dialog.obj
 0001:00063056       ?OnOK@wxDialog@@QAEXAAVwxCommandEvent@@@Z 00464056 f   wxmswd:dialog.obj
 0001:000630a4       ?OnApply@wxDialog@@QAEXAAVwxCommandEvent@@@Z 004640a4 f   wxmswd:dialog.obj
 0001:000630d6       ?OnCancel@wxDialog@@QAEXAAVwxCommandEvent@@@Z 004640d6 f   wxmswd:dialog.obj
 0001:000630f6       ?OnCloseWindow@wxDialog@@QAEXAAVwxCloseEvent@@@Z 004640f6 f   wxmswd:dialog.obj
 0001:000631bc       ?OnSysColourChanged@wxDialog@@QAEXAAVwxSysColourChangedEvent@@@Z 004641bc f   wxmswd:dialog.obj
 0001:00063202       ?MSWWindowProc@wxDialog@@UAEJIIJ@Z 00464202 f   wxmswd:dialog.obj
 0001:00063340       ??_GwxWindowDisabler@@QAEPAXI@Z 00464340 f i wxmswd:dialog.obj
 0001:00063370       ?Member@wxList@@QBEPAVwxObjectListNode@@PAVwxObject@@@Z 00464370 f i wxmswd:dialog.obj
 0001:00063390       ?Find@wxObjectList@@QBEPAVwxObjectListNode@@PAVwxObject@@@Z 00464390 f i wxmswd:dialog.obj
 0001:000633b0       ??0wxCursor@@QAE@ABV0@@Z   004643b0 f i wxmswd:dialog.obj
 0001:000633e0       ?CreateData@wxCursor@@MBEPAVwxGDIImageRefData@@XZ 004643e0 f i wxmswd:dialog.obj
 0001:00063420       ?GetClassInfo@wxCursor@@UBEPAVwxClassInfo@@XZ 00464420 f i wxmswd:dialog.obj
 0001:00063430       ??_GwxCursor@@UAEPAXI@Z    00464430 f i wxmswd:dialog.obj
 0001:00063430       ??_EwxCursor@@UAEPAXI@Z    00464430 f i wxmswd:dialog.obj
 0001:00063460       ?DeleteObject@wxWindowList@@QAE_NPAVwxWindowBase@@@Z 00464460 f i wxmswd:dialog.obj
 0001:00063480       ?GetExtraStyle@wxWindowBase@@QBEJXZ 00464480 f i wxmswd:dialog.obj
 0001:000634a0       ?SetReturnCode@wxDialogBase@@QAEXH@Z 004644a0 f i wxmswd:dialog.obj
 0001:000634c0       ?GetReturnCode@wxDialogBase@@QBEHXZ 004644c0 f i wxmswd:dialog.obj
 0001:000634e0       ??0wxDialog@@QAE@XZ        004644e0 f i wxmswd:dialog.obj
 0001:0006357f       ??0wxAutoScrollTimer@@QAE@PAVwxWindow@@PAVwxScrollHelper@@HHH@Z 0046457f f   wxmswd:scrlwing.obj
 0001:000635cd       ?Notify@wxAutoScrollTimer@@UAEXXZ 004645cd f   wxmswd:scrlwing.obj
 0001:0006372e       ?ProcessEvent@wxScrollHelperEvtHandler@@UAE_NAAVwxEvent@@@Z 0046472e f   wxmswd:scrlwing.obj
 0001:000638cc       ??0wxScrollHelper@@QAE@PAVwxWindow@@@Z 004648cc f   wxmswd:scrlwing.obj
 0001:000639b4       ??1wxScrollHelper@@UAE@XZ  004649b4 f   wxmswd:scrlwing.obj
 0001:000639d8       ?SetScrollbars@wxScrollHelper@@UAEXHHHHHH_N@Z 004649d8 f   wxmswd:scrlwing.obj
 0001:00063b65       ?DeleteEvtHandler@wxScrollHelper@@IAEXXZ 00464b65 f   wxmswd:scrlwing.obj
 0001:00063bd7       ?SetWindow@wxScrollHelper@@QAEXPAVwxWindow@@@Z 00464bd7 f   wxmswd:scrlwing.obj
 0001:00063c2b       ?DoSetTargetWindow@wxScrollHelper@@IAEXPAVwxWindow@@@Z 00464c2b f   wxmswd:scrlwing.obj
 0001:00063c9f       ?SetTargetWindow@wxScrollHelper@@UAEXPAVwxWindow@@@Z 00464c9f f   wxmswd:scrlwing.obj
 0001:00063cf7       ?GetTargetWindow@wxScrollHelper@@UBEPAVwxWindow@@XZ 00464cf7 f   wxmswd:scrlwing.obj
 0001:00063d08       ?HandleOnScroll@wxScrollHelper@@QAEXAAVwxScrollWinEvent@@@Z 00464d08 f   wxmswd:scrlwing.obj
 0001:00063e5c       ?CalcScrollInc@wxScrollHelper@@UAEHAAVwxScrollWinEvent@@@Z 00464e5c f   wxmswd:scrlwing.obj
 0001:0006414a       ?AdjustScrollbars@wxScrollHelper@@UAEXXZ 0046514a f   wxmswd:scrlwing.obj
 0001:000644e7       ?DoPrepareDC@wxScrollHelper@@UAEXAAVwxDC@@@Z 004654e7 f   wxmswd:scrlwing.obj
 0001:00064565       ?SetScrollRate@wxScrollHelper@@QAEXHH@Z 00465565 f   wxmswd:scrlwing.obj
 0001:00064633       ?GetScrollPixelsPerUnit@wxScrollHelper@@UBEXPAH0@Z 00465633 f   wxmswd:scrlwing.obj
 0001:00064662       ?GetScrollPageSize@wxScrollHelper@@QBEHH@Z 00465662 f   wxmswd:scrlwing.obj
 0001:00064683       ?SetScrollPageSize@wxScrollHelper@@QAEXHH@Z 00465683 f   wxmswd:scrlwing.obj
 0001:000646aa       ?Scroll@wxScrollHelper@@UAEXHH@Z 004656aa f   wxmswd:scrlwing.obj
 0001:000648f6       ?EnableScrolling@wxScrollHelper@@UAEX_N0@Z 004658f6 f   wxmswd:scrlwing.obj
 0001:00064915       ?GetViewStart@wxScrollHelper@@UBEXPAH0@Z 00465915 f   wxmswd:scrlwing.obj
 0001:00064944       ?DoCalcScrolledPosition@wxScrollHelper@@UBEXHHPAH0@Z 00465944 f   wxmswd:scrlwing.obj
 0001:0006498b       ?DoCalcUnscrolledPosition@wxScrollHelper@@UBEXHHPAH0@Z 0046598b f   wxmswd:scrlwing.obj
 0001:000649d2       ?HandleOnSize@wxScrollHelper@@QAEXAAVwxSizeEvent@@@Z 004659d2 f   wxmswd:scrlwing.obj
 0001:00064a44       ?HandleOnPaint@wxScrollHelper@@QAEXAAVwxPaintEvent@@@Z 00465a44 f   wxmswd:scrlwing.obj
 0001:00064aa9       ?HandleOnChar@wxScrollHelper@@QAEXAAVwxKeyEvent@@@Z 00465aa9 f   wxmswd:scrlwing.obj
 0001:00064dd9       ?SendAutoScrollEvents@wxScrollHelper@@UBE_NAAVwxScrollWinEvent@@@Z 00465dd9 f   wxmswd:scrlwing.obj
 0001:00064e04       ?StopAutoScrolling@wxScrollHelper@@QAEXXZ 00465e04 f   wxmswd:scrlwing.obj
 0001:00064e52       ?HandleOnMouseEnter@wxScrollHelper@@QAEXAAVwxMouseEvent@@@Z 00465e52 f   wxmswd:scrlwing.obj
 0001:00064e71       ?HandleOnMouseLeave@wxScrollHelper@@QAEXAAVwxMouseEvent@@@Z 00465e71 f   wxmswd:scrlwing.obj
 0001:00064ff1       ?HandleOnMouseWheel@wxScrollHelper@@QAEXAAVwxMouseEvent@@@Z 00465ff1 f   wxmswd:scrlwing.obj
 0001:0006513c       ?wxConstructorForwxGenericScrolledWindow@@YAPAVwxObject@@XZ 0046613c f   wxmswd:scrlwing.obj
 0001:000651e5       ?GetEventTable@wxGenericScrolledWindow@@MBEPBUwxEventTable@@XZ 004661e5 f   wxmswd:scrlwing.obj
 0001:0006524c       ?Create@wxGenericScrolledWindow@@QAE_NPAVwxWindow@@HABVwxPoint@@ABVwxSize@@JABVwxString@@@Z 0046624c f   wxmswd:scrlwing.obj
 0001:0006528d       ??1wxGenericScrolledWindow@@UAE@XZ 0046628d f   wxmswd:scrlwing.obj
 0001:000652db       ?Layout@wxGenericScrolledWindow@@UAE_NXZ 004662db f   wxmswd:scrlwing.obj
 0001:00065357       ?DoSetVirtualSize@wxGenericScrolledWindow@@UAEXHH@Z 00466357 f   wxmswd:scrlwing.obj
 0001:000653a8       ?OnPaint@wxGenericScrolledWindow@@IAEXAAVwxPaintEvent@@@Z 004663a8 f   wxmswd:scrlwing.obj
 0001:000653cd       ?MSWWindowProc@wxGenericScrolledWindow@@MAEJIIJ@Z 004663cd f   wxmswd:scrlwing.obj
 0001:00065410       ??_EwxAutoScrollTimer@@UAEPAXI@Z 00466410 f i wxmswd:scrlwing.obj
 0001:00065410       ??_GwxAutoScrollTimer@@UAEPAXI@Z 00466410 f i wxmswd:scrlwing.obj
 0001:00065440       ??1wxAutoScrollTimer@@UAE@XZ 00466440 f i wxmswd:scrlwing.obj
 0001:00065460       ??_GwxScrollHelper@@UAEPAXI@Z 00466460 f i wxmswd:scrlwing.obj
 0001:00065460       ??_EwxScrollHelper@@UAEPAXI@Z 00466460 f i wxmswd:scrlwing.obj
 0001:00065490       ??0wxScrollHelperEvtHandler@@QAE@PAVwxScrollHelper@@@Z 00466490 f i wxmswd:scrlwing.obj
 0001:000654c0       ??_EwxScrollHelperEvtHandler@@UAEPAXI@Z 004664c0 f i wxmswd:scrlwing.obj
 0001:000654c0       ??_GwxScrollHelperEvtHandler@@UAEPAXI@Z 004664c0 f i wxmswd:scrlwing.obj
 0001:000654f0       ??1wxScrollHelperEvtHandler@@UAE@XZ 004664f0 f i wxmswd:scrlwing.obj
 0001:00065510       ?ResetDrawnFlag@wxScrollHelperEvtHandler@@QAEXXZ 00466510 f i wxmswd:scrlwing.obj
 0001:00065530       ?GetEventType@wxEvent@@QBEHXZ 00466530 f i wxmswd:scrlwing.obj
 0001:00065550       ?GetSkipped@wxEvent@@QBE_NXZ 00466550 f i wxmswd:scrlwing.obj
 0001:00065570       ?GetOrientation@wxScrollWinEvent@@QBEHXZ 00466570 f i wxmswd:scrlwing.obj
 0001:00065590       ?GetPosition@wxScrollWinEvent@@QBEHXZ 00466590 f i wxmswd:scrlwing.obj
 0001:000655b0       ?GetPosition@wxMouseEvent@@QBE?AVwxPoint@@XZ 004665b0 f i wxmswd:scrlwing.obj
 0001:000655f0       ?GetWheelRotation@wxMouseEvent@@QBEHXZ 004665f0 f i wxmswd:scrlwing.obj
 0001:00065610       ?GetWheelDelta@wxMouseEvent@@QBEHXZ 00466610 f i wxmswd:scrlwing.obj
 0001:00065630       ?GetLinesPerAction@wxMouseEvent@@QBEHXZ 00466630 f i wxmswd:scrlwing.obj
 0001:00065650       ?IsPageScroll@wxMouseEvent@@QBE_NXZ 00466650 f i wxmswd:scrlwing.obj
 0001:00065670       ?ControlDown@wxKeyEvent@@QBE_NXZ 00466670 f i wxmswd:scrlwing.obj
 0001:00065690       ?KeyCode@wxKeyEvent@@QBEJXZ 00466690 f i wxmswd:scrlwing.obj
 0001:000656b0       ?GetDeviceOrigin@wxDCBase@@QBE?AVwxPoint@@XZ 004666b0 f i wxmswd:scrlwing.obj
 0001:00065700       ?GetPosition@wxWindowBase@@QBE?AVwxPoint@@XZ 00466700 f i wxmswd:scrlwing.obj
 0001:00065750       ?SetVirtualSize@wxWindowBase@@QAEXHH@Z 00466750 f i wxmswd:scrlwing.obj
 0001:00065770       ?GetVirtualSize@wxWindowBase@@QBE?AVwxSize@@XZ 00466770 f i wxmswd:scrlwing.obj
 0001:000657a0       ?GetVirtualSize@wxWindowBase@@QBEXPAH0@Z 004667a0 f i wxmswd:scrlwing.obj
 0001:000657f0       ?HasScrollbar@wxWindowBase@@QBE_NH@Z 004667f0 f i wxmswd:scrlwing.obj
 0001:00065830       ?GetSizer@wxWindowBase@@QBEPAVwxSizer@@XZ 00466830 f i wxmswd:scrlwing.obj
 0001:00065850       ??0wxTimer@@QAE@XZ         00466850 f i wxmswd:scrlwing.obj
 0001:00065880       ??0wxTimerBase@@QAE@XZ     00466880 f i wxmswd:scrlwing.obj
 0001:000658c0       ?SetOwner@wxTimerBase@@QAEXPAVwxEvtHandler@@H@Z 004668c0 f i wxmswd:scrlwing.obj
 0001:000658e0       ?Init@wxTimerBase@@IAEXXZ  004668e0 f i wxmswd:scrlwing.obj
 0001:00065900       ??_GwxTimerBase@@UAEPAXI@Z 00466900 f i wxmswd:scrlwing.obj
 0001:00065900       ??_EwxTimerBase@@UAEPAXI@Z 00466900 f i wxmswd:scrlwing.obj
 0001:00065930       ?IsRunning@wxTimer@@UBE_NXZ 00466930 f i wxmswd:scrlwing.obj
 0001:00065950       ?GetClassInfo@wxTimer@@UBEPAVwxClassInfo@@XZ 00466950 f i wxmswd:scrlwing.obj
 0001:00065960       ??_GwxTimer@@UAEPAXI@Z     00466960 f i wxmswd:scrlwing.obj
 0001:00065960       ??_EwxTimer@@UAEPAXI@Z     00466960 f i wxmswd:scrlwing.obj
 0001:00065990       ?CalcScrolledPosition@wxScrollHelper@@QBEXHHPAH0@Z 00466990 f i wxmswd:scrlwing.obj
 0001:000659c0       ?CalcUnscrolledPosition@wxScrollHelper@@QBEXHHPAH0@Z 004669c0 f i wxmswd:scrlwing.obj
 0001:000659f0       ?GetRect@wxScrollHelper@@IBEPBVwxRect@@XZ 004669f0 f i wxmswd:scrlwing.obj
 0001:00065a20       ?GetTargetSize@wxScrollHelper@@IAEXPAH0@Z 00466a20 f i wxmswd:scrlwing.obj
 0001:00065a70       ?GetTargetSize@wxScrollHelper@@IBE?AVwxSize@@XZ 00466a70 f i wxmswd:scrlwing.obj
 0001:00065ad0       ?GetSize@wxRect@@QBE?AVwxSize@@XZ 00466ad0 f i wxmswd:scrlwing.obj
 0001:00065be6       ?wxConstructorForwxMDIParentFrame@@YAPAVwxObject@@XZ 00466be6 f   wxmswd:mdi.obj
 0001:00065c8f       ?wxConstructorForwxMDIChildFrame@@YAPAVwxObject@@XZ 00466c8f f   wxmswd:mdi.obj
 0001:00065d38       ?wxConstructorForwxMDIClientWindow@@YAPAVwxObject@@XZ 00466d38 f   wxmswd:mdi.obj
 0001:00065de1       ?GetEventTable@wxMDIParentFrame@@MBEPBUwxEventTable@@XZ 00466de1 f   wxmswd:mdi.obj
 0001:00065e6b       ?GetEventTable@wxMDIChildFrame@@MBEPBUwxEventTable@@XZ 00466e6b f   wxmswd:mdi.obj
 0001:00065ed2       ?GetEventTable@wxMDIClientWindow@@MBEPBUwxEventTable@@XZ 00466ed2 f   wxmswd:mdi.obj
 0001:00066060       ??0wxMDIParentFrame@@QAE@XZ 00467060 f   wxmswd:mdi.obj
 0001:000660b0       ?Create@wxMDIParentFrame@@QAE_NPAVwxWindow@@HABVwxString@@ABVwxPoint@@ABVwxSize@@J1@Z 004670b0 f   wxmswd:mdi.obj
 0001:00066413       ??1wxMDIParentFrame@@UAE@XZ 00467413 f   wxmswd:mdi.obj
 0001:00066533       ?InternalSetMenuBar@wxMDIParentFrame@@MAEXXZ 00467533 f   wxmswd:mdi.obj
 0001:000665a2       ?SetWindowMenu@wxMDIParentFrame@@QAEXPAVwxMenu@@@Z 004675a2 f   wxmswd:mdi.obj
 0001:00066676       ?OnSize@wxMDIParentFrame@@QAEXAAVwxSizeEvent@@@Z 00467676 f   wxmswd:mdi.obj
 0001:000666be       ?GetActiveChild@wxMDIParentFrame@@QBEPAVwxMDIChildFrame@@XZ 004676be f   wxmswd:mdi.obj
 0001:00066703       ?OnCreateClient@wxMDIParentFrame@@UAEPAVwxMDIClientWindow@@XZ 00467703 f   wxmswd:mdi.obj
 0001:0006673d       ?OnSysColourChanged@wxMDIParentFrame@@QAEXAAVwxSysColourChangedEvent@@@Z 0046773d f   wxmswd:mdi.obj
 0001:000667b1       ?GetDefaultIcon@wxMDIParentFrame@@MBEKXZ 004677b1 f   wxmswd:mdi.obj
 0001:000667dd       ?Cascade@wxMDIParentFrame@@UAEXXZ 004677dd f   wxmswd:mdi.obj
 0001:00066807       ?Tile@wxMDIParentFrame@@UAEXXZ 00467807 f   wxmswd:mdi.obj
 0001:00066831       ?ArrangeIcons@wxMDIParentFrame@@UAEXXZ 00467831 f   wxmswd:mdi.obj
 0001:0006685b       ?ActivateNext@wxMDIParentFrame@@UAEXXZ 0046785b f   wxmswd:mdi.obj
 0001:00066885       ?ActivatePrevious@wxMDIParentFrame@@UAEXXZ 00467885 f   wxmswd:mdi.obj
 0001:000668af       ?MSWWindowProc@wxMDIParentFrame@@UAEJIIJ@Z 004678af f   wxmswd:mdi.obj
 0001:00066ac3       ?HandleActivate@wxMDIParentFrame@@QAE_NH_NK@Z 00467ac3 f   wxmswd:mdi.obj
 0001:00066b79       ?HandleCommand@wxMDIParentFrame@@QAE_NGGK@Z 00467b79 f   wxmswd:mdi.obj
 0001:00066dea       ?MSWDefWindowProc@wxMDIParentFrame@@UAEJIIJ@Z 00467dea f   wxmswd:mdi.obj
 0001:00066e3f       ?MSWTranslateMessage@wxMDIParentFrame@@UAE_NPAPAX@Z 00467e3f f   wxmswd:mdi.obj
 0001:00066ef2       ?Init@wxMDIChildFrame@@IAEXXZ 00467ef2 f   wxmswd:mdi.obj
 0001:00066f07       ?Create@wxMDIChildFrame@@QAE_NPAVwxMDIParentFrame@@HABVwxString@@ABVwxPoint@@ABVwxSize@@J1@Z 00467f07 f   wxmswd:mdi.obj
 0001:00067142       ??1wxMDIChildFrame@@UAE@XZ 00468142 f   wxmswd:mdi.obj
 0001:0006719c       ?DoSetClientSize@wxMDIChildFrame@@MAEXHH@Z 0046819c f   wxmswd:mdi.obj
 0001:000672e1       ?DoGetPosition@wxMDIChildFrame@@MBEXPAH0@Z 004682e1 f   wxmswd:mdi.obj
 0001:00067344       ?InternalSetMenuBar@wxMDIChildFrame@@MAEXXZ 00468344 f   wxmswd:mdi.obj
 0001:0006738e       ?GetDefaultIcon@wxMDIChildFrame@@MBEKXZ 0046838e f   wxmswd:mdi.obj
 0001:000673ba       ?Maximize@wxMDIChildFrame@@UAEX_N@Z 004683ba f   wxmswd:mdi.obj
 0001:0006741c       ?Restore@wxMDIChildFrame@@UAEXXZ 0046841c f   wxmswd:mdi.obj
 0001:0006746c       ?Activate@wxMDIChildFrame@@UAEXXZ 0046846c f   wxmswd:mdi.obj
 0001:000674bc       ?MSWWindowProc@wxMDIChildFrame@@UAEJIIJ@Z 004684bc f   wxmswd:mdi.obj
 0001:00067624       ?HandleCommand@wxMDIChildFrame@@QAE_NGGK@Z 00468624 f   wxmswd:mdi.obj
 0001:0006770c       ?HandleMDIActivate@wxMDIChildFrame@@QAE_NJKK@Z 0046870c f   wxmswd:mdi.obj
 0001:0006786b       ?HandleWindowPosChanging@wxMDIChildFrame@@QAE_NPAX@Z 0046886b f   wxmswd:mdi.obj
 0001:0006797f       ?HandleGetMinMaxInfo@wxMDIChildFrame@@QAE_NPAX@Z 0046897f f   wxmswd:mdi.obj
 0001:000679f7       ?MSWDefWindowProc@wxMDIChildFrame@@UAEJIIJ@Z 004689f7 f   wxmswd:mdi.obj
 0001:00067a1f       ?MSWTranslateMessage@wxMDIChildFrame@@UAE_NPAPAX@Z 00468a1f f   wxmswd:mdi.obj
 0001:00067a38       ?MSWDestroyWindow@wxMDIChildFrame@@UAEXXZ 00468a38 f   wxmswd:mdi.obj
 0001:00067aeb       ?ResetWindowStyle@wxMDIChildFrame@@QAE_NPAX@Z 00468aeb f   wxmswd:mdi.obj
 0001:00067bf7       ?CreateClient@wxMDIClientWindow@@UAE_NPAVwxMDIParentFrame@@J@Z 00468bf7 f   wxmswd:mdi.obj
 0001:00067d4a       ?OnScroll@wxMDIClientWindow@@QAEXAAVwxScrollEvent@@@Z 00468d4a f   wxmswd:mdi.obj
 0001:00067d92       ?DoSetSize@wxMDIClientWindow@@UAEXHHHHH@Z 00468d92 f   wxmswd:mdi.obj
 0001:00067e72       ?OnIdle@wxMDIChildFrame@@QAEXAAVwxIdleEvent@@@Z 00468e72 f   wxmswd:mdi.obj
 0001:00068220       ?IsMdiCommandId@@YA_NH@Z   00469220 f i wxmswd:mdi.obj
 0001:00068250       ?GetOrientation@wxScrollEvent@@QBEHXZ 00469250 f i wxmswd:mdi.obj
 0001:00068270       ?GetPosition@wxScrollEvent@@QBEHXZ 00469270 f i wxmswd:mdi.obj
 0001:00068290       ?NewControlId@wxWindowBase@@SAHXZ 00469290 f i wxmswd:mdi.obj
 0001:000682b0       ?MSWGetOldWndProc@wxWindow@@QBEP6GHXZXZ 004692b0 f i wxmswd:mdi.obj
 0001:000682d0       ?GetWinMenu@wxFrame@@QBEKXZ 004692d0 f i wxmswd:mdi.obj
 0001:000682f0       ?GetWindowMenu@wxMDIParentFrame@@QBEPAVwxMenu@@XZ 004692f0 f i wxmswd:mdi.obj
 0001:00068310       ??0wxMDIChildFrame@@QAE@XZ 00469310 f i wxmswd:mdi.obj
 0001:00068340       ??0wxMDIClientWindow@@QAE@XZ 00469340 f i wxmswd:mdi.obj
 0001:00068370       ?Init@wxMDIClientWindow@@IAEXXZ 00469370 f i wxmswd:mdi.obj
 0001:000683a0       ?GetClassInfo@wxMDIClientWindow@@UBEPAVwxClassInfo@@XZ 004693a0 f i wxmswd:mdi.obj
 0001:000683b0       ??_GwxMDIClientWindow@@UAEPAXI@Z 004693b0 f i wxmswd:mdi.obj
 0001:000683b0       ??_EwxMDIClientWindow@@UAEPAXI@Z 004693b0 f i wxmswd:mdi.obj
 0001:000683e0       ??1wxMDIClientWindow@@UAE@XZ 004693e0 f i wxmswd:mdi.obj
 0001:000684d6       ??0wxAppBase@@QAE@XZ       004694d6 f   wxmswd:appcmn.obj
 0001:00068546       ??1wxAppBase@@UAE@XZ       00469546 f   wxmswd:appcmn.obj
 0001:00068583       ?OnInitGui@wxAppBase@@UAE_NXZ 00469583 f   wxmswd:appcmn.obj
 0001:00068590       ?OnRun@wxAppBase@@UAEHXZ   00469590 f   wxmswd:appcmn.obj
 0001:000685b9       ?OnExit@wxAppBase@@UAEHXZ  004695b9 f   wxmswd:appcmn.obj
 0001:0006862a       ?CreateLogTarget@wxAppBase@@UAEPAVwxLog@@XZ 0046962a f   wxmswd:appcmn.obj
 0001:00068661       ?CreateMessageOutput@wxAppBase@@UAEPAVwxMessageOutput@@XZ 00469661 f   wxmswd:appcmn.obj
 0001:00068698       ?ProcessPendingEvents@wxAppBase@@UAEXXZ 00469698 f   wxmswd:appcmn.obj
 0001:0006874b       ?SetActive@wxAppBase@@UAEX_NPAVwxWindow@@@Z 0046974b f   wxmswd:appcmn.obj
 0001:000687b0       ?FilterEvent@wxAppBase@@UAEHAAVwxEvent@@@Z 004697b0 f   wxmswd:appcmn.obj
 0001:000687c0       ?OnInit@wxAppBase@@UAE_NXZ 004697c0 f   wxmswd:appcmn.obj
 0001:00068874       ?OnInitCmdLine@wxAppBase@@UAEXAAVwxCmdLineParser@@@Z 00469874 f   wxmswd:appcmn.obj
 0001:0006888e       ?OnCmdLineParsed@wxAppBase@@UAE_NAAVwxCmdLineParser@@@Z 0046988e f   wxmswd:appcmn.obj
 0001:000688dc       ?OnCmdLineHelp@wxAppBase@@UAE_NAAVwxCmdLineParser@@@Z 004698dc f   wxmswd:appcmn.obj
 0001:000688f3       ?OnCmdLineError@wxAppBase@@UAE_NAAVwxCmdLineParser@@@Z 004698f3 f   wxmswd:appcmn.obj
 0001:0006890a       ?CheckBuildOptions@wxAppBase@@SA_NABVwxBuildOptions@@@Z 0046990a f   wxmswd:appcmn.obj
 0001:00068ada       ?wxAssertIsEqual@@YA_NHH@Z 00469ada f   wxmswd:appcmn.obj
 0001:00068aec       ?wxTrap@@YAXXZ             00469aec f   wxmswd:appcmn.obj
 0001:00068af7       ?wxAssert@@YAXHPBDH00@Z    00469af7 f   wxmswd:appcmn.obj
 0001:00068b1a       ?wxOnAssert@@YAXPBDH00@Z   00469b1a f   wxmswd:appcmn.obj
 0001:00068c73       ?OnAssert@wxAppBase@@UAEXPBDH00@Z 00469c73 f   wxmswd:appcmn.obj
 0001:00068ca0       ??_EwxAppBase@@UAEPAXI@Z   00469ca0 f i wxmswd:appcmn.obj
 0001:00068ca0       ??_GwxAppBase@@UAEPAXI@Z   00469ca0 f i wxmswd:appcmn.obj
 0001:00068cd0       ??0wxMessageOutputMessageBox@@QAE@XZ 00469cd0 f i wxmswd:appcmn.obj
 0001:00068cf0       ??0wxMessageOutput@@QAE@XZ 00469cf0 f i wxmswd:appcmn.obj
 0001:00068d10       ??_EwxMessageOutput@@UAEPAXI@Z 00469d10 f i wxmswd:appcmn.obj
 0001:00068d10       ??_GwxMessageOutput@@UAEPAXI@Z 00469d10 f i wxmswd:appcmn.obj
 0001:00068d40       ??1wxMessageOutput@@UAE@XZ 00469d40 f i wxmswd:appcmn.obj
 0001:00068d60       ??_GwxMessageOutputMessageBox@@UAEPAXI@Z 00469d60 f i wxmswd:appcmn.obj
 0001:00068d60       ??_EwxMessageOutputMessageBox@@UAEPAXI@Z 00469d60 f i wxmswd:appcmn.obj
 0001:00068d90       ??1wxMessageOutputMessageBox@@UAE@XZ 00469d90 f i wxmswd:appcmn.obj
 0001:00068db0       ??0wxCmdLineParser@@QAE@HPAPAD@Z 00469db0 f i wxmswd:appcmn.obj
 0001:00068de0       ?SetVerbose@wxLog@@SAX_N@Z 00469de0 f i wxmswd:appcmn.obj
 0001:00068df0       ?AddTraceMask@wxLog@@SAXABVwxString@@@Z 00469df0 f i wxmswd:appcmn.obj
 0001:00068e10       ?SetPrintMode@wxAppBase@@UAEXH@Z 00469e10 f i wxmswd:appcmn.obj
 0001:00068ef6       ??1wxMsgArray@@QAE@XZ      00469ef6 f   wxmswd:app.obj
 0001:00068f11       ?DoCopy@wxMsgArray@@AAEXABV1@@Z 00469f11 f   wxmswd:app.obj
 0001:00068f58       ??4wxMsgArray@@QAEAAV0@ABV0@@Z 00469f58 f   wxmswd:app.obj
 0001:00068f7c       ??0wxMsgArray@@QAE@ABV0@@Z 00469f7c f   wxmswd:app.obj
 0001:00068fa0       ?DoEmpty@wxMsgArray@@AAEXXZ 00469fa0 f   wxmswd:app.obj
 0001:00068feb       ?RemoveAt@wxMsgArray@@QAEXII@Z 00469feb f   wxmswd:app.obj
 0001:0006907c       ?Add@wxMsgArray@@QAEXABUtagMSG@@I@Z 0046a07c f   wxmswd:app.obj
 0001:0006914f       ?Insert@wxMsgArray@@QAEXABUtagMSG@@II@Z 0046a14f f   wxmswd:app.obj
 0001:0006921b       ?Index@wxMsgArray@@QBEHABUtagMSG@@_N@Z 0046a21b f   wxmswd:app.obj
 0001:000692b5       ?wxConstructorForwxApp@@YAPAVwxObject@@XZ 0046a2b5 f   wxmswd:app.obj
 0001:00069358       ?GetEventTable@wxApp@@MBEPBUwxEventTable@@XZ 0046a358 f   wxmswd:app.obj
 0001:00069405       ?Initialize@wxApp@@SA_NXZ  0046a405 f   wxmswd:app.obj
 0001:0006956c       ?RegisterWindowClasses@wxApp@@SA_NXZ 0046a56c f   wxmswd:app.obj
 0001:000697b3       ?UnregisterWindowClasses@wxApp@@SA_NXZ 0046a7b3 f   wxmswd:app.obj
 0001:0006998c       ?ConvertToStandardCommandArgs@wxApp@@QAEXPBD@Z 0046a98c f   wxmswd:app.obj
 0001:00069af0       ?CleanUp@wxApp@@SAXXZ      0046aaf0 f   wxmswd:app.obj
 0001:00069d77       ?wxEntryStart@@YAHHPAPAD@Z 0046ad77 f   wxmswd:app.obj
 0001:00069d86       ?wxEntryInitGui@@YAHXZ     0046ad86 f   wxmswd:app.obj
 0001:00069da0       ?wxEntryCleanup@@YAXXZ     0046ada0 f   wxmswd:app.obj
 0001:00069daa       ?wxEntry@@YAHPAX0PADH_N@Z  0046adaa f   wxmswd:app.obj
 0001:0006a072       ??0wxApp@@QAE@XZ           0046b072 f   wxmswd:app.obj
 0001:0006a0b6       ??1wxApp@@UAE@XZ           0046b0b6 f   wxmswd:app.obj
 0001:0006a123       ?Initialized@wxApp@@UAE_NXZ 0046b123 f   wxmswd:app.obj
 0001:0006a143       ?DoMessage@wxApp@@UAE_NXZ  0046b143 f   wxmswd:app.obj
 0001:0006a2e8       ?DoMessage@wxApp@@UAEXPAPAX@Z 0046b2e8 f   wxmswd:app.obj
 0001:0006a324       ?MainLoop@wxApp@@UAEHXZ    0046b324 f   wxmswd:app.obj
 0001:0006a386       ?ProcessIdle@wxApp@@UAE_NXZ 0046b386 f   wxmswd:app.obj
 0001:0006a3cc       ?ExitMainLoop@wxApp@@UAEXXZ 0046b3cc f   wxmswd:app.obj
 0001:0006a3df       ?Pending@wxApp@@UAE_NXZ    0046b3df f   wxmswd:app.obj
 0001:0006a403       ?Dispatch@wxApp@@UAEXXZ    0046b403 f   wxmswd:app.obj
 0001:0006a41c       ?ProcessMessage@wxApp@@UAE_NPAPAX@Z 0046b41c f   wxmswd:app.obj
 0001:0006a587       ?OnIdle@wxApp@@QAEXAAVwxIdleEvent@@@Z 0046b587 f   wxmswd:app.obj
 0001:0006a617       ?SendIdleEvents@wxApp@@QAE_NXZ 0046b617 f   wxmswd:app.obj
 0001:0006a66f       ?SendIdleEvents@wxApp@@QAE_NPAVwxWindow@@@Z 0046b66f f   wxmswd:app.obj
 0001:0006a71f       ?DeletePendingObjects@wxApp@@QAEXXZ 0046b71f f   wxmswd:app.obj
 0001:0006a7c7       ?OnEndSession@wxApp@@QAEXAAVwxCloseEvent@@@Z 0046b7c7 f   wxmswd:app.obj
 0001:0006a7f7       ?OnQueryEndSession@wxApp@@QAEXAAVwxCloseEvent@@@Z 0046b7f7 f   wxmswd:app.obj
 0001:0006a84b       ?GetComCtl32Version@wxApp@@SAHXZ 0046b84b f   wxmswd:app.obj
 0001:0006a9ae       ?wxExit@@YAXXZ             0046b9ae f   wxmswd:app.obj
 0001:0006a9d6       ?Yield@wxApp@@UAE_N_N@Z    0046b9d6 f   wxmswd:app.obj
 0001:0006aa96       ?wxHandleFatalExceptions@@YA_N_N@Z 0046ba96 f   wxmswd:app.obj
 0001:0006aaa5       ?wxWakeUpIdle@@YAXXZ       0046baa5 f   wxmswd:app.obj
 0001:0006ab10       ?Empty@wxMsgArray@@QAEXXZ  0046bb10 f i wxmswd:app.obj
 0001:0006ab30       ??AwxMsgArray@@QBEAAUtagMSG@@I@Z 0046bb30 f i wxmswd:app.obj
 0001:0006ab50       ?GetCount@wxArrayString@@QBEIXZ 0046bb50 f i wxmswd:app.obj
 0001:0006ab70       ??_EwxApp@@UAEPAXI@Z       0046bb70 f i wxmswd:app.obj
 0001:0006ab70       ??_GwxApp@@UAEPAXI@Z       0046bb70 f i wxmswd:app.obj
 0001:0006aba0       ?GetMessage@@YAHPAUtagMSG@@PAUHWND__@@II@Z 0046bba0 f i wxmswd:app.obj
 0001:0006abc0       ??0wxMsgArray@@QAE@XZ      0046bbc0 f i wxmswd:app.obj
 0001:0006abe0       ?FlushActive@wxLog@@SAXXZ  0046bbe0 f i wxmswd:app.obj
 0001:0006ac20       ?HasPendingMessages@wxLog@@QBE_NXZ 0046bc20 f i wxmswd:app.obj
 0001:0006ac40       ?Suspend@wxLog@@SAXXZ      0046bc40 f i wxmswd:app.obj
 0001:0006ac60       ?Resume@wxLog@@SAXXZ       0046bc60 f i wxmswd:app.obj
 0001:0006ac80       ?SetTimestamp@wxLog@@SAXPBD@Z 0046bc80 f i wxmswd:app.obj
 0001:0006ac90       ??0wxIdleEvent@@QAE@XZ     0046bc90 f i wxmswd:app.obj
 0001:0006acc0       ?RequestMore@wxIdleEvent@@QAEX_N@Z 0046bcc0 f i wxmswd:app.obj
 0001:0006ace0       ?MoreRequested@wxIdleEvent@@QBE_NXZ 0046bce0 f i wxmswd:app.obj
 0001:0006ad00       ?Clone@wxIdleEvent@@UBEPAVwxEvent@@XZ 0046bd00 f i wxmswd:app.obj
 0001:0006ad40       ??0wxIdleEvent@@QAE@ABV0@@Z 0046bd40 f i wxmswd:app.obj
 0001:0006ad80       ?GetClassInfo@wxIdleEvent@@UBEPAVwxClassInfo@@XZ 0046bd80 f i wxmswd:app.obj
 0001:0006ad90       ??_EwxIdleEvent@@UAEPAXI@Z 0046bd90 f i wxmswd:app.obj
 0001:0006ad90       ??_GwxIdleEvent@@UAEPAXI@Z 0046bd90 f i wxmswd:app.obj
 0001:0006adc0       ??1wxIdleEvent@@UAE@XZ     0046bdc0 f i wxmswd:app.obj
 0001:0006ade0       ?ClearEventLocker@wxEvtHandler@@QAEXXZ 0046bde0 f i wxmswd:app.obj
 0001:0006ae30       ?GetToolTip@wxWindowBase@@QBEPAVwxToolTip@@XZ 0046be30 f i wxmswd:app.obj
 0001:0006ae50       ??0wxWinHashTable@@QAE@W4wxKeyType@@I@Z 0046be50 f i wxmswd:app.obj
 0001:0006ae90       ??_EwxWinHashTable@@UAEPAXI@Z 0046be90 f i wxmswd:app.obj
 0001:0006ae90       ??_GwxWinHashTable@@UAEPAXI@Z 0046be90 f i wxmswd:app.obj
 0001:0006aec0       ??1wxWinHashTable@@UAE@XZ  0046bec0 f i wxmswd:app.obj
 0001:0006aef0       ??1wxHashTableBase@@UAE@XZ 0046bef0 f i wxmswd:app.obj
 0001:0006af10       ?GetAppName@wxAppBase@@QBE?AVwxString@@XZ 0046bf10 f i wxmswd:app.obj
 0001:0006af60       ?SetAppName@wxAppBase@@QAEXABVwxString@@@Z 0046bf60 f i wxmswd:app.obj
 0001:0006af80       ?GetInitializerFunction@wxAppBase@@SAP6APAVwxApp@@XZXZ 0046bf80 f i wxmswd:app.obj
 0001:0006af90       ?wxConstructorForwxEvtHandler@@YAPAVwxObject@@XZ 0046bf90 f   wxmswd:event.obj
 0001:0006b09f       ?wxConstructorForwxIdleEvent@@YAPAVwxObject@@XZ 0046c09f f   wxmswd:event.obj
 0001:0006b142       ?wxConstructorForwxCommandEvent@@YAPAVwxObject@@XZ 0046c142 f   wxmswd:event.obj
 0001:0006b1ed       ?wxConstructorForwxNotifyEvent@@YAPAVwxObject@@XZ 0046c1ed f   wxmswd:event.obj
 0001:0006b298       ?wxConstructorForwxScrollEvent@@YAPAVwxObject@@XZ 0046c298 f   wxmswd:event.obj
 0001:0006b347       ?wxConstructorForwxScrollWinEvent@@YAPAVwxObject@@XZ 0046c347 f   wxmswd:event.obj
 0001:0006b3f4       ?wxConstructorForwxMouseEvent@@YAPAVwxObject@@XZ 0046c3f4 f   wxmswd:event.obj
 0001:0006b49d       ?wxConstructorForwxKeyEvent@@YAPAVwxObject@@XZ 0046c49d f   wxmswd:event.obj
 0001:0006b546       ?wxConstructorForwxSizeEvent@@YAPAVwxObject@@XZ 0046c546 f   wxmswd:event.obj
 0001:0006b5e9       ?wxConstructorForwxPaintEvent@@YAPAVwxObject@@XZ 0046c5e9 f   wxmswd:event.obj
 0001:0006b68e       ?wxConstructorForwxNcPaintEvent@@YAPAVwxObject@@XZ 0046c68e f   wxmswd:event.obj
 0001:0006b733       ?wxConstructorForwxEraseEvent@@YAPAVwxObject@@XZ 0046c733 f   wxmswd:event.obj
 0001:0006b7da       ?wxConstructorForwxMoveEvent@@YAPAVwxObject@@XZ 0046c7da f   wxmswd:event.obj
 0001:0006b87d       ?wxConstructorForwxFocusEvent@@YAPAVwxObject@@XZ 0046c87d f   wxmswd:event.obj
 0001:0006b928       ?wxConstructorForwxChildFocusEvent@@YAPAVwxObject@@XZ 0046c928 f   wxmswd:event.obj
 0001:0006b9cd       ?wxConstructorForwxCloseEvent@@YAPAVwxObject@@XZ 0046c9cd f   wxmswd:event.obj
 0001:0006ba78       ?wxConstructorForwxShowEvent@@YAPAVwxObject@@XZ 0046ca78 f   wxmswd:event.obj
 0001:0006bb1f       ?wxConstructorForwxMaximizeEvent@@YAPAVwxObject@@XZ 0046cb1f f   wxmswd:event.obj
 0001:0006bbc4       ?wxConstructorForwxIconizeEvent@@YAPAVwxObject@@XZ 0046cbc4 f   wxmswd:event.obj
 0001:0006bc6b       ?wxConstructorForwxMenuEvent@@YAPAVwxObject@@XZ 0046cc6b f   wxmswd:event.obj
 0001:0006bd16       ?wxConstructorForwxJoystickEvent@@YAPAVwxObject@@XZ 0046cd16 f   wxmswd:event.obj
 0001:0006bdc5       ?wxConstructorForwxDropFilesEvent@@YAPAVwxObject@@XZ 0046cdc5 f   wxmswd:event.obj
 0001:0006be72       ?wxConstructorForwxActivateEvent@@YAPAVwxObject@@XZ 0046ce72 f   wxmswd:event.obj
 0001:0006bf1f       ?wxConstructorForwxInitDialogEvent@@YAPAVwxObject@@XZ 0046cf1f f   wxmswd:event.obj
 0001:0006bfc4       ?wxConstructorForwxSetCursorEvent@@YAPAVwxObject@@XZ 0046cfc4 f   wxmswd:event.obj
 0001:0006c06b       ?wxConstructorForwxSysColourChangedEvent@@YAPAVwxObject@@XZ 0046d06b f   wxmswd:event.obj
 0001:0006c10e       ?wxConstructorForwxDisplayChangedEvent@@YAPAVwxObject@@XZ 0046d10e f   wxmswd:event.obj
 0001:0006c1b1       ?wxConstructorForwxUpdateUIEvent@@YAPAVwxObject@@XZ 0046d1b1 f   wxmswd:event.obj
 0001:0006c256       ?wxConstructorForwxNavigationKeyEvent@@YAPAVwxObject@@XZ 0046d256 f   wxmswd:event.obj
 0001:0006c2f9       ?wxConstructorForwxPaletteChangedEvent@@YAPAVwxObject@@XZ 0046d2f9 f   wxmswd:event.obj
 0001:0006c39e       ?wxConstructorForwxQueryNewPaletteEvent@@YAPAVwxObject@@XZ 0046d39e f   wxmswd:event.obj
 0001:0006c443       ?wxConstructorForwxWindowCreateEvent@@YAPAVwxObject@@XZ 0046d443 f   wxmswd:event.obj
 0001:0006c4e8       ?wxConstructorForwxWindowDestroyEvent@@YAPAVwxObject@@XZ 0046d4e8 f   wxmswd:event.obj
 0001:0006c58d       ?wxConstructorForwxHelpEvent@@YAPAVwxObject@@XZ 0046d58d f   wxmswd:event.obj
 0001:0006c63d       ?wxConstructorForwxContextMenuEvent@@YAPAVwxObject@@XZ 0046d63d f   wxmswd:event.obj
 0001:0006c6ed       ?wxConstructorForwxMouseCaptureChangedEvent@@YAPAVwxObject@@XZ 0046d6ed f   wxmswd:event.obj
 0001:0006c794       ?GetEventTable@wxEvtHandler@@MBEPBUwxEventTable@@XZ 0046d794 f   wxmswd:event.obj
 0001:0006d345       ?wxNewEventType@@YAHXZ     0046e345 f   wxmswd:event.obj
 0001:0006d35e       ??0wxEvent@@QAE@HH@Z       0046e35e f   wxmswd:event.obj
 0001:0006d3bd       ??0wxEvent@@IAE@ABV0@@Z    0046e3bd f   wxmswd:event.obj
 0001:0006d432       ??0wxCommandEvent@@QAE@HH@Z 0046e432 f   wxmswd:event.obj
 0001:0006d4a7       ??0wxScrollEvent@@QAE@HHHH@Z 0046e4a7 f   wxmswd:event.obj
 0001:0006d4e2       ??0wxScrollWinEvent@@QAE@HHH@Z 0046e4e2 f   wxmswd:event.obj
 0001:0006d526       ??0wxMouseEvent@@QAE@H@Z   0046e526 f   wxmswd:event.obj
 0001:0006d5bb       ?Assign@wxMouseEvent@@IAEXABV1@@Z 0046e5bb f   wxmswd:event.obj
 0001:0006d664       ?ButtonDClick@wxMouseEvent@@QBE_NH@Z 0046e664 f   wxmswd:event.obj
 0001:0006d738       ?ButtonDown@wxMouseEvent@@QBE_NH@Z 0046e738 f   wxmswd:event.obj
 0001:0006d80c       ?ButtonUp@wxMouseEvent@@QBE_NH@Z 0046e80c f   wxmswd:event.obj
 0001:0006d8e0       ?Button@wxMouseEvent@@QBE_NH@Z 0046e8e0 f   wxmswd:event.obj
 0001:0006da7e       ?ButtonIsDown@wxMouseEvent@@QBE_NH@Z 0046ea7e f   wxmswd:event.obj
 0001:0006db52       ?GetButton@wxMouseEvent@@QBEHXZ 0046eb52 f   wxmswd:event.obj
 0001:0006db96       ?GetLogicalPosition@wxMouseEvent@@QBE?AVwxPoint@@ABVwxDC@@@Z 0046eb96 f   wxmswd:event.obj
 0001:0006dbde       ??0wxKeyEvent@@QAE@H@Z     0046ebde f   wxmswd:event.obj
 0001:0006dc3d       ??0wxKeyEvent@@QAE@ABV0@@Z 0046ec3d f   wxmswd:event.obj
 0001:0006dcda       ??0wxWindowCreateEvent@@QAE@PAVwxWindow@@@Z 0046ecda f   wxmswd:event.obj
 0001:0006dd1e       ??0wxWindowDestroyEvent@@QAE@PAVwxWindow@@@Z 0046ed1e f   wxmswd:event.obj
 0001:0006dd62       ??0wxChildFocusEvent@@QAE@PAVwxWindow@@@Z 0046ed62 f   wxmswd:event.obj
 0001:0006dd97       ??0wxEvtHandler@@QAE@XZ    0046ed97 f   wxmswd:event.obj
 0001:0006de32       ??1wxEvtHandler@@UAE@XZ    0046ee32 f   wxmswd:event.obj
 0001:0006dfbf       ?ProcessThreadEvent@wxEvtHandler@@QAE_NAAVwxEvent@@@Z 0046efbf f   wxmswd:event.obj
 0001:0006e006       ?AddPendingEvent@wxEvtHandler@@QAEXAAVwxEvent@@@Z 0046f006 f   wxmswd:event.obj
 0001:0006e11d       ?ProcessPendingEvents@wxEvtHandler@@QAEXXZ 0046f11d f   wxmswd:event.obj
 0001:0006e1f0       ?ProcessEvent@wxEvtHandler@@UAE_NAAVwxEvent@@@Z 0046f1f0 f   wxmswd:event.obj
 0001:0006e4bf       ?SearchEventTable@wxEvtHandler@@UAE_NAAUwxEventTable@@AAVwxEvent@@@Z 0046f4bf f   wxmswd:event.obj
 0001:0006e5a4       ?Connect@wxEvtHandler@@QAEXHHHP8wxObject@@AEXAAVwxEvent@@@ZPAV2@@Z 0046f5a4 f   wxmswd:event.obj
 0001:0006e63e       ?Disconnect@wxEvtHandler@@QAE_NHHHP8wxObject@@AEXAAVwxEvent@@@ZPAV2@@Z 0046f63e f   wxmswd:event.obj
 0001:0006e749       ?SearchDynamicEventTable@wxEvtHandler@@QAE_NAAVwxEvent@@@Z 0046f749 f   wxmswd:event.obj
 0001:0006e865       ?DoSetClientObject@wxEvtHandler@@MAEXPAVwxClientData@@@Z 0046f865 f   wxmswd:event.obj
 0001:0006e8e6       ?DoGetClientObject@wxEvtHandler@@MBEPAVwxClientData@@XZ 0046f8e6 f   wxmswd:event.obj
 0001:0006e920       ?DoSetClientData@wxEvtHandler@@MAEXPAX@Z 0046f920 f   wxmswd:event.obj
 0001:0006e969       ?DoGetClientData@wxEvtHandler@@MBEPAXXZ 0046f969 f   wxmswd:event.obj
 0001:0006e9a3       ?wxFindFocusDescendant@@YAPAVwxWindow@@PAV1@@Z 0046f9a3 f   wxmswd:event.obj
 0001:0006e9f0       ??_EwxEvent@@UAEPAXI@Z     0046f9f0 f i wxmswd:event.obj
 0001:0006e9f0       ??_GwxEvent@@UAEPAXI@Z     0046f9f0 f i wxmswd:event.obj
 0001:0006ea20       ??_EwxKeyEvent@@UAEPAXI@Z  0046fa20 f i wxmswd:event.obj
 0001:0006ea20       ??_GwxKeyEvent@@UAEPAXI@Z  0046fa20 f i wxmswd:event.obj
 0001:0006ea50       ??_EwxEvtHandler@@UAEPAXI@Z 0046fa50 f i wxmswd:event.obj
 0001:0006ea50       ??_GwxEvtHandler@@UAEPAXI@Z 0046fa50 f i wxmswd:event.obj
 0001:0006ea80       ?DeleteNode@wxObjectList@@QAE_NPAVwxObjectListNode@@@Z 0046fa80 f i wxmswd:event.obj
 0001:0006eaa0       ?SetEventType@wxEvent@@QAEXH@Z 0046faa0 f i wxmswd:event.obj
 0001:0006eac0       ?IsCommandEvent@wxEvent@@QBE_NXZ 0046fac0 f i wxmswd:event.obj
 0001:0006eae0       ?GetClassInfo@wxEvent@@UBEPAVwxClassInfo@@XZ 0046fae0 f i wxmswd:event.obj
 0001:0006eaf0       ??0wxNotifyEvent@@QAE@HH@Z 0046faf0 f i wxmswd:event.obj
 0001:0006eb20       ?Clone@wxNotifyEvent@@UBEPAVwxEvent@@XZ 0046fb20 f i wxmswd:event.obj
 0001:0006eb60       ??0wxNotifyEvent@@QAE@ABV0@@Z 0046fb60 f i wxmswd:event.obj
 0001:0006eba0       ?GetClassInfo@wxNotifyEvent@@UBEPAVwxClassInfo@@XZ 0046fba0 f i wxmswd:event.obj
 0001:0006ebb0       ??_GwxNotifyEvent@@UAEPAXI@Z 0046fbb0 f i wxmswd:event.obj
 0001:0006ebb0       ??_EwxNotifyEvent@@UAEPAXI@Z 0046fbb0 f i wxmswd:event.obj
 0001:0006ebe0       ??1wxNotifyEvent@@UAE@XZ   0046fbe0 f i wxmswd:event.obj
 0001:0006ec00       ?Clone@wxScrollEvent@@UBEPAVwxEvent@@XZ 0046fc00 f i wxmswd:event.obj
 0001:0006ec40       ?GetClassInfo@wxScrollEvent@@UBEPAVwxClassInfo@@XZ 0046fc40 f i wxmswd:event.obj
 0001:0006ec50       ??0wxScrollEvent@@QAE@ABV0@@Z 0046fc50 f i wxmswd:event.obj
 0001:0006ec80       ??_EwxScrollEvent@@UAEPAXI@Z 0046fc80 f i wxmswd:event.obj
 0001:0006ec80       ??_GwxScrollEvent@@UAEPAXI@Z 0046fc80 f i wxmswd:event.obj
 0001:0006ecb0       ??1wxScrollEvent@@UAE@XZ   0046fcb0 f i wxmswd:event.obj
 0001:0006ecd0       ?Clone@wxScrollWinEvent@@UBEPAVwxEvent@@XZ 0046fcd0 f i wxmswd:event.obj
 0001:0006ed10       ??0wxScrollWinEvent@@QAE@ABV0@@Z 0046fd10 f i wxmswd:event.obj
 0001:0006ed50       ?GetClassInfo@wxScrollWinEvent@@UBEPAVwxClassInfo@@XZ 0046fd50 f i wxmswd:event.obj
 0001:0006ed60       ??_EwxScrollWinEvent@@UAEPAXI@Z 0046fd60 f i wxmswd:event.obj
 0001:0006ed60       ??_GwxScrollWinEvent@@UAEPAXI@Z 0046fd60 f i wxmswd:event.obj
 0001:0006ed90       ?MiddleDown@wxMouseEvent@@QBE_NXZ 0046fd90 f i wxmswd:event.obj
 0001:0006edb0       ?RightDown@wxMouseEvent@@QBE_NXZ 0046fdb0 f i wxmswd:event.obj
 0001:0006edd0       ?LeftUp@wxMouseEvent@@QBE_NXZ 0046fdd0 f i wxmswd:event.obj
 0001:0006edf0       ?MiddleUp@wxMouseEvent@@QBE_NXZ 0046fdf0 f i wxmswd:event.obj
 0001:0006ee10       ?RightUp@wxMouseEvent@@QBE_NXZ 0046fe10 f i wxmswd:event.obj
 0001:0006ee30       ?LeftDClick@wxMouseEvent@@QBE_NXZ 0046fe30 f i wxmswd:event.obj
 0001:0006ee50       ?MiddleDClick@wxMouseEvent@@QBE_NXZ 0046fe50 f i wxmswd:event.obj
 0001:0006ee70       ?RightDClick@wxMouseEvent@@QBE_NXZ 0046fe70 f i wxmswd:event.obj
 0001:0006ee90       ?Clone@wxMouseEvent@@UBEPAVwxEvent@@XZ 0046fe90 f i wxmswd:event.obj
 0001:0006eed0       ??0wxMouseEvent@@QAE@ABV0@@Z 0046fed0 f i wxmswd:event.obj
 0001:0006ef10       ?GetClassInfo@wxMouseEvent@@UBEPAVwxClassInfo@@XZ 0046ff10 f i wxmswd:event.obj
 0001:0006ef20       ??_GwxMouseEvent@@UAEPAXI@Z 0046ff20 f i wxmswd:event.obj
 0001:0006ef20       ??_EwxMouseEvent@@UAEPAXI@Z 0046ff20 f i wxmswd:event.obj
 0001:0006ef50       ?Clone@wxKeyEvent@@UBEPAVwxEvent@@XZ 0046ff50 f i wxmswd:event.obj
 0001:0006ef90       ?GetClassInfo@wxKeyEvent@@UBEPAVwxClassInfo@@XZ 0046ff90 f i wxmswd:event.obj
 0001:0006efa0       ??0wxSizeEvent@@QAE@XZ     0046ffa0 f i wxmswd:event.obj
 0001:0006efe0       ??0wxMoveEvent@@QAE@XZ     0046ffe0 f i wxmswd:event.obj
 0001:0006f020       ?Clone@wxChildFocusEvent@@UBEPAVwxEvent@@XZ 00470020 f i wxmswd:event.obj
 0001:0006f060       ?GetClassInfo@wxChildFocusEvent@@UBEPAVwxClassInfo@@XZ 00470060 f i wxmswd:event.obj
 0001:0006f070       ??0wxChildFocusEvent@@QAE@ABV0@@Z 00470070 f i wxmswd:event.obj
 0001:0006f0a0       ??_GwxChildFocusEvent@@UAEPAXI@Z 004700a0 f i wxmswd:event.obj
 0001:0006f0a0       ??_EwxChildFocusEvent@@UAEPAXI@Z 004700a0 f i wxmswd:event.obj
 0001:0006f0d0       ??0wxMenuEvent@@QAE@HH@Z   004700d0 f i wxmswd:event.obj
 0001:0006f110       ?Clone@wxMenuEvent@@UBEPAVwxEvent@@XZ 00470110 f i wxmswd:event.obj
 0001:0006f150       ??0wxMenuEvent@@QAE@ABV0@@Z 00470150 f i wxmswd:event.obj
 0001:0006f190       ?GetClassInfo@wxMenuEvent@@UBEPAVwxClassInfo@@XZ 00470190 f i wxmswd:event.obj
 0001:0006f1a0       ??_GwxMenuEvent@@UAEPAXI@Z 004701a0 f i wxmswd:event.obj
 0001:0006f1a0       ??_EwxMenuEvent@@UAEPAXI@Z 004701a0 f i wxmswd:event.obj
 0001:0006f1d0       ??1wxMenuEvent@@UAE@XZ     004701d0 f i wxmswd:event.obj
 0001:0006f1f0       ??0wxUpdateUIEvent@@QAE@H@Z 004701f0 f i wxmswd:event.obj
 0001:0006f250       ?Clone@wxUpdateUIEvent@@UBEPAVwxEvent@@XZ 00470250 f i wxmswd:event.obj
 0001:0006f290       ??0wxUpdateUIEvent@@QAE@ABV0@@Z 00470290 f i wxmswd:event.obj
 0001:0006f310       ?GetClassInfo@wxUpdateUIEvent@@UBEPAVwxClassInfo@@XZ 00470310 f i wxmswd:event.obj
 0001:0006f320       ??_GwxUpdateUIEvent@@UAEPAXI@Z 00470320 f i wxmswd:event.obj
 0001:0006f320       ??_EwxUpdateUIEvent@@UAEPAXI@Z 00470320 f i wxmswd:event.obj
 0001:0006f350       ??1wxUpdateUIEvent@@UAE@XZ 00470350 f i wxmswd:event.obj
 0001:0006f370       ?Clone@wxWindowCreateEvent@@UBEPAVwxEvent@@XZ 00470370 f i wxmswd:event.obj
 0001:0006f3b0       ?GetClassInfo@wxWindowCreateEvent@@UBEPAVwxClassInfo@@XZ 004703b0 f i wxmswd:event.obj
 0001:0006f3c0       ??0wxWindowCreateEvent@@QAE@ABV0@@Z 004703c0 f i wxmswd:event.obj
 0001:0006f3f0       ??_GwxWindowCreateEvent@@UAEPAXI@Z 004703f0 f i wxmswd:event.obj
 0001:0006f3f0       ??_EwxWindowCreateEvent@@UAEPAXI@Z 004703f0 f i wxmswd:event.obj
 0001:0006f420       ?Clone@wxWindowDestroyEvent@@UBEPAVwxEvent@@XZ 00470420 f i wxmswd:event.obj
 0001:0006f460       ?GetClassInfo@wxWindowDestroyEvent@@UBEPAVwxClassInfo@@XZ 00470460 f i wxmswd:event.obj
 0001:0006f470       ??0wxWindowDestroyEvent@@QAE@ABV0@@Z 00470470 f i wxmswd:event.obj
 0001:0006f4a0       ??_EwxWindowDestroyEvent@@UAEPAXI@Z 004704a0 f i wxmswd:event.obj
 0001:0006f4a0       ??_GwxWindowDestroyEvent@@UAEPAXI@Z 004704a0 f i wxmswd:event.obj
 0001:0006f4d0       ??0wxDynamicEventTableEntry@@QAE@HHHP8wxObject@@AEXAAVwxEvent@@@ZPAV1@@Z 004704d0 f i wxmswd:event.obj
 0001:0006f510       ?GetNextHandler@wxEvtHandler@@QBEPAV1@XZ 00470510 f i wxmswd:event.obj
 0001:0006f530       ?GetEvtHandlerEnabled@wxEvtHandler@@QBE_NXZ 00470530 f i wxmswd:event.obj
 0001:0006f550       ?IsBeingDeleted@wxWindowBase@@QBE_NXZ 00470550 f i wxmswd:event.obj
 0001:0006f570       ?wxConstructorForwxTextUrlEvent@@YAPAVwxObject@@XZ 00470570 f   wxmswd:textcmn.obj
 0001:0006f677       ??0wxTextCtrlBase@@QAE@XZ  00470677 f   wxmswd:textcmn.obj
 0001:0006f6b2       ??1wxTextCtrlBase@@UAE@XZ  004706b2 f   wxmswd:textcmn.obj
 0001:0006f6ea       ?Combine@wxTextAttr@@SA?AV1@ABV1@0PBVwxTextCtrlBase@@@Z 004706ea f   wxmswd:textcmn.obj
 0001:0006f84c       ?SetStyle@wxTextCtrlBase@@UAE_NJJABVwxTextAttr@@@Z 0047084c f   wxmswd:textcmn.obj
 0001:0006f85b       ?SetDefaultStyle@wxTextCtrlBase@@UAE_NABVwxTextAttr@@@Z 0047085b f   wxmswd:textcmn.obj
 0001:0006f8c6       ?GetDefaultStyle@wxTextCtrlBase@@UBEABVwxTextAttr@@XZ 004708c6 f   wxmswd:textcmn.obj
 0001:0006f8d9       ?LoadFile@wxTextCtrlBase@@UAE_NABVwxString@@@Z 004708d9 f   wxmswd:textcmn.obj
 0001:0006f9a4       ?SaveFile@wxTextCtrlBase@@UAE_NABVwxString@@@Z 004709a4 f   wxmswd:textcmn.obj
 0001:0006fae0       ??6wxTextCtrlBase@@QAEAAVwxTextCtrl@@ABVwxString@@@Z 00470ae0 f   wxmswd:textcmn.obj
 0001:0006fb02       ??6wxTextCtrlBase@@QAEAAVwxTextCtrl@@M@Z 00470b02 f   wxmswd:textcmn.obj
 0001:0006fb56       ??6wxTextCtrlBase@@QAEAAVwxTextCtrl@@N@Z 00470b56 f   wxmswd:textcmn.obj
 0001:0006fba9       ??6wxTextCtrlBase@@QAEAAVwxTextCtrl@@H@Z 00470ba9 f   wxmswd:textcmn.obj
 0001:0006fbf8       ??6wxTextCtrlBase@@QAEAAVwxTextCtrl@@J@Z 00470bf8 f   wxmswd:textcmn.obj
 0001:0006fc47       ??6wxTextCtrlBase@@QAEAAVwxTextCtrl@@D@Z 00470c47 f   wxmswd:textcmn.obj
 0001:0006fc7b       ?CanCopy@wxTextCtrlBase@@UBE_NXZ 00470c7b f   wxmswd:textcmn.obj
 0001:0006fca9       ?CanCut@wxTextCtrlBase@@UBE_NXZ 00470ca9 f   wxmswd:textcmn.obj
 0001:0006fcf7       ?CanPaste@wxTextCtrlBase@@UBE_NXZ 00470cf7 f   wxmswd:textcmn.obj
 0001:0006fd10       ?EmulateKeyPress@wxTextCtrlBase@@UAE_NABVwxKeyEvent@@@Z 00470d10 f   wxmswd:textcmn.obj
 0001:0006fd1f       ?SelectAll@wxTextCtrlBase@@UAEXXZ 00470d1f f   wxmswd:textcmn.obj
 0001:0006fd49       ?GetStringSelection@wxTextCtrlBase@@UBE?AVwxString@@XZ 00470d49 f   wxmswd:textcmn.obj
 0001:0006fd8b       ?GetRange@wxTextCtrlBase@@UBE?AVwxString@@JJ@Z 00470d8b f   wxmswd:textcmn.obj
 0001:0006fe10       ??_EwxTextCtrlBase@@UAEPAXI@Z 00470e10 f i wxmswd:textcmn.obj
 0001:0006fe10       ??_GwxTextCtrlBase@@UAEPAXI@Z 00470e10 f i wxmswd:textcmn.obj
 0001:0006fe40       ??1wxTextAttr@@QAE@XZ      00470e40 f i wxmswd:textcmn.obj
 0001:0006fe70       ??4wxTextAttr@@QAEAAV0@ABV0@@Z 00470e70 f i wxmswd:textcmn.obj
 0001:0006feb0       ?IsOpened@wxFFile@@QBE_NXZ 00470eb0 f i wxmswd:textcmn.obj
 0001:0006fed0       ??1wxFFile@@QAE@XZ         00470ed0 f i wxmswd:textcmn.obj
 0001:0006fef0       ?Write@wxFFile@@QAE_NABVwxString@@AAVwxMBConv@@@Z 00470ef0 f i wxmswd:textcmn.obj
 0001:0006ff40       ?mb_str@wxString@@QBEPBDAAVwxMBConv@@@Z 00470f40 f i wxmswd:textcmn.obj
 0001:0006ff60       ?Ok@wxColour@@QBE_NXZ      00470f60 f i wxmswd:textcmn.obj
 0001:0006ff80       ?GetForegroundColour@wxWindowBase@@QBE?AVwxColour@@XZ 00470f80 f i wxmswd:textcmn.obj
 0001:0006ffb0       ?GetFont@wxWindowBase@@QBEABVwxFont@@XZ 00470fb0 f i wxmswd:textcmn.obj
 0001:0006ffd0       ??0wxTextAttr@@QAE@XZ      00470fd0 f i wxmswd:textcmn.obj
 0001:00070000       ??0wxTextAttr@@QAE@ABVwxColour@@0ABVwxFont@@@Z 00471000 f i wxmswd:textcmn.obj
 0001:00070040       ?GetTextColour@wxTextAttr@@QBEABVwxColour@@XZ 00471040 f i wxmswd:textcmn.obj
 0001:00070050       ?GetBackgroundColour@wxTextAttr@@QBEABVwxColour@@XZ 00471050 f i wxmswd:textcmn.obj
 0001:00070070       ?GetFont@wxTextAttr@@QBEABVwxFont@@XZ 00471070 f i wxmswd:textcmn.obj
 0001:00070090       ?IsDefault@wxTextAttr@@QBE_NXZ 00471090 f i wxmswd:textcmn.obj
 0001:000700f0       ?HasTextColour@wxTextAttr@@QBE_NXZ 004710f0 f i wxmswd:textcmn.obj
 0001:00070110       ?HasBackgroundColour@wxTextAttr@@QBE_NXZ 00471110 f i wxmswd:textcmn.obj
 0001:00070130       ?HasFont@wxTextAttr@@QBE_NXZ 00471130 f i wxmswd:textcmn.obj
 0001:00070150       ?SetMaxLength@wxTextCtrlBase@@UAEXK@Z 00471150 f i wxmswd:textcmn.obj
 0001:00070160       ??0wxTextUrlEvent@@QAE@XZ  00471160 f i wxmswd:textcmn.obj
 0001:000701b0       ?GetClassInfo@wxTextUrlEvent@@UBEPAVwxClassInfo@@XZ 004711b0 f i wxmswd:textcmn.obj
 0001:000701c0       ??_EwxTextUrlEvent@@UAEPAXI@Z 004711c0 f i wxmswd:textcmn.obj
 0001:000701c0       ??_GwxTextUrlEvent@@UAEPAXI@Z 004711c0 f i wxmswd:textcmn.obj
 0001:000701f0       ??1wxTextUrlEvent@@UAE@XZ  004711f0 f i wxmswd:textcmn.obj
 0001:00070510       ??0wxIcon@@QAE@XZ          00471510 f i wxmswd:data.obj
 0001:00070530       ?CreateData@wxIcon@@MBEPAVwxGDIImageRefData@@XZ 00471530 f i wxmswd:data.obj
 0001:00070570       ??0wxIconRefData@@QAE@XZ   00471570 f i wxmswd:data.obj
 0001:00070590       ??0wxGDIImageRefData@@QAE@XZ 00471590 f i wxmswd:data.obj
 0001:000705e0       ??_EwxGDIImageRefData@@UAEPAXI@Z 004715e0 f i wxmswd:data.obj
 0001:000705e0       ??_GwxGDIImageRefData@@UAEPAXI@Z 004715e0 f i wxmswd:data.obj
 0001:00070610       ??0wxGDIRefData@@QAE@XZ    00471610 f i wxmswd:data.obj
 0001:00070630       ??1wxGDIImageRefData@@UAE@XZ 00471630 f i wxmswd:data.obj
 0001:00070650       ??1wxGDIRefData@@UAE@XZ    00471650 f i wxmswd:data.obj
 0001:00070670       ??_GwxGDIRefData@@UAEPAXI@Z 00471670 f i wxmswd:data.obj
 0001:00070670       ??_EwxGDIRefData@@UAEPAXI@Z 00471670 f i wxmswd:data.obj
 0001:000706a0       ??_GwxIconRefData@@UAEPAXI@Z 004716a0 f i wxmswd:data.obj
 0001:000706a0       ??_EwxIconRefData@@UAEPAXI@Z 004716a0 f i wxmswd:data.obj
 0001:000706d0       ??1wxIconRefData@@UAE@XZ   004716d0 f i wxmswd:data.obj
 0001:00070700       ?GetClassInfo@wxIcon@@UBEPAVwxClassInfo@@XZ 00471700 f i wxmswd:data.obj
 0001:00070710       ??_GwxIcon@@UAEPAXI@Z      00471710 f i wxmswd:data.obj
 0001:00070710       ??_EwxIcon@@UAEPAXI@Z      00471710 f i wxmswd:data.obj
 0001:00070816       ?wxConstructorForwxMenu@@YAPAVwxObject@@XZ 00471816 f   wxmswd:menu.obj
 0001:000708bb       ?wxConstructorForwxMenuBar@@YAPAVwxObject@@XZ 004718bb f   wxmswd:menu.obj
 0001:00070964       ?Init@wxMenu@@AAEXXZ       00471964 f   wxmswd:menu.obj
 0001:00070a11       ??1wxMenu@@UAE@XZ          00471a11 f   wxmswd:menu.obj
 0001:00070aed       ?Break@wxMenu@@UAEXXZ      00471aed f   wxmswd:menu.obj
 0001:00070aff       ?Attach@wxMenu@@UAEXPAVwxMenuBarBase@@@Z 00471aff f   wxmswd:menu.obj
 0001:00070b20       ?FindAccel@wxMenu@@QBEHH@Z 00471b20 f   wxmswd:menu.obj
 0001:00070b7a       ?UpdateAccel@wxMenu@@QAEXPAVwxMenuItem@@@Z 00471b7a f   wxmswd:menu.obj
 0001:00070cbd       ?DoInsertOrAppend@wxMenu@@AAE_NPAVwxMenuItem@@I@Z 00471cbd f   wxmswd:menu.obj
 0001:00070f02       ?EndRadioGroup@wxMenu@@AAEXXZ 00471f02 f   wxmswd:menu.obj
 0001:00070f17       ?DoAppend@wxMenu@@UAE_NPAVwxMenuItem@@@Z 00471f17 f   wxmswd:menu.obj
 0001:00071070       ?DoInsert@wxMenu@@UAE_NIPAVwxMenuItem@@@Z 00472070 f   wxmswd:menu.obj
 0001:000710c4       ?DoRemove@wxMenu@@UAEPAVwxMenuItem@@PAV2@@Z 004720c4 f   wxmswd:menu.obj
 0001:00071225       ?CopyAccels@wxMenu@@QBEIPAVwxAcceleratorEntry@@@Z 00472225 f   wxmswd:menu.obj
 0001:00071287       ?SetTitle@wxMenu@@UAEXABVwxString@@@Z 00472287 f   wxmswd:menu.obj
 0001:0007143b       ?MSWCommand@wxMenu@@QAE_NIG@Z 0047243b f   wxmswd:menu.obj
 0001:0007148a       ?GetWindow@wxMenu@@QBEPAVwxWindow@@XZ 0047248a f   wxmswd:menu.obj
 0001:000714be       ?Init@wxMenuBar@@IAEXXZ    004724be f   wxmswd:menu.obj
 0001:000714df       ??0wxMenuBar@@QAE@XZ       004724df f   wxmswd:menu.obj
 0001:00071522       ??0wxMenuBar@@QAE@J@Z      00472522 f   wxmswd:menu.obj
 0001:00071567       ??0wxMenuBar@@QAE@HQAPAVwxMenu@@QBVwxString@@@Z 00472567 f   wxmswd:menu.obj
 0001:00071629       ??1wxMenuBar@@UAE@XZ       00472629 f   wxmswd:menu.obj
 0001:0007169b       ?Refresh@wxMenuBar@@QAEXXZ 0047269b f   wxmswd:menu.obj
 0001:000716f9       ?Create@wxMenuBar@@QAEKXZ  004726f9 f   wxmswd:menu.obj
 0001:00071823       ?EnableTop@wxMenuBar@@UAEXI_N@Z 00472823 f   wxmswd:menu.obj
 0001:000718a3       ?SetLabelTop@wxMenuBar@@UAEXIABVwxString@@@Z 004728a3 f   wxmswd:menu.obj
 0001:00071a13       ?GetLabelTop@wxMenuBar@@UBE?AVwxString@@I@Z 00472a13 f   wxmswd:menu.obj
 0001:00071a8b       ?Replace@wxMenuBar@@UAEPAVwxMenu@@IPAV2@ABVwxString@@@Z 00472a8b f   wxmswd:menu.obj
 0001:00071bd1       ?Insert@wxMenuBar@@UAE_NIPAVwxMenu@@ABVwxString@@@Z 00472bd1 f   wxmswd:menu.obj
 0001:00071cb1       ?Append@wxMenuBar@@UAE_NPAVwxMenu@@ABVwxString@@@Z 00472cb1 f   wxmswd:menu.obj
 0001:00071dd3       ?Remove@wxMenuBar@@UAEPAVwxMenu@@I@Z 00472dd3 f   wxmswd:menu.obj
 0001:00071e94       ?RebuildAccelTable@wxMenuBar@@QAEXXZ 00472e94 f   wxmswd:menu.obj
 0001:00071fca       ?Attach@wxMenuBar@@UAEXPAVwxFrame@@@Z 00472fca f   wxmswd:menu.obj
 0001:00071feb       ?Detach@wxMenuBar@@UAEXXZ  00472feb f   wxmswd:menu.obj
 0001:00072000       ??_GwxMenuBar@@UAEPAXI@Z   00473000 f i wxmswd:menu.obj
 0001:00072000       ??_EwxMenuBar@@UAEPAXI@Z   00473000 f i wxmswd:menu.obj
 0001:00072030       ??4wxAcceleratorEntry@@QAEAAV0@ABV0@@Z 00473030 f i wxmswd:menu.obj
 0001:00072070       ?GetId@wxMenuItemBase@@QBEHXZ 00473070 f i wxmswd:menu.obj
 0001:00072090       ?IsSeparator@wxMenuItemBase@@QBE_NXZ 00473090 f i wxmswd:menu.obj
 0001:000720b0       ?GetText@wxMenuItemBase@@QBEABVwxString@@XZ 004730b0 f i wxmswd:menu.obj
 0001:000720d0       ?GetKind@wxMenuItemBase@@QBE?AW4wxItemKind@@XZ 004730d0 f i wxmswd:menu.obj
 0001:000720f0       ?IsSubMenu@wxMenuItemBase@@QBE_NXZ 004730f0 f i wxmswd:menu.obj
 0001:00072110       ?GetSubMenu@wxMenuItemBase@@QBEPAVwxMenu@@XZ 00473110 f i wxmswd:menu.obj
 0001:00072130       ?IsOwnerDrawn@wxOwnerDrawn@@QBE_NXZ 00473130 f i wxmswd:menu.obj
 0001:00072150       ??AwxMenuList@@QBEPAVwxMenu@@I@Z 00473150 f i wxmswd:menu.obj
 0001:00072190       ?GetData@wxwxMenuListNode@@QBEPAVwxMenu@@XZ 00473190 f i wxmswd:menu.obj
 0001:000721b0       ?Item@wxMenuList@@QBEPAVwxwxMenuListNode@@I@Z 004731b0 f i wxmswd:menu.obj
 0001:000721d0       ?Append@wxMenuList@@QAEPAVwxwxMenuListNode@@PAVwxMenu@@@Z 004731d0 f i wxmswd:menu.obj
 0001:000721f0       ?GetNext@wxwxMenuItemListNode@@QBEPAV1@XZ 004731f0 f i wxmswd:menu.obj
 0001:00072210       ?GetData@wxwxMenuItemListNode@@QBEPAVwxMenuItem@@XZ 00473210 f i wxmswd:menu.obj
 0001:00072230       ?GetFirst@wxMenuItemList@@QBEPAVwxwxMenuItemListNode@@XZ 00473230 f i wxmswd:menu.obj
 0001:00072250       ?Item@wxMenuItemList@@QBEPAVwxwxMenuItemListNode@@I@Z 00473250 f i wxmswd:menu.obj
 0001:00072270       ?GetMenuItemCount@wxMenuBase@@QBEIXZ 00473270 f i wxmswd:menu.obj
 0001:00072290       ?GetMenuItems@wxMenuBase@@QAEAAVwxMenuItemList@@XZ 00473290 f i wxmswd:menu.obj
 0001:000722b0       ?IsAttached@wxMenuBase@@QBE_NXZ 004732b0 f i wxmswd:menu.obj
 0001:000722d0       ?SetParent@wxMenuBase@@QAEXPAVwxMenu@@@Z 004732d0 f i wxmswd:menu.obj
 0001:000722f0       ?GetParent@wxMenuBase@@QBEPAVwxMenu@@XZ 004732f0 f i wxmswd:menu.obj
 0001:00072310       ?GetMenuCount@wxMenuBarBase@@QBEIXZ 00473310 f i wxmswd:menu.obj
 0001:00072330       ?IsEnabledTop@wxMenuBarBase@@UBE_NI@Z 00473330 f i wxmswd:menu.obj
 0001:00072340       ?GetFrame@wxMenuBarBase@@QBEPAVwxFrame@@XZ 00473340 f i wxmswd:menu.obj
 0001:00072360       ?IsAttached@wxMenuBarBase@@QBE_NXZ 00473360 f i wxmswd:menu.obj
 0001:00072380       ?Enable@wxMenuBarBase@@UAE_N_N@Z 00473380 f i wxmswd:menu.obj
 0001:000723a0       ?SetLabel@wxMenuBarBase@@UAEXABVwxString@@@Z 004733a0 f i wxmswd:menu.obj
 0001:000723c0       ?GetLabel@wxMenuBarBase@@UBE?AVwxString@@XZ 004733c0 f i wxmswd:menu.obj
 0001:000723e0       ?AcceptsFocusFromKeyboard@wxMenuBarBase@@UBE_NXZ 004733e0 f i wxmswd:menu.obj
 0001:000723f0       ??AwxAcceleratorArray@@QBEAAPAVwxAcceleratorEntry@@I@Z 004733f0 f i wxmswd:menu.obj
 0001:00072410       ?Add@wxAcceleratorArray@@QAEXPAVwxAcceleratorEntry@@I@Z 00473410 f i wxmswd:menu.obj
 0001:00072430       ?RemoveAt@wxAcceleratorArray@@QAEXII@Z 00473430 f i wxmswd:menu.obj
 0001:00072450       ?HasAccels@wxMenu@@QBE_NXZ 00473450 f i wxmswd:menu.obj
 0001:00072470       ?IsEmpty@wxBaseArrayPtrVoid@@QBE_NXZ 00473470 f i wxmswd:menu.obj
 0001:00072490       ?GetAccelCount@wxMenu@@QBEIXZ 00473490 f i wxmswd:menu.obj
 0001:000724b0       ?GetHMenu@wxMenuBar@@QBEKXZ 004734b0 f i wxmswd:menu.obj
 0001:000724d0       ?GetClassInfo@wxMenuBar@@UBEPAVwxClassInfo@@XZ 004734d0 f i wxmswd:menu.obj
 0001:000725b6       ?wxConstructorForwxIcon@@YAPAVwxObject@@XZ 004735b6 f   wxmswd:icon.obj
 0001:00072659       ?Free@wxIconRefData@@UAEXXZ 00473659 f   wxmswd:icon.obj
 0001:00072684       ??0wxIcon@@QAE@QBDHH@Z     00473684 f   wxmswd:icon.obj
 0001:000726d1       ??0wxIcon@@QAE@ABVwxString@@JHH@Z 004736d1 f   wxmswd:icon.obj
 0001:0007270a       ??1wxIcon@@UAE@XZ          0047370a f   wxmswd:icon.obj
 0001:00072726       ?CopyFromBitmap@wxIcon@@QAEXABVwxBitmap@@@Z 00473726 f   wxmswd:icon.obj
 0001:0007291c       ?CreateIconFromXpm@wxIcon@@IAEXPAPBD@Z 0047391c f   wxmswd:icon.obj
 0001:0007294b       ?LoadFile@wxIcon@@UAE_NABVwxString@@JHH@Z 0047394b f   wxmswd:icon.obj
 0001:000729a0       ??0MemoryHDC@@QAE@XZ       004739a0 f i wxmswd:icon.obj
 0001:000729c0       ??1MemoryHDC@@QAE@XZ       004739c0 f i wxmswd:icon.obj
 0001:000729e0       ??BMemoryHDC@@QBEPAUHDC__@@XZ 004739e0 f i wxmswd:icon.obj
 0001:000729f0       ??0SelectInHDC@@QAE@PAUHDC__@@PAX@Z 004739f0 f i wxmswd:icon.obj
 0001:00072a20       ??1SelectInHDC@@QAE@XZ     00473a20 f i wxmswd:icon.obj
 0001:00072a40       ?GetHeight@wxGDIImage@@QBEHXZ 00473a40 f i wxmswd:icon.obj
 0001:00072a80       ?SetSize@wxGDIImage@@QAEXHH@Z 00473a80 f i wxmswd:icon.obj
 0001:00072ab0       ?SetSize@wxGDIImageRefData@@QAEXHH@Z 00473ab0 f i wxmswd:icon.obj
 0001:00072ad0       ?EnsureHasData@wxGDIImage@@QAEXXZ 00473ad0 f i wxmswd:icon.obj
 0001:00072b00       ??0wxBitmap@@QAE@PAPBD@Z   00473b00 f i wxmswd:icon.obj
 0001:00072b30       ?GetMask@wxBitmap@@QBEPAVwxMask@@XZ 00473b30 f i wxmswd:icon.obj
 0001:00072b70       ?GetBitmapData@wxBitmap@@QBEPAVwxBitmapRefData@@XZ 00473b70 f i wxmswd:icon.obj
 0001:00072b90       ?GetHBITMAP@wxBitmap@@QBEKXZ 00473b90 f i wxmswd:icon.obj
 0001:00072bb0       ?GetMaskBitmap@wxMask@@QBEKXZ 00473bb0 f i wxmswd:icon.obj
 0001:00072bd0       ?SetHICON@wxIcon@@QAEXK@Z  00473bd0 f i wxmswd:icon.obj
 0001:00072bf0       ?SetHandle@wxGDIImage@@QAEXK@Z 00473bf0 f i wxmswd:icon.obj
 0001:00072cf6       ?GetEventTable@wxFrame@@MBEPBUwxEventTable@@XZ 00473cf6 f   wxmswd:frame.obj
 0001:00072d5d       ?wxConstructorForwxFrame@@YAPAVwxObject@@XZ 00473d5d f   wxmswd:frame.obj
 0001:00072e06       ?Init@wxFrame@@IAEXXZ      00473e06 f   wxmswd:frame.obj
 0001:00072e4f       ?Create@wxFrame@@QAE_NPAVwxWindow@@HABVwxString@@ABVwxPoint@@ABVwxSize@@J1@Z 00473e4f f   wxmswd:frame.obj
 0001:00072ec4       ??1wxFrame@@UAE@XZ         00473ec4 f   wxmswd:frame.obj
 0001:00072efd       ?DoSetClientSize@wxFrame@@MAEXHH@Z 00473efd f   wxmswd:frame.obj
 0001:00072f85       ?DoGetClientSize@wxFrame@@MBEXPAH0@Z 00473f85 f   wxmswd:frame.obj
 0001:0007302b       ?Raise@wxFrame@@UAEXXZ     0047402b f   wxmswd:frame.obj
 0001:00073045       ?SendSizeEvent@wxFrame@@UAEXXZ 00474045 f   wxmswd:frame.obj
 0001:000730f3       ?OnCreateStatusBar@wxFrame@@UAEPAVwxStatusBar@@HJHABVwxString@@@Z 004740f3 f   wxmswd:frame.obj
 0001:000731e1       ?PositionStatusBar@wxFrame@@UAEXXZ 004741e1 f   wxmswd:frame.obj
 0001:00073257       ?AttachMenuBar@wxFrame@@MAEXPAVwxMenuBar@@@Z 00474257 f   wxmswd:frame.obj
 0001:0007330a       ?InternalSetMenuBar@wxFrame@@MAEXXZ 0047430a f   wxmswd:frame.obj
 0001:00073363       ?OnSysColourChanged@wxFrame@@QAEXAAVwxSysColourChangedEvent@@@Z 00474363 f   wxmswd:frame.obj
 0001:00073403       ?ShowFullScreen@wxFrame@@UAE_N_NJ@Z 00474403 f   wxmswd:frame.obj
 0001:000735ef       ?CreateToolBar@wxFrame@@UAEPAVwxToolBar@@JHABVwxString@@@Z 004745ef f   wxmswd:frame.obj
 0001:0007362b       ?PositionToolBar@wxFrame@@UAEXXZ 0047462b f   wxmswd:frame.obj
 0001:0007371c       ?IconizeChildFrames@wxFrame@@IAEX_N@Z 0047471c f   wxmswd:frame.obj
 0001:0007381a       ?GetDefaultIcon@wxFrame@@MBEKXZ 0047481a f   wxmswd:frame.obj
 0001:00073846       ?MSWTranslateMessage@wxFrame@@MAE_NPAPAX@Z 00474846 f   wxmswd:frame.obj
 0001:000738a4       ?HandlePaint@wxFrame@@QAE_NXZ 004748a4 f   wxmswd:frame.obj
 0001:000739c1       ?HandleSize@wxFrame@@QAE_NHHI@Z 004749c1 f   wxmswd:frame.obj
 0001:00073a82       ?HandleCommand@wxFrame@@QAE_NGGK@Z 00474a82 f   wxmswd:frame.obj
 0001:00073b3b       ?HandleMenuSelect@wxFrame@@QAE_NGGK@Z 00474b3b f   wxmswd:frame.obj
 0001:00073c10       ?HandleMenuLoop@wxFrame@@QAE_NABHG@Z 00474c10 f   wxmswd:frame.obj
 0001:00073c6e       ?MSWWindowProc@wxFrame@@MAEJIIJ@Z 00474c6e f   wxmswd:frame.obj
 0001:00073ec0       ??0wxStatusBarGeneric@@QAE@PAVwxWindow@@HJABVwxString@@@Z 00474ec0 f i wxmswd:frame.obj
 0001:00073f50       ?GetBorderX@wxStatusBarGeneric@@UBEHXZ 00474f50 f i wxmswd:frame.obj
 0001:00073f70       ?GetBorderY@wxStatusBarGeneric@@UBEHXZ 00474f70 f i wxmswd:frame.obj
 0001:00073f90       ?GetClassInfo@wxStatusBarGeneric@@UBEPAVwxClassInfo@@XZ 00474f90 f i wxmswd:frame.obj
 0001:00073fa0       ??_EwxStatusBarGeneric@@UAEPAXI@Z 00474fa0 f i wxmswd:frame.obj
 0001:00073fa0       ??_GwxStatusBarGeneric@@UAEPAXI@Z 00474fa0 f i wxmswd:frame.obj
 0001:00073fd0       ??0wxArrayInt@@QAE@XZ      00474fd0 f i wxmswd:frame.obj
 0001:00073ff0       ?GetHICON@wxIcon@@QBEKXZ   00474ff0 f i wxmswd:frame.obj
 0001:00074010       ?GetIcon@wxTopLevelWindowBase@@QBEABVwxIcon@@XZ 00475010 f i wxmswd:frame.obj
 0001:00074030       ?GetIcon@wxIconBundle@@QBEABVwxIcon@@H@Z 00475030 f i wxmswd:frame.obj
 0001:00074060       ?UsesNativeStatusBar@wxFrame@@SA_NXZ 00475060 f i wxmswd:frame.obj
 0001:00074070       ?GetAccelTable@wxMenuBar@@QBEABVwxAcceleratorTable@@XZ 00475070 f i wxmswd:frame.obj
 0001:00074090       ?AcceptsFocus@wxStatusBarBase@@UBE_NXZ 00475090 f i wxmswd:frame.obj
 0001:000740a0       ??0wxStatusBar@@QAE@PAVwxWindow@@HJABVwxString@@@Z 004750a0 f i wxmswd:frame.obj
 0001:000740e0       ?GetClassInfo@wxStatusBar@@UBEPAVwxClassInfo@@XZ 004750e0 f i wxmswd:frame.obj
 0001:000740f0       ??_EwxStatusBar@@UAEPAXI@Z 004750f0 f i wxmswd:frame.obj
 0001:000740f0       ??_GwxStatusBar@@UAEPAXI@Z 004750f0 f i wxmswd:frame.obj
 0001:00074120       ?GetEventTable@wxFrameBase@@MBEPBUwxEventTable@@XZ 00475120 f   wxmswd:framecmn.obj
 0001:000741aa       ??0wxFrameBase@@QAE@XZ     004751aa f   wxmswd:framecmn.obj
 0001:000741fd       ??1wxFrameBase@@UAE@XZ     004751fd f   wxmswd:framecmn.obj
 0001:00074219       ?New@wxFrameBase@@QAEPAVwxFrame@@PAVwxWindow@@HABVwxString@@ABVwxPoint@@ABVwxSize@@J1@Z 00475219 f   wxmswd:framecmn.obj
 0001:00074271       ?DeleteAllBars@wxFrameBase@@IAEXXZ 00475271 f   wxmswd:framecmn.obj
 0001:0007435c       ?IsOneOfBars@wxFrameBase@@MBE_NPBVwxWindow@@@Z 0047535c f   wxmswd:framecmn.obj
 0001:000743b0       ?GetClientAreaOrigin@wxFrameBase@@UBE?AVwxPoint@@XZ 004753b0 f   wxmswd:framecmn.obj
 0001:00074448       ?ProcessCommand@wxFrameBase@@QAE_NH@Z 00475448 f   wxmswd:framecmn.obj
 0001:00074530       ?OnMenuHighlight@wxFrameBase@@QAEXAAVwxMenuEvent@@@Z 00475530 f   wxmswd:framecmn.obj
 0001:0007455d       ?OnIdle@wxFrameBase@@QAEXAAVwxIdleEvent@@@Z 0047555d f   wxmswd:framecmn.obj
 0001:00074572       ?CreateStatusBar@wxFrameBase@@UAEPAVwxStatusBar@@HJHABVwxString@@@Z 00475572 f   wxmswd:framecmn.obj
 0001:00074604       ?OnCreateStatusBar@wxFrameBase@@UAEPAVwxStatusBar@@HJHABVwxString@@@Z 00475604 f   wxmswd:framecmn.obj
 0001:0007466a       ?SetStatusText@wxFrameBase@@UAEXABVwxString@@H@Z 0047566a f   wxmswd:framecmn.obj
 0001:000746d2       ?SetStatusWidths@wxFrameBase@@UAEXHQBH@Z 004756d2 f   wxmswd:framecmn.obj
 0001:00074748       ?PushStatusText@wxFrameBase@@QAEXABVwxString@@H@Z 00475748 f   wxmswd:framecmn.obj
 0001:000747a4       ?PopStatusText@wxFrameBase@@QAEXH@Z 004757a4 f   wxmswd:framecmn.obj
 0001:000747fc       ?DoGiveHelp@wxFrameBase@@UAEXABVwxString@@_N@Z 004757fc f   wxmswd:framecmn.obj
 0001:000748ab       ?ShowMenuHelp@wxFrameBase@@IAE_NPAVwxStatusBar@@H@Z 004758ab f   wxmswd:framecmn.obj
 0001:0007496c       ?CreateToolBar@wxFrameBase@@UAEPAVwxToolBar@@JHABVwxString@@@Z 0047596c f   wxmswd:framecmn.obj
 0001:000749e0       ?OnCreateToolBar@wxFrameBase@@UAEPAVwxToolBar@@JHABVwxString@@@Z 004759e0 f   wxmswd:framecmn.obj
 0001:00074a36       ?DoMenuUpdates@wxFrameBase@@QAEXXZ 00475a36 f   wxmswd:framecmn.obj
 0001:00074aa9       ?DoMenuUpdates@wxFrameBase@@QAEXPAVwxMenu@@PAVwxWindow@@@Z 00475aa9 f   wxmswd:framecmn.obj
 0001:00074c08       ?DetachMenuBar@wxFrameBase@@MAEXXZ 00475c08 f   wxmswd:framecmn.obj
 0001:00074c46       ?AttachMenuBar@wxFrameBase@@MAEXPAVwxMenuBar@@@Z 00475c46 f   wxmswd:framecmn.obj
 0001:00074c77       ?SetMenuBar@wxFrameBase@@UAEXPAVwxMenuBar@@@Z 00475c77 f   wxmswd:framecmn.obj
 0001:00074cc0       ??_EwxFrameBase@@UAEPAXI@Z 00475cc0 f i wxmswd:framecmn.obj
 0001:00074cc0       ??_GwxFrameBase@@UAEPAXI@Z 00475cc0 f i wxmswd:framecmn.obj
 0001:00074cf0       ?GetMenuId@wxMenuEvent@@QBEHXZ 00475cf0 f i wxmswd:framecmn.obj
 0001:00074d10       ?GetChecked@wxUpdateUIEvent@@QBE_NXZ 00475d10 f i wxmswd:framecmn.obj
 0001:00074d30       ?GetEnabled@wxUpdateUIEvent@@QBE_NXZ 00475d30 f i wxmswd:framecmn.obj
 0001:00074d50       ?GetText@wxUpdateUIEvent@@QBE?AVwxString@@XZ 00475d50 f i wxmswd:framecmn.obj
 0001:00074d70       ?GetSetText@wxUpdateUIEvent@@QBE_NXZ 00475d70 f i wxmswd:framecmn.obj
 0001:00074d90       ?GetSetChecked@wxUpdateUIEvent@@QBE_NXZ 00475d90 f i wxmswd:framecmn.obj
 0001:00074db0       ?GetSetEnabled@wxUpdateUIEvent@@QBE_NXZ 00475db0 f i wxmswd:framecmn.obj
 0001:00074dd0       ?SendSizeEvent@wxFrameBase@@UAEXXZ 00475dd0 f i wxmswd:framecmn.obj
 0001:00074de0       ?PositionStatusBar@wxFrameBase@@MAEXXZ 00475de0 f i wxmswd:framecmn.obj
 0001:00074df0       ?PositionToolBar@wxFrameBase@@MAEXXZ 00475df0 f i wxmswd:framecmn.obj
 0001:00074e00       ??0wxFrame@@QAE@PAVwxWindow@@HABVwxString@@ABVwxPoint@@ABVwxSize@@J1@Z 00475e00 f i wxmswd:framecmn.obj
 0001:00074e50       ?Toggle@wxMenuItemBase@@QAEXXZ 00475e50 f i wxmswd:framecmn.obj
 0001:00074e80       ?GetHelp@wxMenuItemBase@@QBEABVwxString@@XZ 00475e80 f i wxmswd:framecmn.obj
 0001:00074ea0       ?IsCheckable@wxMenuItem@@QBE_NXZ 00475ea0 f i wxmswd:framecmn.obj
 0001:00074ec0       ?IsCheckable@wxMenuItemBase@@QBE_NXZ 00475ec0 f i wxmswd:framecmn.obj
 0001:00074f00       ??0wxToolBar@@QAE@PAVwxWindow@@HABVwxPoint@@ABVwxSize@@JABVwxString@@@Z 00475f00 f i wxmswd:framecmn.obj
 0001:00074f50       ?SetToolPacking@wxToolBarBase@@UAEXH@Z 00475f50 f i wxmswd:framecmn.obj
 0001:00074f70       ?SetToolSeparation@wxToolBarBase@@UAEXH@Z 00475f70 f i wxmswd:framecmn.obj
 0001:00074f90       ?GetToolMargins@wxToolBarBase@@UBE?AVwxSize@@XZ 00475f90 f i wxmswd:framecmn.obj
 0001:00074fd0       ?GetToolPacking@wxToolBarBase@@UBEHXZ 00475fd0 f i wxmswd:framecmn.obj
 0001:00074ff0       ?GetToolSeparation@wxToolBarBase@@UBEHXZ 00475ff0 f i wxmswd:framecmn.obj
 0001:00075010       ?GetToolBitmapSize@wxToolBarBase@@UBE?AVwxSize@@XZ 00476010 f i wxmswd:framecmn.obj
 0001:00075050       ?AcceptsFocus@wxToolBarBase@@UBE_NXZ 00476050 f i wxmswd:framecmn.obj
 0001:00075060       ?SetFocus@wxToolBar@@UAEXXZ 00476060 f i wxmswd:framecmn.obj
 0001:00075070       ?GetClassInfo@wxToolBar@@UBEPAVwxClassInfo@@XZ 00476070 f i wxmswd:framecmn.obj
 0001:00075080       ??_GwxToolBar@@UAEPAXI@Z   00476080 f i wxmswd:framecmn.obj
 0001:00075080       ??_EwxToolBar@@UAEPAXI@Z   00476080 f i wxmswd:framecmn.obj
 0001:000751c7       ?wxConstructorForwxTLWHiddenParentModule@@YAPAVwxObject@@XZ 004761c7 f   wxmswd:toplevel.obj
 0001:0007526a       ?GetEventTable@wxTopLevelWindowMSW@@MBEPBUwxEventTable@@XZ 0047626a f   wxmswd:toplevel.obj
 0001:000752d1       ?Init@wxTopLevelWindowMSW@@IAEXXZ 004762d1 f   wxmswd:toplevel.obj
 0001:0007533f       ?MSWGetStyle@wxTopLevelWindowMSW@@MBEKJPAK@Z 0047633f f   wxmswd:toplevel.obj
 0001:00075511       ?MSWGetParent@wxTopLevelWindowMSW@@MBEKXZ 00476511 f   wxmswd:toplevel.obj
 0001:000755a4       ?CreateDialog@wxTopLevelWindowMSW@@IAE_NPBXABVwxString@@ABVwxPoint@@ABVwxSize@@@Z 004765a4 f   wxmswd:toplevel.obj
 0001:0007587d       ?CreateFrame@wxTopLevelWindowMSW@@IAE_NABVwxString@@ABVwxPoint@@ABVwxSize@@@Z 0047687d f   wxmswd:toplevel.obj
 0001:000758c3       ?Create@wxTopLevelWindowMSW@@QAE_NPAVwxWindow@@HABVwxString@@ABVwxPoint@@ABVwxSize@@J1@Z 004768c3 f   wxmswd:toplevel.obj
 0001:00075a12       ??1wxTopLevelWindowMSW@@UAE@XZ 00476a12 f   wxmswd:toplevel.obj
 0001:00075a83       ?DoShowWindow@wxTopLevelWindowMSW@@IAEXH@Z 00476a83 f   wxmswd:toplevel.obj
 0001:00075ab5       ?Show@wxTopLevelWindowMSW@@UAE_N_N@Z 00476ab5 f   wxmswd:toplevel.obj
 0001:00075bbd       ?Maximize@wxTopLevelWindowMSW@@UAEX_N@Z 00476bbd f   wxmswd:toplevel.obj
 0001:00075c01       ?IsMaximized@wxTopLevelWindowMSW@@UBE_NXZ 00476c01 f   wxmswd:toplevel.obj
 0001:00075c21       ?Iconize@wxTopLevelWindowMSW@@UAEX_N@Z 00476c21 f   wxmswd:toplevel.obj
 0001:00075c48       ?IsIconized@wxTopLevelWindowMSW@@UBE_NXZ 00476c48 f   wxmswd:toplevel.obj
 0001:00075c7a       ?Restore@wxTopLevelWindowMSW@@UAEXXZ 00476c7a f   wxmswd:toplevel.obj
 0001:00075c8f       ?ShowFullScreen@wxTopLevelWindowMSW@@UAE_N_NJ@Z 00476c8f f   wxmswd:toplevel.obj
 0001:00075f79       ?SetIcon@wxTopLevelWindowMSW@@UAEXABVwxIcon@@@Z 00476f79 f   wxmswd:toplevel.obj
 0001:00075fab       ?SetIcons@wxTopLevelWindowMSW@@UAEXABVwxIconBundle@@@Z 00476fab f   wxmswd:toplevel.obj
 0001:0007608a       ?EnableCloseButton@wxTopLevelWindowMSW@@QAE_N_N@Z 0047708a f   wxmswd:toplevel.obj
 0001:00076188       ?OnActivate@wxTopLevelWindowMSW@@QAEXAAVwxActivateEvent@@@Z 00477188 f   wxmswd:toplevel.obj
 0001:000762c1       ?wxDlgProc@@YGJPAUHWND__@@IIJ@Z 004772c1 f   wxmswd:toplevel.obj
 0001:000762d3       ?OnInit@wxTLWHiddenParentModule@@UAE_NXZ 004772d3 f   wxmswd:toplevel.obj
 0001:000762f4       ?OnExit@wxTLWHiddenParentModule@@UAEXXZ 004772f4 f   wxmswd:toplevel.obj
 0001:000763ae       ?GetHWND@wxTLWHiddenParentModule@@SAPAUHWND__@@XZ 004773ae f   wxmswd:toplevel.obj
 0001:000764c0       ??0wxTLWHiddenParentModule@@QAE@XZ 004774c0 f i wxmswd:toplevel.obj
 0001:000764e0       ?GetClassInfo@wxTLWHiddenParentModule@@UBEPAVwxClassInfo@@XZ 004774e0 f i wxmswd:toplevel.obj
 0001:000764f0       ??_GwxTLWHiddenParentModule@@UAEPAXI@Z 004774f0 f i wxmswd:toplevel.obj
 0001:000764f0       ??_EwxTLWHiddenParentModule@@UAEPAXI@Z 004774f0 f i wxmswd:toplevel.obj
 0001:00076520       ??1wxTLWHiddenParentModule@@UAE@XZ 00477520 f i wxmswd:toplevel.obj
 0001:00076540       ?GetActive@wxActivateEvent@@QBE_NXZ 00477540 f i wxmswd:toplevel.obj
 0001:00076560       ?GetRect@wxWindowBase@@QBE?AVwxRect@@XZ 00477560 f i wxmswd:toplevel.obj
 0001:000765d0       ??0wxIcon@@QAE@ABV0@@Z     004775d0 f i wxmswd:toplevel.obj
 0001:00076600       ??0wxIconBundle@@QAE@ABVwxIcon@@@Z 00477600 f i wxmswd:toplevel.obj
 0001:00076630       ??0wxIconArray@@QAE@XZ     00477630 f i wxmswd:toplevel.obj
 0001:00076650       ??1wxIconBundle@@QAE@XZ    00477650 f i wxmswd:toplevel.obj
 0001:00076670       ?SetIcons@wxTopLevelWindowBase@@UAEXABVwxIconBundle@@@Z 00477670 f i wxmswd:toplevel.obj
 0001:00076766       ?LoadNativeDialog@wxWindow@@UAE_NPAV1@AAH@Z 00477766 f   wxmswd:nativdlg.obj
 0001:000768a8       ?LoadNativeDialog@wxWindow@@UAE_NPAV1@ABVwxString@@@Z 004778a8 f   wxmswd:nativdlg.obj
 0001:0007697a       ?GetWindowChild1@wxWindow@@QAEPAV1@H@Z 0047797a f   wxmswd:nativdlg.obj
 0001:000769e5       ?GetWindowChild@wxWindow@@QAEPAV1@H@Z 004779e5 f   wxmswd:nativdlg.obj
 0001:00076a5d       ?CreateWindowFromHWND@wxWindow@@UAEPAV1@PAV1@K@Z 00477a5d f   wxmswd:nativdlg.obj
 0001:00076fe1       ?AdoptAttributesFromHWND@wxWindow@@UAEXXZ 00477fe1 f   wxmswd:nativdlg.obj
 0001:00077060       ?CreateDialog@@YAPAUHWND__@@PAUHINSTANCE__@@PBDPAU1@P6GH2IIJ@Z@Z 00478060 f i wxmswd:nativdlg.obj
 0001:00077080       ??0wxSpinButton@@QAE@XZ    00478080 f i wxmswd:nativdlg.obj
 0001:000770a0       ??0wxSpinButtonBase@@QAE@XZ 004780a0 f i wxmswd:nativdlg.obj
 0001:000770d0       ?GetMin@wxSpinButtonBase@@UBEHXZ 004780d0 f i wxmswd:nativdlg.obj
 0001:000770f0       ?GetMax@wxSpinButtonBase@@UBEHXZ 004780f0 f i wxmswd:nativdlg.obj
 0001:00077110       ?SetRange@wxSpinButtonBase@@UAEXHH@Z 00478110 f i wxmswd:nativdlg.obj
 0001:00077140       ?InitBase@wxSpinButtonBase@@IAEXXZ 00478140 f i wxmswd:nativdlg.obj
 0001:00077170       ??_GwxSpinButtonBase@@UAEPAXI@Z 00478170 f i wxmswd:nativdlg.obj
 0001:00077170       ??_EwxSpinButtonBase@@UAEPAXI@Z 00478170 f i wxmswd:nativdlg.obj
 0001:000771a0       ??1wxSpinButtonBase@@UAE@XZ 004781a0 f i wxmswd:nativdlg.obj
 0001:000771c0       ?AcceptsFocus@wxSpinButton@@UBE_NXZ 004781c0 f i wxmswd:nativdlg.obj
 0001:000771d0       ?GetClassInfo@wxSpinButton@@UBEPAVwxClassInfo@@XZ 004781d0 f i wxmswd:nativdlg.obj
 0001:000771e0       ??_GwxSpinButton@@UAEPAXI@Z 004781e0 f i wxmswd:nativdlg.obj
 0001:000771e0       ??_EwxSpinButton@@UAEPAXI@Z 004781e0 f i wxmswd:nativdlg.obj
 0001:00077210       ?UpperCase@wxString@@QAEXXZ 00478210 f i wxmswd:nativdlg.obj
 0001:00077230       ?SetId@wxWindowBase@@QAEXH@Z 00478230 f i wxmswd:nativdlg.obj
 0001:00077250       ?SetEventHandler@wxWindowBase@@QAEXPAVwxEvtHandler@@@Z 00478250 f i wxmswd:nativdlg.obj
 0001:00077270       ??0wxBitmapButton@@QAE@XZ  00478270 f i wxmswd:nativdlg.obj
 0001:000772b0       ??0wxCheckBox@@QAE@XZ      004782b0 f i wxmswd:nativdlg.obj
 0001:000772d0       ??0wxScrollBar@@QAE@XZ     004782d0 f i wxmswd:nativdlg.obj
 0001:00077320       ?GetClassInfo@wxScrollBar@@UBEPAVwxClassInfo@@XZ 00478320 f i wxmswd:nativdlg.obj
 0001:00077330       ?GetThumbSize@wxScrollBar@@UBEHXZ 00478330 f i wxmswd:nativdlg.obj
 0001:00077350       ?GetPageSize@wxScrollBar@@UBEHXZ 00478350 f i wxmswd:nativdlg.obj
 0001:00077370       ?GetRange@wxScrollBar@@UBEHXZ 00478370 f i wxmswd:nativdlg.obj
 0001:00077390       ??_EwxScrollBar@@UAEPAXI@Z 00478390 f i wxmswd:nativdlg.obj
 0001:00077390       ??_GwxScrollBar@@UAEPAXI@Z 00478390 f i wxmswd:nativdlg.obj
 0001:000773c0       ??0wxScrollBarBase@@QAE@XZ 004783c0 f i wxmswd:nativdlg.obj
 0001:000773e0       ??_EwxScrollBarBase@@UAEPAXI@Z 004783e0 f i wxmswd:nativdlg.obj
 0001:000773e0       ??_GwxScrollBarBase@@UAEPAXI@Z 004783e0 f i wxmswd:nativdlg.obj
 0001:00077410       ??1wxScrollBarBase@@UAE@XZ 00478410 f i wxmswd:nativdlg.obj
 0001:00077430       ??0wxStaticText@@QAE@XZ    00478430 f i wxmswd:nativdlg.obj
 0001:00077450       ??0wxStaticBitmap@@QAE@XZ  00478450 f i wxmswd:nativdlg.obj
 0001:00077480       ?AcceptsFocus@wxStaticBitmapBase@@UBE_NXZ 00478480 f i wxmswd:nativdlg.obj
 0001:00077490       ?SetIcon@wxStaticBitmap@@UAEXABVwxIcon@@@Z 00478490 f i wxmswd:nativdlg.obj
 0001:000774b0       ?SetBitmap@wxStaticBitmap@@UAEXABVwxBitmap@@@Z 004784b0 f i wxmswd:nativdlg.obj
 0001:000774d0       ?GetBitmap@wxStaticBitmap@@UBE?AVwxBitmap@@XZ 004784d0 f i wxmswd:nativdlg.obj
 0001:00077520       ??0wxBitmap@@QAE@ABV0@@Z   00478520 f i wxmswd:nativdlg.obj
 0001:00077560       ?Init@wxStaticBitmap@@IAEXXZ 00478560 f i wxmswd:nativdlg.obj
 0001:00077590       ?GetClassInfo@wxStaticBitmap@@UBEPAVwxClassInfo@@XZ 00478590 f i wxmswd:nativdlg.obj
 0001:000775a0       ??_EwxStaticBitmap@@UAEPAXI@Z 004785a0 f i wxmswd:nativdlg.obj
 0001:000775a0       ??_GwxStaticBitmap@@UAEPAXI@Z 004785a0 f i wxmswd:nativdlg.obj
 0001:000775d0       ??1wxStaticBitmap@@UAE@XZ  004785d0 f i wxmswd:nativdlg.obj
 0001:00077600       ??0wxStaticBitmapBase@@QAE@XZ 00478600 f i wxmswd:nativdlg.obj
 0001:00077620       ??_GwxStaticBitmapBase@@UAEPAXI@Z 00478620 f i wxmswd:nativdlg.obj
 0001:00077620       ??_EwxStaticBitmapBase@@UAEPAXI@Z 00478620 f i wxmswd:nativdlg.obj
 0001:00077650       ??0wxStaticBox@@QAE@XZ     00478650 f i wxmswd:nativdlg.obj
 0001:00077670       ??0wxRadioButton@@QAE@XZ   00478670 f i wxmswd:nativdlg.obj
 0001:000776a0       ?GetClassInfo@wxRadioButton@@UBEPAVwxClassInfo@@XZ 004786a0 f i wxmswd:nativdlg.obj
 0001:000776b0       ??_EwxRadioButton@@UAEPAXI@Z 004786b0 f i wxmswd:nativdlg.obj
 0001:000776b0       ??_GwxRadioButton@@UAEPAXI@Z 004786b0 f i wxmswd:nativdlg.obj
 0001:000776e0       ??1wxRadioButton@@UAE@XZ   004786e0 f i wxmswd:nativdlg.obj
 0001:00077700       ??0wxTextCtrl@@QAE@XZ      00478700 f i wxmswd:nativdlg.obj
 0001:00077730       ??0wxComboBox@@QAE@XZ      00478730 f i wxmswd:nativdlg.obj
 0001:000777cf       ?GetEventTable@wxWindowBase@@MBEPBUwxEventTable@@XZ 004787cf f   wxmswd:wincmn.obj
 0001:0007789f       ?InitBase@wxWindowBase@@IAEXXZ 0047889f f   wxmswd:wincmn.obj
 0001:00077aa8       ?CreateBase@wxWindowBase@@QAE_NPAV1@HABVwxPoint@@ABVwxSize@@JABVwxValidator@@ABVwxString@@@Z 00478aa8 f   wxmswd:wincmn.obj
 0001:00077b67       ??1wxWindowBase@@UAE@XZ    00478b67 f   wxmswd:wincmn.obj
 0001:00077e3f       ?Destroy@wxWindowBase@@UAE_NXZ 00478e3f f   wxmswd:wincmn.obj
 0001:00077e79       ?Close@wxWindowBase@@QAE_N_N@Z 00478e79 f   wxmswd:wincmn.obj
 0001:00077f16       ?DestroyChildren@wxWindowBase@@QAE_NXZ 00478f16 f   wxmswd:wincmn.obj
 0001:00077fe5       ?Centre@wxWindowBase@@QAEXH@Z 00478fe5 f   wxmswd:wincmn.obj
 0001:00078220       ?Fit@wxWindowBase@@UAEXXZ  00479220 f   wxmswd:wincmn.obj
 0001:0007825b       ?FitInside@wxWindowBase@@UAEXXZ 0047925b f   wxmswd:wincmn.obj
 0001:00078293       ?DoGetBestSize@wxWindowBase@@MBE?AVwxSize@@XZ 00479293 f   wxmswd:wincmn.obj
 0001:000784da       ?GetClientAreaOrigin@wxWindowBase@@UBE?AVwxPoint@@XZ 004794da f   wxmswd:wincmn.obj
 0001:00078505       ?SetSizeHints@wxWindowBase@@UAEXHHHHHH@Z 00479505 f   wxmswd:wincmn.obj
 0001:00078536       ?SetVirtualSizeHints@wxWindowBase@@UAEXHHHH@Z 00479536 f   wxmswd:wincmn.obj
 0001:00078573       ?DoSetVirtualSize@wxWindowBase@@UAEXHH@Z 00479573 f   wxmswd:wincmn.obj
 0001:0007863e       ?DoGetVirtualSize@wxWindowBase@@UBE?AVwxSize@@XZ 0047963e f   wxmswd:wincmn.obj
 0001:000786c9       ?Show@wxWindowBase@@UAE_N_N@Z 004796c9 f   wxmswd:wincmn.obj
 0001:0007871a       ?Enable@wxWindowBase@@UAE_N_N@Z 0047971a f   wxmswd:wincmn.obj
 0001:0007876d       ?IsTopLevel@wxWindowBase@@UBE_NXZ 0047976d f   wxmswd:wincmn.obj
 0001:0007877a       ?AddChild@wxWindowBase@@UAEXPAV1@@Z 0047977a f   wxmswd:wincmn.obj
 0001:0007880d       ?RemoveChild@wxWindowBase@@UAEXPAV1@@Z 0047980d f   wxmswd:wincmn.obj
 0001:00078869       ?Reparent@wxWindowBase@@UAE_NPAV1@@Z 00479869 f   wxmswd:wincmn.obj
 0001:000788e1       ?PushEventHandler@wxWindowBase@@QAEXPAVwxEvtHandler@@@Z 004798e1 f   wxmswd:wincmn.obj
 0001:0007892c       ?PopEventHandler@wxWindowBase@@QAEPAVwxEvtHandler@@_N@Z 0047992c f   wxmswd:wincmn.obj
 0001:000789bf       ?RemoveEventHandler@wxWindowBase@@QAE_NPAVwxEvtHandler@@@Z 004799bf f   wxmswd:wincmn.obj
 0001:00078aab       ?SetBackgroundColour@wxWindowBase@@UAE_NABVwxColour@@@Z 00479aab f   wxmswd:wincmn.obj
 0001:00078b0f       ?SetForegroundColour@wxWindowBase@@UAE_NABVwxColour@@@Z 00479b0f f   wxmswd:wincmn.obj
 0001:00078b73       ?SetCursor@wxWindowBase@@UAE_NABVwxCursor@@@Z 00479b73 f   wxmswd:wincmn.obj
 0001:00078bad       ?SetFont@wxWindowBase@@UAE_NABVwxFont@@@Z 00479bad f   wxmswd:wincmn.obj
 0001:00078c2c       ?SetPalette@wxWindowBase@@QAEXABVwxPalette@@@Z 00479c2c f   wxmswd:wincmn.obj
 0001:00078c8f       ?GetAncestorWithCustomPalette@wxWindowBase@@QBEPAVwxWindow@@XZ 00479c8f f   wxmswd:wincmn.obj
 0001:00078cc9       ?SetCaret@wxWindowBase@@QAEXPAVwxCaret@@@Z 00479cc9 f   wxmswd:wincmn.obj
 0001:00078d47       ?SetValidator@wxWindowBase@@UAEXABVwxValidator@@@Z 00479d47 f   wxmswd:wincmn.obj
 0001:00078db6       ?GetUpdateClientRect@wxWindowBase@@QBE?AVwxRect@@XZ 00479db6 f   wxmswd:wincmn.obj
 0001:00078e5f       ?IsExposed@wxWindowBase@@QBE_NHH@Z 00479e5f f   wxmswd:wincmn.obj
 0001:00078e88       ?IsExposed@wxWindowBase@@QBE_NHHHH@Z 00479e88 f   wxmswd:wincmn.obj
 0001:00078eb9       ?FindWindow@wxWindowBase@@QAEPAVwxWindow@@J@Z 00479eb9 f   wxmswd:wincmn.obj
 0001:00078f25       ?FindWindow@wxWindowBase@@QAEPAVwxWindow@@ABVwxString@@@Z 00479f25 f   wxmswd:wincmn.obj
 0001:00078fa4       ?FindWindowByLabel@wxWindowBase@@SAPAVwxWindow@@ABVwxString@@PBV2@@Z 00479fa4 f   wxmswd:wincmn.obj
 0001:000790fd       ?FindWindowByName@wxWindowBase@@SAPAVwxWindow@@ABVwxString@@PBV2@@Z 0047a0fd f   wxmswd:wincmn.obj
 0001:0007916f       ?FindWindowById@wxWindowBase@@SAPAVwxWindow@@JPBV2@@Z 0047a16f f   wxmswd:wincmn.obj
 0001:000791c6       ?MakeModal@wxWindowBase@@UAEX_N@Z 0047a1c6 f   wxmswd:wincmn.obj
 0001:0007923c       ?Validate@wxWindowBase@@UAE_NXZ 0047a23c f   wxmswd:wincmn.obj
 0001:000792e7       ?TransferDataToWindow@wxWindowBase@@UAE_NXZ 0047a2e7 f   wxmswd:wincmn.obj
 0001:000793b0       ?TransferDataFromWindow@wxWindowBase@@UAE_NXZ 0047a3b0 f   wxmswd:wincmn.obj
 0001:00079457       ?InitDialog@wxWindowBase@@UAEXXZ 0047a457 f   wxmswd:wincmn.obj
 0001:000794a3       ?SetHelpText@wxWindowBase@@QAEXABVwxString@@@Z 0047a4a3 f   wxmswd:wincmn.obj
 0001:000794d3       ?SetHelpTextForId@wxWindowBase@@QAEXABVwxString@@@Z 0047a4d3 f   wxmswd:wincmn.obj
 0001:00079508       ?GetHelpText@wxWindowBase@@QBE?AVwxString@@XZ 0047a508 f   wxmswd:wincmn.obj
 0001:00079567       ?OnHelp@wxWindowBase@@QAEXAAVwxHelpEvent@@@Z 0047a567 f   wxmswd:wincmn.obj
 0001:000795a8       ?SetToolTip@wxWindowBase@@QAEXABVwxString@@@Z 0047a5a8 f   wxmswd:wincmn.obj
 0001:0007960e       ?DoSetToolTip@wxWindowBase@@MAEXPAVwxToolTip@@@Z 0047a60e f   wxmswd:wincmn.obj
 0001:00079666       ?SetConstraints@wxWindowBase@@QAEXPAVwxLayoutConstraints@@@Z 0047a666 f   wxmswd:wincmn.obj
 0001:00079945       ?UnsetConstraints@wxWindowBase@@QAEXPAVwxLayoutConstraints@@@Z 0047a945 f   wxmswd:wincmn.obj
 0001:00079b31       ?AddConstraintReference@wxWindowBase@@QAEXPAV1@@Z 0047ab31 f   wxmswd:wincmn.obj
 0001:00079ba9       ?RemoveConstraintReference@wxWindowBase@@QAEXPAV1@@Z 0047aba9 f   wxmswd:wincmn.obj
 0001:00079bd4       ?DeleteRelatedConstraints@wxWindowBase@@QAEXXZ 0047abd4 f   wxmswd:wincmn.obj
 0001:00079d31       ?SetSizer@wxWindowBase@@QAEXPAVwxSizer@@_N@Z 0047ad31 f   wxmswd:wincmn.obj
 0001:00079d9b       ?SetSizerAndFit@wxWindowBase@@QAEXPAVwxSizer@@_N@Z 0047ad9b f   wxmswd:wincmn.obj
 0001:00079dc4       ?SatisfyConstraints@wxWindowBase@@IAEXXZ 0047adc4 f   wxmswd:wincmn.obj
 0001:00079e51       ?Layout@wxWindowBase@@UAE_NXZ 0047ae51 f   wxmswd:wincmn.obj
 0001:00079eb1       ?LayoutPhase1@wxWindowBase@@UAE_NPAH@Z 0047aeb1 f   wxmswd:wincmn.obj
 0001:00079efd       ?LayoutPhase2@wxWindowBase@@UAE_NPAH@Z 0047aefd f   wxmswd:wincmn.obj
 0001:00079f35       ?DoPhase@wxWindowBase@@UAE_NH@Z 0047af35 f   wxmswd:wincmn.obj
 0001:0007a060       ?ResetConstraints@wxWindowBase@@QAEXXZ 0047b060 f   wxmswd:wincmn.obj
 0001:0007a144       ?SetConstraintSizes@wxWindowBase@@UAEX_N@Z 0047b144 f   wxmswd:wincmn.obj
 0001:0007a2c4       ?SetSizeConstraint@wxWindowBase@@UAEXHHHH@Z 0047b2c4 f   wxmswd:wincmn.obj
 0001:0007a37c       ?MoveConstraint@wxWindowBase@@UAEXHH@Z 0047b37c f   wxmswd:wincmn.obj
 0001:0007a3e0       ?GetSizeConstraint@wxWindowBase@@UBEXPAH0@Z 0047b3e0 f   wxmswd:wincmn.obj
 0001:0007a438       ?GetClientSizeConstraint@wxWindowBase@@UBEXPAH0@Z 0047b438 f   wxmswd:wincmn.obj
 0001:0007a490       ?GetPositionConstraint@wxWindowBase@@UBEXPAH0@Z 0047b490 f   wxmswd:wincmn.obj
 0001:0007a4e2       ?AdjustForParentClientOrigin@wxWindowBase@@MBEXAAH0H@Z 0047b4e2 f   wxmswd:wincmn.obj
 0001:0007a557       ?UpdateWindowUI@wxWindowBase@@QAEXXZ 0047b557 f   wxmswd:wincmn.obj
 0001:0007a78d       ?ConvertPixelsToDialog@wxWindowBase@@QAE?AVwxPoint@@ABV2@@Z 0047b78d f   wxmswd:wincmn.obj
 0001:0007a80b       ?ConvertDialogToPixels@wxWindowBase@@QAE?AVwxPoint@@ABV2@@Z 0047b80b f   wxmswd:wincmn.obj
 0001:0007a895       ?OnSysColourChanged@wxWindowBase@@QAEXAAVwxSysColourChangedEvent@@@Z 0047b895 f   wxmswd:wincmn.obj
 0001:0007a91e       ?OnInitDialog@wxWindowBase@@QAEXAAVwxInitDialogEvent@@@Z 0047b91e f   wxmswd:wincmn.obj
 0001:0007a939       ?OnMiddleClick@wxWindowBase@@QAEXAAVwxMouseEvent@@@Z 0047b939 f   wxmswd:wincmn.obj
 0001:0007aad5       ?DeleteData@wxWindowListNode@@UAEXXZ 0047bad5 f   wxmswd:wincmn.obj
 0001:0007ab12       ?GetBorder@wxWindowBase@@QBE?AW4wxBorder@@XZ 0047bb12 f   wxmswd:wincmn.obj
 0001:0007ab4b       ?GetDefaultBorder@wxWindowBase@@MBE?AW4wxBorder@@XZ 0047bb4b f   wxmswd:wincmn.obj
 0001:0007ab5b       ?DoHitTest@wxWindowBase@@MBE?AW4wxHitTest@@HH@Z 0047bb5b f   wxmswd:wincmn.obj
 0001:0007abe5       ?CaptureMouse@wxWindowBase@@QAEXXZ 0047bbe5 f   wxmswd:wincmn.obj
 0001:0007ac62       ?ReleaseMouse@wxWindowBase@@QAEXXZ 0047bc62 f   wxmswd:wincmn.obj
 0001:0007ad1c       ?wxGetTopLevelParent@@YAPAVwxWindow@@PAV1@@Z 0047bd1c f   wxmswd:wincmn.obj
 0001:0007ad50       ??1wxWindowDC@@UAE@XZ      0047bd50 f i wxmswd:wincmn.obj
 0001:0007ad70       ?GetWindow@wxCaretBase@@QBEPAVwxWindow@@XZ 0047bd70 f i wxmswd:wincmn.obj
 0001:0007ad90       ?Get@wxHelpProvider@@SAPAV1@XZ 0047bd90 f i wxmswd:wincmn.obj
 0001:0007ada0       ??8wxColour@@QBE_NABV0@@Z  0047bda0 f i wxmswd:wincmn.obj
 0001:0007ae20       ?SetWidth@wxSize@@QAEXH@Z  0047be20 f i wxmswd:wincmn.obj
 0001:0007ae40       ?SetHeight@wxSize@@QAEXH@Z 0047be40 f i wxmswd:wincmn.obj
 0001:0007ae60       ?ControlDown@wxMouseEvent@@QBE_NXZ 0047be60 f i wxmswd:wincmn.obj
 0001:0007ae80       ?AltDown@wxMouseEvent@@QBE_NXZ 0047be80 f i wxmswd:wincmn.obj
 0001:0007aea0       ?SetNextHandler@wxEvtHandler@@QAEXPAV1@@Z 0047bea0 f i wxmswd:wincmn.obj
 0001:0007aec0       ?SetPreviousHandler@wxEvtHandler@@QAEXPAV1@@Z 0047bec0 f i wxmswd:wincmn.obj
 0001:0007aee0       ??0wxRegion@@QAE@ABV0@@Z   0047bee0 f i wxmswd:wincmn.obj
 0001:0007af10       ?Intersect@wxRegion@@QAE_NABVwxRect@@@Z 0047bf10 f i wxmswd:wincmn.obj
 0001:0007af30       ?GetClassInfo@wxRegion@@UBEPAVwxClassInfo@@XZ 0047bf30 f i wxmswd:wincmn.obj
 0001:0007af40       ??_GwxRegion@@UAEPAXI@Z    0047bf40 f i wxmswd:wincmn.obj
 0001:0007af40       ??_EwxRegion@@UAEPAXI@Z    0047bf40 f i wxmswd:wincmn.obj
 0001:0007af70       ?SetWindow@wxValidator@@QAEXPAVwxWindowBase@@@Z 0047bf70 f i wxmswd:wincmn.obj
 0001:0007af90       ?Move@wxWindowBase@@QAEXHHH@Z 0047bf90 f i wxmswd:wincmn.obj
 0001:0007afc0       ?SetClientSize@wxWindowBase@@QAEXABVwxSize@@@Z 0047bfc0 f i wxmswd:wincmn.obj
 0001:0007aff0       ?GetClientRect@wxWindowBase@@QBE?AVwxRect@@XZ 0047bff0 f i wxmswd:wincmn.obj
 0001:0007b040       ?SetVirtualSize@wxWindowBase@@QAEXABVwxSize@@@Z 0047c040 f i wxmswd:wincmn.obj
 0001:0007b070       ?SetParent@wxWindowBase@@QAEXPAV1@@Z 0047c070 f i wxmswd:wincmn.obj
 0001:0007b090       ?GetUpdateRegion@wxWindowBase@@QBEABVwxRegion@@XZ 0047c090 f i wxmswd:wincmn.obj
 0001:0007b0b0       ?SetToolTip@wxWindowBase@@QAEXPAVwxToolTip@@@Z 0047c0b0 f i wxmswd:wincmn.obj
 0001:0007b0d0       ?GetConstraints@wxWindowBase@@QBEPAVwxLayoutConstraints@@XZ 0047c0d0 f i wxmswd:wincmn.obj
 0001:0007b0f0       ?GetOtherWindow@wxIndividualLayoutConstraint@@QAEPAVwxWindowBase@@XZ 0047c0f0 f i wxmswd:wincmn.obj
 0001:0007b110       ?SetValue@wxIndividualLayoutConstraint@@QAEXH@Z 0047c110 f i wxmswd:wincmn.obj
 0001:0007b130       ?GetValue@wxIndividualLayoutConstraint@@QBEHXZ 0047c130 f i wxmswd:wincmn.obj
 0001:0007b150       ?SetDone@wxIndividualLayoutConstraint@@QAEX_N@Z 0047c150 f i wxmswd:wincmn.obj
 0001:0007b170       ?GetRelationship@wxIndividualLayoutConstraint@@QAE?AW4wxRelationship@@XZ 0047c170 f i wxmswd:wincmn.obj
 0001:0007b190       ?AreSatisfied@wxLayoutConstraints@@QBE_NXZ 0047c190 f i wxmswd:wincmn.obj
 0001:0007b210       ?GetDone@wxIndividualLayoutConstraint@@QBE_NXZ 0047c210 f i wxmswd:wincmn.obj
 0001:0007b230       ?GetEventTable@wxTopLevelWindowBase@@MBEPBUwxEventTable@@XZ 0047c230 f   wxmswd:toplvcmn.obj
 0001:0007b2ba       ?wxConstructorForwxTopLevelWindow@@YAPAVwxObject@@XZ 0047c2ba f   wxmswd:toplvcmn.obj
 0001:0007b363       ??0wxTopLevelWindowBase@@QAE@XZ 0047c363 f   wxmswd:toplvcmn.obj
 0001:0007b390       ??1wxTopLevelWindowBase@@UAE@XZ 0047c390 f   wxmswd:toplvcmn.obj
 0001:0007b41f       ?Destroy@wxTopLevelWindowBase@@UAE_NXZ 0047c41f f   wxmswd:toplvcmn.obj
 0001:0007b44c       ?IsLastBeforeExit@wxTopLevelWindowBase@@IBE_NXZ 0047c44c f   wxmswd:toplvcmn.obj
 0001:0007b4ae       ?GetMaxSize@wxTopLevelWindowBase@@UBE?AVwxSize@@XZ 0047c4ae f   wxmswd:toplvcmn.obj
 0001:0007b52e       ?DoScreenToClient@wxTopLevelWindowBase@@MBEXPAH0@Z 0047c52e f   wxmswd:toplvcmn.obj
 0001:0007b58d       ?DoClientToScreen@wxTopLevelWindowBase@@MBEXPAH0@Z 0047c58d f   wxmswd:toplvcmn.obj
 0001:0007b5ec       ?OnSize@wxTopLevelWindowBase@@QAEXAAVwxSizeEvent@@@Z 0047c5ec f   wxmswd:toplvcmn.obj
 0001:0007b6ca       ?OnCloseWindow@wxTopLevelWindowBase@@QAEXAAVwxCloseEvent@@@Z 0047c6ca f   wxmswd:toplvcmn.obj
 0001:0007b6e2       ?SendIconizeEvent@wxTopLevelWindowBase@@IAE_N_N@Z 0047c6e2 f   wxmswd:toplvcmn.obj
 0001:0007b740       ??_EwxTopLevelWindowBase@@UAEPAXI@Z 0047c740 f i wxmswd:toplvcmn.obj
 0001:0007b740       ??_GwxTopLevelWindowBase@@UAEPAXI@Z 0047c740 f i wxmswd:toplvcmn.obj
 0001:0007b770       ?GetExitOnFrameDelete@wxAppBase@@QBE_NXZ 0047c770 f i wxmswd:toplvcmn.obj
 0001:0007b790       ??0wxIconBundle@@QAE@XZ    0047c790 f i wxmswd:toplvcmn.obj
 0001:0007b7b0       ?SetIcon@wxTopLevelWindowBase@@UAEXABVwxIcon@@@Z 0047c7b0 f i wxmswd:toplvcmn.obj
 0001:0007b8c6       ?wxConstructorForwxAcceleratorTable@@YAPAVwxObject@@XZ 0047c8c6 f   wxmswd:accel.obj
 0001:0007b969       ??0wxAcceleratorRefData@@QAE@XZ 0047c969 f   wxmswd:accel.obj
 0001:0007b999       ??1wxAcceleratorRefData@@UAE@XZ 0047c999 f   wxmswd:accel.obj
 0001:0007b9d5       ??0wxAcceleratorTable@@QAE@XZ 0047c9d5 f   wxmswd:accel.obj
 0001:0007b9fe       ??1wxAcceleratorTable@@UAE@XZ 0047c9fe f   wxmswd:accel.obj
 0001:0007ba1a       ??0wxAcceleratorTable@@QAE@ABVwxString@@@Z 0047ca1a f   wxmswd:accel.obj
 0001:0007baa3       ??0wxAcceleratorTable@@QAE@HQBVwxAcceleratorEntry@@@Z 0047caa3 f   wxmswd:accel.obj
 0001:0007bc36       ?Ok@wxAcceleratorTable@@QBE_NXZ 0047cc36 f   wxmswd:accel.obj
 0001:0007bc6e       ?SetHACCEL@wxAcceleratorTable@@QAEXK@Z 0047cc6e f   wxmswd:accel.obj
 0001:0007bcc2       ?GetHACCEL@wxAcceleratorTable@@QBEKXZ 0047ccc2 f   wxmswd:accel.obj
 0001:0007bce3       ?Translate@wxAcceleratorTable@@QBE_NPAVwxWindow@@PAPAX@Z 0047cce3 f   wxmswd:accel.obj
 0001:0007bd40       ??_EwxAcceleratorRefData@@UAEPAXI@Z 0047cd40 f i wxmswd:accel.obj
 0001:0007bd40       ??_GwxAcceleratorRefData@@UAEPAXI@Z 0047cd40 f i wxmswd:accel.obj
 0001:0007bd70       ?GetFlags@wxAcceleratorEntry@@QBEHXZ 0047cd70 f i wxmswd:accel.obj
 0001:0007bd80       ?GetKeyCode@wxAcceleratorEntry@@QBEHXZ 0047cd80 f i wxmswd:accel.obj
 0001:0007bda0       ?GetCommand@wxAcceleratorEntry@@QBEHXZ 0047cda0 f i wxmswd:accel.obj
 0001:0007bdc0       ?GetClassInfo@wxAcceleratorTable@@UBEPAVwxClassInfo@@XZ 0047cdc0 f i wxmswd:accel.obj
 0001:0007bdd0       ??_GwxAcceleratorTable@@UAEPAXI@Z 0047cdd0 f i wxmswd:accel.obj
 0001:0007bdd0       ??_EwxAcceleratorTable@@UAEPAXI@Z 0047cdd0 f i wxmswd:accel.obj
 0001:0007be00       ?wxConstructorForwxPathList@@YAPAVwxObject@@XZ 0047ce00 f   wxmswd:filefn.obj
 0001:0007bea3       ?Add@wxPathList@@QAEXABVwxString@@@Z 0047cea3 f   wxmswd:filefn.obj
 0001:0007bec1       ?AddEnvList@wxPathList@@QAEXABVwxString@@@Z 0047cec1 f   wxmswd:filefn.obj
 0001:0007bf9a       ?EnsureFileAccessible@wxPathList@@QAEXABVwxString@@@Z 0047cf9a f   wxmswd:filefn.obj
 0001:0007bff3       ?Member@wxPathList@@QAE_NABVwxString@@@Z 0047cff3 f   wxmswd:filefn.obj
 0001:0007c067       ?FindValidPath@wxPathList@@QAE?AVwxString@@ABV2@@Z 0047d067 f   wxmswd:filefn.obj
 0001:0007c283       ?FindAbsoluteValidPath@wxPathList@@QAE?AVwxString@@ABV2@@Z 0047d283 f   wxmswd:filefn.obj
 0001:0007c358       ?wxFileExists@@YA_NABVwxString@@@Z 0047d358 f   wxmswd:filefn.obj
 0001:0007c397       ?wxIsAbsolutePath@@YA_NABVwxString@@@Z 0047d397 f   wxmswd:filefn.obj
 0001:0007c411       ?wxStripExtension@@YAXPAD@Z 0047d411 f   wxmswd:filefn.obj
 0001:0007c45d       ?wxStripExtension@@YAXAAVwxString@@@Z 0047d45d f   wxmswd:filefn.obj
 0001:0007c4c3       ?wxRealPath@@YAPADPAD@Z    0047d4c3 f   wxmswd:filefn.obj
 0001:0007c68f       ?wxCopyAbsolutePath@@YAPADABVwxString@@@Z 0047d68f f   wxmswd:filefn.obj
 0001:0007c7bd       ?wxExpandPath@@YAPADPADPBD@Z 0047d7bd f   wxmswd:filefn.obj
 0001:0007cce1       ?wxContractPath@@YAPADABVwxString@@00@Z 0047dce1 f   wxmswd:filefn.obj
 0001:0007cec9       ?wxFileNameFromPath@@YAPADPAD@Z 0047dec9 f   wxmswd:filefn.obj
 0001:0007cf20       ?wxFileNameFromPath@@YA?AVwxString@@ABV1@@Z 0047df20 f   wxmswd:filefn.obj
 0001:0007cfab       ?wxPathOnly@@YAPADPAD@Z    0047dfab f   wxmswd:filefn.obj
 0001:0007d06c       ?wxPathOnly@@YA?AVwxString@@ABV1@@Z 0047e06c f   wxmswd:filefn.obj
 0001:0007d18f       ?wxDos2UnixFilename@@YAXPAD@Z 0047e18f f   wxmswd:filefn.obj
 0001:0007d1d7       ?wxUnix2DosFilename@@YAXPAD@Z 0047e1d7 f   wxmswd:filefn.obj
 0001:0007d208       ?wxConcatFiles@@YA_NABVwxString@@00@Z 0047e208 f   wxmswd:filefn.obj
 0001:0007d3ce       ?wxCopyFile@@YA_NABVwxString@@0_N@Z 0047e3ce f   wxmswd:filefn.obj
 0001:0007d42b       ?wxRenameFile@@YA_NABVwxString@@0@Z 0047e42b f   wxmswd:filefn.obj
 0001:0007d480       ?wxRemoveFile@@YA_NABVwxString@@@Z 0047e480 f   wxmswd:filefn.obj
 0001:0007d4a6       ?wxMkdir@@YA_NABVwxString@@H@Z 0047e4a6 f   wxmswd:filefn.obj
 0001:0007d4ea       ?wxRmdir@@YA_NABVwxString@@H@Z 0047e4ea f   wxmswd:filefn.obj
 0001:0007d506       ?wxPathExists@@YA_NPBD@Z   0047e506 f   wxmswd:filefn.obj
 0001:0007d5bc       ?wxGetTempFileName@@YAPADABVwxString@@PAD@Z 0047e5bc f   wxmswd:filefn.obj
 0001:0007d63f       ?wxGetTempFileName@@YA_NABVwxString@@AAV1@@Z 0047e63f f   wxmswd:filefn.obj
 0001:0007d6bb       ?wxFindFirstFile@@YA?AVwxString@@PBDH@Z 0047e6bb f   wxmswd:filefn.obj
 0001:0007d8cb       ?wxFindNextFile@@YA?AVwxString@@XZ 0047e8cb f   wxmswd:filefn.obj
 0001:0007d99d       ?wxGetWorkingDirectory@@YAPADPADH@Z 0047e99d f   wxmswd:filefn.obj
 0001:0007da0f       ?wxGetCwd@@YA?AVwxString@@XZ 0047ea0f f   wxmswd:filefn.obj
 0001:0007da77       ?wxSetWorkingDirectory@@YA_NABVwxString@@@Z 0047ea77 f   wxmswd:filefn.obj
 0001:0007da91       ?wxGetOSDirectory@@YA?AVwxString@@XZ 0047ea91 f   wxmswd:filefn.obj
 0001:0007dac4       ?wxEndsWithPathSeparator@@YA_NPBD@Z 0047eac4 f   wxmswd:filefn.obj
 0001:0007db11       ?wxFindFileInPath@@YA_NPAVwxString@@PBD1@Z 0047eb11 f   wxmswd:filefn.obj
 0001:0007dc7c       ?wxSplitPath@@YAXPBDPAVwxString@@11@Z 0047ec7c f   wxmswd:filefn.obj
 0001:0007dce6       ?wxFileModificationTime@@YAJABVwxString@@@Z 0047ece6 f   wxmswd:filefn.obj
 0001:0007dd09       ?wxIsWild@@YA_NABVwxString@@@Z 0047ed09 f   wxmswd:filefn.obj
 0001:0007de11       ?wxMatchWild@@YA_NABVwxString@@0_N@Z 0047ee11 f   wxmswd:filefn.obj
 0001:0007e030       ??0wxPathList@@QAE@XZ      0047f030 f i wxmswd:filefn.obj
 0001:0007e050       ??_GwxPathList@@UAEPAXI@Z  0047f050 f i wxmswd:filefn.obj
 0001:0007e050       ??_EwxPathList@@UAEPAXI@Z  0047f050 f i wxmswd:filefn.obj
 0001:0007e080       ??1wxPathList@@UAE@XZ      0047f080 f i wxmswd:filefn.obj
 0001:0007e0a0       ?CompareTo@wxString@@QBEHPBDW4caseCompare@1@@Z 0047f0a0 f i wxmswd:filefn.obj
 0001:0007e0e0       ??AwxString@@QBEDH@Z       0047f0e0 f i wxmswd:filefn.obj
 0001:0007e130       ??0wxStringBuffer@@QAE@AAVwxString@@I@Z 0047f130 f i wxmswd:filefn.obj
 0001:0007e170       ??1wxStringBuffer@@QAE@XZ  0047f170 f i wxmswd:filefn.obj
 0001:0007e190       ??BwxStringBuffer@@QBEPADXZ 0047f190 f i wxmswd:filefn.obj
 0001:0007e1b0       ??9@YA_NABVwxString@@PBD@Z 0047f1b0 f i wxmswd:filefn.obj
 0001:0007e1d0       ?fn_str@wxString@@QBEPBDXZ 0047f1d0 f i wxmswd:filefn.obj
 0001:0007e1e0       ?Last@wxString@@QAEAADXZ   0047f1e0 f i wxmswd:filefn.obj
 0001:0007e240       ??_GwxDir@@QAEPAXI@Z       0047f240 f i wxmswd:filefn.obj
 0001:0007e270       ?Find@wxStringListBase@@UBEPAVwxStringListNode@@ABVwxListKey@@@Z 0047f270 f i wxmswd:filefn.obj
 0001:0007e290       ?CreateNode@wxStringListBase@@MAEPAVwxNodeBase@@PAV2@0PAXABVwxListKey@@@Z 0047f290 f i wxmswd:filefn.obj
 0001:0007e2e0       ??0wxStringListNode@@QAE@PAVwxListBase@@PAV0@1PADABVwxListKey@@@Z 0047f2e0 f i wxmswd:filefn.obj
 0001:0007e320       ??_GwxStringListNode@@UAEPAXI@Z 0047f320 f i wxmswd:filefn.obj
 0001:0007e320       ??_EwxStringListNode@@UAEPAXI@Z 0047f320 f i wxmswd:filefn.obj
 0001:0007e350       ??1wxStringListNode@@UAE@XZ 0047f350 f i wxmswd:filefn.obj
 0001:0007e370       ??0wxStringList@@QAE@XZ    0047f370 f i wxmswd:filefn.obj
 0001:0007e3a0       ??0wxStringListBase@@QAE@W4wxKeyType@@@Z 0047f3a0 f i wxmswd:filefn.obj
 0001:0007e3d0       ??_GwxStringListBase@@UAEPAXI@Z 0047f3d0 f i wxmswd:filefn.obj
 0001:0007e3d0       ??_EwxStringListBase@@UAEPAXI@Z 0047f3d0 f i wxmswd:filefn.obj
 0001:0007e400       ??1wxStringListBase@@UAE@XZ 0047f400 f i wxmswd:filefn.obj
 0001:0007e420       ?Add@wxStringList@@QAEPAVwxObjectListNode@@PBD@Z 0047f420 f i wxmswd:filefn.obj
 0001:0007e450       ?Append@wxStringListBase@@QAEPAVwxStringListNode@@PAD@Z 0047f450 f i wxmswd:filefn.obj
 0001:0007e470       ?GetClassInfo@wxStringList@@UBEPAVwxClassInfo@@XZ 0047f470 f i wxmswd:filefn.obj
 0001:0007e480       ??_GwxStringList@@UAEPAXI@Z 0047f480 f i wxmswd:filefn.obj
 0001:0007e480       ??_EwxStringList@@UAEPAXI@Z 0047f480 f i wxmswd:filefn.obj
 0001:0007e4b0       ??1wxStringList@@UAE@XZ    0047f4b0 f i wxmswd:filefn.obj
 0001:0007e4d0       ?wxIsPathSeparator@@YA_ND@Z 0047f4d0 f i wxmswd:filefn.obj
 0001:0007e500       ?Add@wxPathList@@QAEPAVwxObjectListNode@@PBD@Z 0047f500 f i wxmswd:filefn.obj
 0001:0007e520       ?GetClassInfo@wxPathList@@UBEPAVwxClassInfo@@XZ 0047f520 f i wxmswd:filefn.obj
 0001:0007e606       ?wxConstructorForwxColour@@YAPAVwxObject@@XZ 0047f606 f   wxmswd:colour.obj
 0001:0007e6a9       ??0wxColour@@QAE@XZ        0047f6a9 f   wxmswd:colour.obj
 0001:0007e6ee       ??0wxColour@@QAE@EEE@Z     0047f6ee f   wxmswd:colour.obj
 0001:0007e75e       ??0wxColour@@QAE@ABV0@@Z   0047f75e f   wxmswd:colour.obj
 0001:0007e7bb       ??4wxColour@@QAEAAV0@ABV0@@Z 0047f7bb f   wxmswd:colour.obj
 0001:0007e807       ?InitFromName@wxColour@@AAEXABVwxString@@@Z 0047f807 f   wxmswd:colour.obj
 0001:0007e8ab       ??1wxColour@@UAE@XZ        0047f8ab f   wxmswd:colour.obj
 0001:0007e8c7       ?Set@wxColour@@QAEXEEE@Z   0047f8c7 f   wxmswd:colour.obj
 0001:0007e96f       ?wxConstructorForwxValidator@@YAPAVwxObject@@XZ 0047f96f f   wxmswd:validate.obj
 0001:0007ea12       ??0wxValidator@@QAE@XZ     0047fa12 f   wxmswd:validate.obj
 0001:0007ea3b       ??1wxValidator@@UAE@XZ     0047fa3b f   wxmswd:validate.obj
 0001:0007ea60       ??_EwxValidator@@UAEPAXI@Z 0047fa60 f i wxmswd:validate.obj
 0001:0007ea60       ??_GwxValidator@@UAEPAXI@Z 0047fa60 f i wxmswd:validate.obj
 0001:0007ea90       ?Clone@wxValidator@@UBEPAVwxObject@@XZ 0047fa90 f i wxmswd:validate.obj
 0001:0007eaa0       ?Validate@wxValidator@@UAE_NPAVwxWindow@@@Z 0047faa0 f i wxmswd:validate.obj
 0001:0007eab0       ?TransferToWindow@wxValidator@@UAE_NXZ 0047fab0 f i wxmswd:validate.obj
 0001:0007eac0       ?TransferFromWindow@wxValidator@@UAE_NXZ 0047fac0 f i wxmswd:validate.obj
 0001:0007ead0       ?GetClassInfo@wxValidator@@UBEPAVwxClassInfo@@XZ 0047fad0 f i wxmswd:validate.obj
 0001:0007ebb6       ?copystring@@YAPADPBD@Z    0047fbb6 f   wxmswd:utilscmn.obj
 0001:0007ec0b       ?wxNewId@@YAJXZ            0047fc0b f   wxmswd:utilscmn.obj
 0001:0007ec24       ?wxGetCurrentId@@YAJXZ     0047fc24 f   wxmswd:utilscmn.obj
 0001:0007ec2e       ?wxRegisterId@@YAXJ@Z      0047fc2e f   wxmswd:utilscmn.obj
 0001:0007ec4a       ?StringToFloat@@YAXPBDPAM@Z 0047fc4a f   wxmswd:utilscmn.obj
 0001:0007ec79       ?StringToDouble@@YAXPBDPAN@Z 0047fc79 f   wxmswd:utilscmn.obj
 0001:0007eca8       ?FloatToString@@YAPADMPBD@Z 0047fca8 f   wxmswd:utilscmn.obj
 0001:0007eccd       ?DoubleToString@@YAPADNPBD@Z 0047fccd f   wxmswd:utilscmn.obj
 0001:0007ecf1       ?StringToInt@@YAXPBDPAH@Z  0047fcf1 f   wxmswd:utilscmn.obj
 0001:0007ed22       ?StringToLong@@YAXPBDPAJ@Z 0047fd22 f   wxmswd:utilscmn.obj
 0001:0007ed53       ?IntToString@@YAPADH@Z     0047fd53 f   wxmswd:utilscmn.obj
 0001:0007ed74       ?LongToString@@YAPADJ@Z    0047fd74 f   wxmswd:utilscmn.obj
 0001:0007ed95       ?wxHexToDec@@YAHABVwxString@@@Z 0047fd95 f   wxmswd:utilscmn.obj
 0001:0007ee24       ?wxDecToHex@@YAXHPAD@Z     0047fe24 f   wxmswd:utilscmn.obj
 0001:0007ee79       ?wxDecToHex@@YA?AVwxString@@H@Z 0047fe79 f   wxmswd:utilscmn.obj
 0001:0007eea2       ?wxNow@@YA?AVwxString@@XZ  0047fea2 f   wxmswd:utilscmn.obj
 0001:0007eee4       ?wxStripMenuCodes@@YAPADPBDPAD@Z 0047fee4 f   wxmswd:utilscmn.obj
 0001:0007ef5f       ?wxStripMenuCodes@@YA?AVwxString@@ABV1@@Z 0047ff5f f   wxmswd:utilscmn.obj
 0001:0007f024       ?wxFindWindowByLabel@@YAPAVwxWindow@@ABVwxString@@PAV1@@Z 00480024 f   wxmswd:utilscmn.obj
 0001:0007f039       ?wxFindWindowByName@@YAPAVwxWindow@@ABVwxString@@PAV1@@Z 00480039 f   wxmswd:utilscmn.obj
 0001:0007f04e       ?wxFindMenuItemId@@YAHPAVwxFrame@@ABVwxString@@1@Z 0048004e f   wxmswd:utilscmn.obj
 0001:0007f088       ?wxFindWindowAtPoint@@YAPAVwxWindow@@PAV1@ABVwxPoint@@@Z 00480088 f   wxmswd:utilscmn.obj
 0001:0007f1e6       ?wxGenericFindWindowAtPoint@@YAPAVwxWindow@@ABVwxPoint@@@Z 004801e6 f   wxmswd:utilscmn.obj
 0001:0007f23b       ?wxMessageBox@@YAHABVwxString@@0JPAVwxWindow@@HH@Z 0048023b f   wxmswd:utilscmn.obj
 0001:0007f37f       ?wxGetTextFromUser@@YA?AVwxString@@ABV1@00PAVwxWindow@@HH_N@Z 0048037f f   wxmswd:utilscmn.obj
 0001:0007f41f       ?wxGetPasswordFromUser@@YA?AVwxString@@ABV1@00PAVwxWindow@@@Z 0048041f f   wxmswd:utilscmn.obj
 0001:0007f4b3       ?wxGetColourFromUser@@YA?AVwxColour@@PAVwxWindow@@ABV1@@Z 004804b3 f   wxmswd:utilscmn.obj
 0001:0007f57c       ?wxGetFontFromUser@@YA?AVwxFont@@PAVwxWindow@@ABV1@@Z 0048057c f   wxmswd:utilscmn.obj
 0001:0007f632       ?wxEnableTopLevelWindows@@YAX_N@Z 00480632 f   wxmswd:utilscmn.obj
 0001:0007f67b       ??0wxWindowDisabler@@QAE@PAVwxWindow@@@Z 0048067b f   wxmswd:utilscmn.obj
 0001:0007f732       ??1wxWindowDisabler@@QAE@XZ 00480732 f   wxmswd:utilscmn.obj
 0001:0007f7c3       ?wxSafeYield@@YA_NPAVwxWindow@@_N@Z 004807c3 f   wxmswd:utilscmn.obj
 0001:0007f809       ?wxSetDetectableAutoRepeat@@YA_N_N@Z 00480809 f   wxmswd:utilscmn.obj
 0001:0007f810       ?wxGetInstallPrefix@@YAPBDXZ 00480810 f   wxmswd:utilscmn.obj
 0001:0007f883       ?wxGetDataDir@@YA?AVwxString@@XZ 00480883 f   wxmswd:utilscmn.obj
 0001:0007f91d       ?wxGetEmailAddress@@YA_NPADH@Z 0048091d f   wxmswd:utilscmn.obj
 0001:0007f98b       ?wxGetEmailAddress@@YA?AVwxString@@XZ 0048098b f   wxmswd:utilscmn.obj
 0001:0007fa1e       ?wxGetUserId@@YA?AVwxString@@XZ 00480a1e f   wxmswd:utilscmn.obj
 0001:0007fa81       ?wxGetUserName@@YA?AVwxString@@XZ 00480a81 f   wxmswd:utilscmn.obj
 0001:0007fae4       ?wxGetHostName@@YA?AVwxString@@XZ 00480ae4 f   wxmswd:utilscmn.obj
 0001:0007fb47       ?wxGetFullHostName@@YA?AVwxString@@XZ 00480b47 f   wxmswd:utilscmn.obj
 0001:0007fbaa       ?wxGetHomeDir@@YA?AVwxString@@XZ 00480baa f   wxmswd:utilscmn.obj
 0001:0007fbdd       ?wxExecute@@YAJABVwxString@@AAVwxArrayString@@@Z 00480bdd f   wxmswd:utilscmn.obj
 0001:0007fdba       ?wxExecute@@YAJABVwxString@@AAVwxArrayString@@1@Z 00480dba f   wxmswd:utilscmn.obj
 0001:0007fdd3       ?wxYield@@YA_NXZ           00480dd3 f   wxmswd:utilscmn.obj
 0001:0007fe12       ?wxYieldIfNeeded@@YA_NXZ   00480e12 f   wxmswd:utilscmn.obj
 0001:0007fe60       ?GetPage@wxNotebookBase@@QAEPAVwxWindow@@H@Z 00480e60 f i wxmswd:utilscmn.obj
 0001:0007fe90       ??AwxArrayPages@@QBEAAPAVwxWindow@@I@Z 00480e90 f i wxmswd:utilscmn.obj
 0001:0007feb0       ??1wxMessageDialog@@UAE@XZ 00480eb0 f i wxmswd:utilscmn.obj
 0001:0007fee0       ??1wxTextEntryDialog@@UAE@XZ 00480ee0 f i wxmswd:utilscmn.obj
 0001:0007ff10       ?GetColourData@wxColourDialog@@QAEAAVwxColourData@@XZ 00480f10 f i wxmswd:utilscmn.obj
 0001:0007ff30       ??1wxColourDialog@@UAE@XZ  00480f30 f i wxmswd:utilscmn.obj
 0001:0007ff60       ?GetFontData@wxFontDialogBase@@QAEAAVwxFontData@@XZ 00480f60 f i wxmswd:utilscmn.obj
 0001:0007ff80       ??0wxFontDialog@@QAE@PAVwxWindow@@ABVwxFontData@@@Z 00480f80 f i wxmswd:utilscmn.obj
 0001:0007ffc0       ??0wxFontDialogBase@@QAE@PAVwxWindow@@ABVwxFontData@@@Z 00480fc0 f i wxmswd:utilscmn.obj
 0001:00080010       ?Create@wxFontDialogBase@@QAE_NPAVwxWindow@@ABVwxFontData@@@Z 00481010 f i wxmswd:utilscmn.obj
 0001:00080040       ?Create@wxFontDialogBase@@QAE_NPAVwxWindow@@@Z 00481040 f i wxmswd:utilscmn.obj
 0001:00080060       ?DoCreate@wxFontDialogBase@@MAE_NPAVwxWindow@@@Z 00481060 f i wxmswd:utilscmn.obj
 0001:00080080       ?InitFontData@wxFontDialogBase@@IAEXPBVwxFontData@@@Z 00481080 f i wxmswd:utilscmn.obj
 0001:000800b0       ??_EwxFontDialogBase@@UAEPAXI@Z 004810b0 f i wxmswd:utilscmn.obj
 0001:000800b0       ??_GwxFontDialogBase@@UAEPAXI@Z 004810b0 f i wxmswd:utilscmn.obj
 0001:000800e0       ?GetClassInfo@wxFontDialog@@UBEPAVwxClassInfo@@XZ 004810e0 f i wxmswd:utilscmn.obj
 0001:000800f0       ??_EwxFontDialog@@UAEPAXI@Z 004810f0 f i wxmswd:utilscmn.obj
 0001:000800f0       ??_GwxFontDialog@@UAEPAXI@Z 004810f0 f i wxmswd:utilscmn.obj
 0001:00080120       ??1wxFontDialog@@UAE@XZ    00481120 f i wxmswd:utilscmn.obj
 0001:00080140       ??0wxProcess@@QAE@PAVwxEvtHandler@@H@Z 00481140 f i wxmswd:utilscmn.obj
 0001:00080180       ?Redirect@wxProcess@@QAEXXZ 00481180 f i wxmswd:utilscmn.obj
 0001:000801a0       ?GetInputStream@wxProcess@@QBEPAVwxInputStream@@XZ 004811a0 f i wxmswd:utilscmn.obj
 0001:000801c0       ?GetErrorStream@wxProcess@@QBEPAVwxInputStream@@XZ 004811c0 f i wxmswd:utilscmn.obj
 0001:000801e0       ?GetClassInfo@wxProcess@@UBEPAVwxClassInfo@@XZ 004811e0 f i wxmswd:utilscmn.obj
 0001:000801f0       ??_GwxProcess@@UAEPAXI@Z   004811f0 f i wxmswd:utilscmn.obj
 0001:000801f0       ??_EwxProcess@@UAEPAXI@Z   004811f0 f i wxmswd:utilscmn.obj
 0001:00080220       ?Previous@wxNodeBase@@QBEPAVwxObjectListNode@@XZ 00481220 f i wxmswd:utilscmn.obj
 0001:00080240       ?GetPrevious@wxNodeBase@@IBEPAV1@XZ 00481240 f i wxmswd:utilscmn.obj
 0001:00080260       ?Last@wxListBase@@QBEPAVwxObjectListNode@@XZ 00481260 f i wxmswd:utilscmn.obj
 0001:00080280       ?GetLast@wxListBase@@IBEPAVwxNodeBase@@XZ 00481280 f i wxmswd:utilscmn.obj
 0001:000802a0       ?Inside@wxRect@@QBE_NABVwxPoint@@@Z 004812a0 f i wxmswd:utilscmn.obj
 0001:000802d0       ?ClientToScreen@wxWindowBase@@QBE?AVwxPoint@@ABV2@@Z 004812d0 f i wxmswd:utilscmn.obj
 0001:00080330       ?SetChooseFull@wxColourData@@QAEX_N@Z 00481330 f i wxmswd:utilscmn.obj
 0001:00080350       ?SetColour@wxColourData@@QAEXABVwxColour@@@Z 00481350 f i wxmswd:utilscmn.obj
 0001:00080370       ?GetColour@wxColourData@@QAEAAVwxColour@@XZ 00481370 f i wxmswd:utilscmn.obj
 0001:00080390       ??4wxFontData@@QAEAAV0@ABV0@@Z 00481390 f i wxmswd:utilscmn.obj
 0001:00080440       ??4wxObject@@QAEAAV0@ABV0@@Z 00481440 f i wxmswd:utilscmn.obj
 0001:00080470       ?SetInitialFont@wxFontData@@QAEXABVwxFont@@@Z 00481470 f i wxmswd:utilscmn.obj
 0001:00080490       ?GetChosenFont@wxFontData@@QBE?AVwxFont@@XZ 00481490 f i wxmswd:utilscmn.obj
 0001:000804b0       ??4wxNativeEncodingInfo@@QAEAAU0@ABU0@@Z 004814b0 f i wxmswd:utilscmn.obj
 0001:000804f0       ?GetValue@wxTextEntryDialog@@QBE?AVwxString@@XZ 004814f0 f i wxmswd:utilscmn.obj
 0001:000805f6       ?wxConstructorForwxFont@@YAPAVwxObject@@XZ 004815f6 f   wxmswd:font.obj
 0001:00080699       ?Init@wxFontRefData@@IAEXHHHH_NABVwxString@@W4wxFontEncoding@@@Z 00481699 f   wxmswd:font.obj
 0001:00080729       ?Init@wxFontRefData@@IAEXABUwxNativeFontInfo@@K@Z 00481729 f   wxmswd:font.obj
 0001:00080764       ??1wxFontRefData@@UAE@XZ   00481764 f   wxmswd:font.obj
 0001:00080793       ?Alloc@wxFontRefData@@QAE_NPAVwxFont@@@Z 00481793 f   wxmswd:font.obj
 0001:0008081e       ?Free@wxFontRefData@@QAEXXZ 0048181e f   wxmswd:font.obj
 0001:0008087e       ?Init@wxNativeFontInfo@@QAEXXZ 0048187e f   wxmswd:font.obj
 0001:00080899       ?GetPointSize@wxNativeFontInfo@@QBEHXZ 00481899 f   wxmswd:font.obj
 0001:000808f1       ?GetStyle@wxNativeFontInfo@@QBE?AW4wxFontStyle@@XZ 004818f1 f   wxmswd:font.obj
 0001:00080910       ?GetWeight@wxNativeFontInfo@@QBE?AW4wxFontWeight@@XZ 00481910 f   wxmswd:font.obj
 0001:00080946       ?GetUnderlined@wxNativeFontInfo@@QBE_NXZ 00481946 f   wxmswd:font.obj
 0001:00080961       ?GetFaceName@wxNativeFontInfo@@QBE?AVwxString@@XZ 00481961 f   wxmswd:font.obj
 0001:00080982       ?GetFamily@wxNativeFontInfo@@QBE?AW4wxFontFamily@@XZ 00481982 f   wxmswd:font.obj
 0001:00080a70       ?GetEncoding@wxNativeFontInfo@@QBE?AW4wxFontEncoding@@XZ 00481a70 f   wxmswd:font.obj
 0001:00080a8c       ?SetPointSize@wxNativeFontInfo@@QAEXH@Z 00481a8c f   wxmswd:font.obj
 0001:00080ade       ?SetStyle@wxNativeFontInfo@@QAEXW4wxFontStyle@@@Z 00481ade f   wxmswd:font.obj
 0001:00080b40       ?SetWeight@wxNativeFontInfo@@QAEXW4wxFontWeight@@@Z 00481b40 f   wxmswd:font.obj
 0001:00080bb4       ?SetUnderlined@wxNativeFontInfo@@QAEX_N@Z 00481bb4 f   wxmswd:font.obj
 0001:00080bca       ?SetFaceName@wxNativeFontInfo@@QAEXVwxString@@@Z 00481bca f   wxmswd:font.obj
 0001:00080bfa       ?SetFamily@wxNativeFontInfo@@QAEXW4wxFontFamily@@@Z 00481bfa f   wxmswd:font.obj
 0001:00080d02       ?SetEncoding@wxNativeFontInfo@@QAEXW4wxFontEncoding@@@Z 00481d02 f   wxmswd:font.obj
 0001:00080dba       ?FromString@wxNativeFontInfo@@QAE_NABVwxString@@@Z 00481dba f   wxmswd:font.obj
 0001:0008138b       ?ToString@wxNativeFontInfo@@QBE?AVwxString@@XZ 0048238b f   wxmswd:font.obj
 0001:0008143d       ?Init@wxFont@@IAEXXZ       0048243d f   wxmswd:font.obj
 0001:00081448       ?Create@wxFont@@QAE_NABUwxNativeFontInfo@@K@Z 00482448 f   wxmswd:font.obj
 0001:000814a4       ??0wxFont@@QAE@ABVwxString@@@Z 004824a4 f   wxmswd:font.obj
 0001:000814f2       ?Create@wxFont@@QAE_NHHHH_NABVwxString@@W4wxFontEncoding@@@Z 004824f2 f   wxmswd:font.obj
 0001:0008157b       ??1wxFont@@UAE@XZ          0048257b f   wxmswd:font.obj
 0001:00081597       ?RealizeResource@wxFont@@UAE_NXZ 00482597 f   wxmswd:font.obj
 0001:000815c8       ?FreeResource@wxFont@@UAE_N_N@Z 004825c8 f   wxmswd:font.obj
 0001:000815f9       ?GetResourceHandle@wxFont@@UBEKXZ 004825f9 f   wxmswd:font.obj
 0001:0008160c       ?GetHFONT@wxFont@@QBEKXZ   0048260c f   wxmswd:font.obj
 0001:00081643       ?IsFree@wxFont@@UBE_NXZ    00482643 f   wxmswd:font.obj
 0001:00081682       ?Unshare@wxFont@@IAEXXZ    00482682 f   wxmswd:font.obj
 0001:00081711       ?SetPointSize@wxFont@@UAEXH@Z 00482711 f   wxmswd:font.obj
 0001:00081744       ?SetFamily@wxFont@@UAEXH@Z 00482744 f   wxmswd:font.obj
 0001:00081777       ?SetStyle@wxFont@@UAEXH@Z  00482777 f   wxmswd:font.obj
 0001:000817aa       ?SetWeight@wxFont@@UAEXH@Z 004827aa f   wxmswd:font.obj
 0001:000817dd       ?SetFaceName@wxFont@@UAEXABVwxString@@@Z 004827dd f   wxmswd:font.obj
 0001:00081810       ?SetUnderlined@wxFont@@UAEX_N@Z 00482810 f   wxmswd:font.obj
 0001:00081843       ?SetEncoding@wxFont@@UAEXW4wxFontEncoding@@@Z 00482843 f   wxmswd:font.obj
 0001:00081876       ?SetNativeFontInfo@wxFont@@UAEXABUwxNativeFontInfo@@@Z 00482876 f   wxmswd:font.obj
 0001:000818cb       ?GetPointSize@wxFont@@UBEHXZ 004828cb f   wxmswd:font.obj
 0001:00081924       ?GetFamily@wxFont@@UBEHXZ  00482924 f   wxmswd:font.obj
 0001:0008197d       ?GetStyle@wxFont@@UBEHXZ   0048297d f   wxmswd:font.obj
 0001:000819d6       ?GetWeight@wxFont@@UBEHXZ  004829d6 f   wxmswd:font.obj
 0001:00081a2f       ?GetUnderlined@wxFont@@UBE_NXZ 00482a2f f   wxmswd:font.obj
 0001:00081a88       ?GetFaceName@wxFont@@UBE?AVwxString@@XZ 00482a88 f   wxmswd:font.obj
 0001:00081afa       ?GetEncoding@wxFont@@UBE?AW4wxFontEncoding@@XZ 00482afa f   wxmswd:font.obj
 0001:00081b53       ?GetNativeFontInfo@wxFont@@UBEPAUwxNativeFontInfo@@XZ 00482b53 f   wxmswd:font.obj
 0001:00081bc0       ?IsFixedWidth@wxFont@@UBE_NXZ 00482bc0 f   wxmswd:font.obj
 0001:00081c20       ??_EwxFontRefData@@UAEPAXI@Z 00482c20 f i wxmswd:font.obj
 0001:00081c20       ??_GwxFontRefData@@UAEPAXI@Z 00482c20 f i wxmswd:font.obj
 0001:00081c50       ??0ScreenHDC@@QAE@XZ       00482c50 f i wxmswd:font.obj
 0001:00081c70       ??1ScreenHDC@@QAE@XZ       00482c70 f i wxmswd:font.obj
 0001:00081c90       ??BScreenHDC@@QBEPAUHDC__@@XZ 00482c90 f i wxmswd:font.obj
 0001:00081ca0       ??0wxFontRefData@@QAE@ABUwxNativeFontInfo@@K@Z 00482ca0 f i wxmswd:font.obj
 0001:00081cf0       ??0wxNativeFontInfo@@QAE@XZ 00482cf0 f i wxmswd:font.obj
 0001:00081d10       ??0wxFontRefData@@QAE@HHHH_NABVwxString@@W4wxFontEncoding@@@Z 00482d10 f i wxmswd:font.obj
 0001:00081d70       ?GetHFONT@wxFontRefData@@QBEKXZ 00482d70 f i wxmswd:font.obj
 0001:00081d90       ??0wxFontRefData@@QAE@XZ   00482d90 f i wxmswd:font.obj
 0001:00081e00       ??0wxFontRefData@@QAE@ABV0@@Z 00482e00 f i wxmswd:font.obj
 0001:00081e90       ?SetPointSize@wxFontRefData@@QAEXH@Z 00482e90 f i wxmswd:font.obj
 0001:00081ed0       ?SetFamily@wxFontRefData@@QAEXH@Z 00482ed0 f i wxmswd:font.obj
 0001:00081ef0       ?SetStyle@wxFontRefData@@QAEXH@Z 00482ef0 f i wxmswd:font.obj
 0001:00081f30       ?SetWeight@wxFontRefData@@QAEXH@Z 00482f30 f i wxmswd:font.obj
 0001:00081f70       ?SetFaceName@wxFontRefData@@QAEXABVwxString@@@Z 00482f70 f i wxmswd:font.obj
 0001:00081fc0       ?SetUnderlined@wxFontRefData@@QAEX_N@Z 00482fc0 f i wxmswd:font.obj
 0001:00082000       ?SetEncoding@wxFontRefData@@QAEXW4wxFontEncoding@@@Z 00483000 f i wxmswd:font.obj
 0001:00082040       ??4wxFontRefData@@QAEAAV0@ABV0@@Z 00483040 f i wxmswd:font.obj
 0001:000820f0       ??4wxGDIRefData@@QAEAAV0@ABV0@@Z 004830f0 f i wxmswd:font.obj
 0001:00082110       ??4wxObjectRefData@@QAEAAV0@ABV0@@Z 00483110 f i wxmswd:font.obj
 0001:00082130       ?GetPointSize@wxFontRefData@@QBEHXZ 00483130 f i wxmswd:font.obj
 0001:00082170       ?GetFamily@wxFontRefData@@QBEHXZ 00483170 f i wxmswd:font.obj
 0001:00082190       ?GetStyle@wxFontRefData@@QBEHXZ 00483190 f i wxmswd:font.obj
 0001:000821d0       ?GetWeight@wxFontRefData@@QBEHXZ 004831d0 f i wxmswd:font.obj
 0001:00082210       ?GetUnderlined@wxFontRefData@@QBE_NXZ 00483210 f i wxmswd:font.obj
 0001:00082250       ?GetFaceName@wxFontRefData@@QBE?AVwxString@@XZ 00483250 f i wxmswd:font.obj
 0001:000822c0       ?GetEncoding@wxFontRefData@@QBE?AW4wxFontEncoding@@XZ 004832c0 f i wxmswd:font.obj
 0001:00082300       ?HasNativeFontInfo@wxFontRefData@@QBE_NXZ 00483300 f i wxmswd:font.obj
 0001:00082320       ?GetNativeFontInfo@wxFontRefData@@QBEABUwxNativeFontInfo@@XZ 00483320 f i wxmswd:font.obj
 0001:00082340       ??9@YA_NABVwxString@@D@Z   00483340 f i wxmswd:font.obj
 0001:00082360       ?IsSameAs@wxString@@QBE_ND_N@Z 00483360 f i wxmswd:font.obj
 0001:00082400       ??0wxNativeEncodingInfo@@QAE@XZ 00483400 f i wxmswd:font.obj
 0001:00082430       ?GetFontData@wxFontBase@@IBEPAVwxFontRefData@@XZ 00483430 f i wxmswd:font.obj
 0001:00082450       ??1wxNativeEncodingInfo@@QAE@XZ 00483450 f i wxmswd:font.obj
 0001:00082546       ?wxConstructorForwxBitmap@@YAPAVwxObject@@XZ 00483546 f   wxmswd:bitmap.obj
 0001:000825e9       ?wxConstructorForwxMask@@YAPAVwxObject@@XZ 004835e9 f   wxmswd:bitmap.obj
 0001:0008268c       ?wxConstructorForwxBitmapHandler@@YAPAVwxObject@@XZ 0048368c f   wxmswd:bitmap.obj
 0001:0008272f       ??0wxBitmapRefData@@QAE@XZ 0048372f f   wxmswd:bitmap.obj
 0001:0008278b       ?Free@wxBitmapRefData@@UAEXXZ 0048378b f   wxmswd:bitmap.obj
 0001:0008283e       ?Init@wxBitmap@@IAEXXZ     0048383e f   wxmswd:bitmap.obj
 0001:00082849       ?CopyFromIconOrCursor@wxBitmap@@AAE_NABVwxGDIImage@@@Z 00483849 f   wxmswd:bitmap.obj
 0001:00082970       ?CopyFromCursor@wxBitmap@@QAE_NABVwxCursor@@@Z 00483970 f   wxmswd:bitmap.obj
 0001:000829a6       ?CopyFromIcon@wxBitmap@@QAE_NABVwxIcon@@@Z 004839a6 f   wxmswd:bitmap.obj
 0001:000829dc       ??1wxBitmap@@UAE@XZ        004839dc f   wxmswd:bitmap.obj
 0001:000829f8       ??0wxBitmap@@QAE@QBDHHH@Z  004839f8 f   wxmswd:bitmap.obj
 0001:00082c11       ?CreateFromXpm@wxBitmap@@IAE_NPAPBD@Z 00483c11 f   wxmswd:bitmap.obj
 0001:00082d01       ??0wxBitmap@@QAE@HHH@Z     00483d01 f   wxmswd:bitmap.obj
 0001:00082d3e       ??0wxBitmap@@QAE@PAXJHHH@Z 00483d3e f   wxmswd:bitmap.obj
 0001:00082d83       ??0wxBitmap@@QAE@ABVwxString@@W4wxBitmapType@@@Z 00483d83 f   wxmswd:bitmap.obj
 0001:00082dbc       ?Create@wxBitmap@@UAE_NHHH@Z 00483dbc f   wxmswd:bitmap.obj
 0001:00082f0e       ?CreateFromImage@wxBitmap@@IAE_NABVwxImage@@H@Z 00483f0e f   wxmswd:bitmap.obj
 0001:0008374a       ?ConvertToImage@wxBitmap@@QBE?AVwxImage@@XZ 0048474a f   wxmswd:bitmap.obj
 0001:00083c2c       ?LoadFile@wxBitmap@@UAE_NABVwxString@@J@Z 00484c2c f   wxmswd:bitmap.obj
 0001:00083d21       ?Create@wxBitmap@@UAE_NPAXJHHH@Z 00484d21 f   wxmswd:bitmap.obj
 0001:00083dc3       ?SaveFile@wxBitmap@@UAE_NABVwxString@@HPBVwxPalette@@@Z 00484dc3 f   wxmswd:bitmap.obj
 0001:00083e59       ?GetSubBitmap@wxBitmap@@QBE?AV1@ABVwxRect@@@Z 00484e59 f   wxmswd:bitmap.obj
 0001:00084156       ?SetQuality@wxBitmap@@QAEXH@Z 00485156 f   wxmswd:bitmap.obj
 0001:00084179       ?SetPalette@wxBitmap@@QAEXABVwxPalette@@@Z 00485179 f   wxmswd:bitmap.obj
 0001:000841a4       ?SetMask@wxBitmap@@QAEXPAVwxMask@@@Z 004851a4 f   wxmswd:bitmap.obj
 0001:000841c7       ?GetBitmapForDC@wxBitmap@@QBE?AV1@AAVwxDC@@@Z 004851c7 f   wxmswd:bitmap.obj
 0001:00084453       ??0wxMask@@QAE@XZ          00485453 f   wxmswd:bitmap.obj
 0001:0008447c       ??0wxMask@@QAE@ABVwxBitmap@@ABVwxColour@@@Z 0048547c f   wxmswd:bitmap.obj
 0001:000844b7       ??0wxMask@@QAE@ABVwxBitmap@@H@Z 004854b7 f   wxmswd:bitmap.obj
 0001:000844f2       ??0wxMask@@QAE@ABVwxBitmap@@@Z 004854f2 f   wxmswd:bitmap.obj
 0001:00084529       ??1wxMask@@UAE@XZ          00485529 f   wxmswd:bitmap.obj
 0001:0008455b       ?Create@wxMask@@QAE_NABVwxBitmap@@@Z 0048555b f   wxmswd:bitmap.obj
 0001:00084692       ?Create@wxMask@@QAE_NABVwxBitmap@@H@Z 00485692 f   wxmswd:bitmap.obj
 0001:0008474f       ?Create@wxMask@@QAE_NABVwxBitmap@@ABVwxColour@@@Z 0048574f f   wxmswd:bitmap.obj
 0001:00084991       ?Create@wxBitmapHandler@@UAE_NPAVwxGDIImage@@PAXJHHH@Z 00485991 f   wxmswd:bitmap.obj
 0001:000849e9       ?Load@wxBitmapHandler@@UAE_NPAVwxGDIImage@@ABVwxString@@JHH@Z 004859e9 f   wxmswd:bitmap.obj
 0001:00084a3d       ?Save@wxBitmapHandler@@UAE_NPAVwxGDIImage@@ABVwxString@@H@Z 00485a3d f   wxmswd:bitmap.obj
 0001:00084a8b       ?Create@wxBitmapHandler@@UAE_NPAVwxBitmap@@PAXJHHH@Z 00485a8b f   wxmswd:bitmap.obj
 0001:00084a9a       ?LoadFile@wxBitmapHandler@@UAE_NPAVwxBitmap@@ABVwxString@@JHH@Z 00485a9a f   wxmswd:bitmap.obj
 0001:00084aa9       ?SaveFile@wxBitmapHandler@@UAE_NPAVwxBitmap@@ABVwxString@@HPBVwxPalette@@@Z 00485aa9 f   wxmswd:bitmap.obj
 0001:00084ab8       ?wxCreateDIB@@YA_NJJJPAUHPALETTE__@@PAPAUtagBITMAPINFO@@@Z 00485ab8 f   wxmswd:bitmap.obj
 0001:00084bef       ?wxFreeDIB@@YAXPAUtagBITMAPINFO@@@Z 00485bef f   wxmswd:bitmap.obj
 0001:00084c01       ?wxInvertMask@@YAPAUHBITMAP__@@PAU1@HH@Z 00485c01 f   wxmswd:bitmap.obj
 0001:00084da0       ??0wxXPMDecoder@@QAE@XZ    00485da0 f i wxmswd:bitmap.obj
 0001:00084db0       ??1wxXPMDecoder@@QAE@XZ    00485db0 f i wxmswd:bitmap.obj
 0001:00084dc0       ?wxColourToPalRGB@@YAKABVwxColour@@@Z 00485dc0 f i wxmswd:bitmap.obj
 0001:00084e10       ?GetObject@@YAHPAXH0@Z     00485e10 f i wxmswd:bitmap.obj
 0001:00084e30       ?GetDepth@wxGDIImage@@QBEHXZ 00485e30 f i wxmswd:bitmap.obj
 0001:00084e70       ?SetWidth@wxGDIImage@@QAEXH@Z 00485e70 f i wxmswd:bitmap.obj
 0001:00084ea0       ?SetHeight@wxGDIImage@@QAEXH@Z 00485ea0 f i wxmswd:bitmap.obj
 0001:00084ed0       ?SetDepth@wxGDIImage@@QAEXH@Z 00485ed0 f i wxmswd:bitmap.obj
 0001:00084f00       ??_GwxBitmapRefData@@UAEPAXI@Z 00485f00 f i wxmswd:bitmap.obj
 0001:00084f00       ??_EwxBitmapRefData@@UAEPAXI@Z 00485f00 f i wxmswd:bitmap.obj
 0001:00084f30       ??1wxBitmapRefData@@UAE@XZ 00485f30 f i wxmswd:bitmap.obj
 0001:00084f60       ?GetPalette@wxBitmap@@QBEPAVwxPalette@@XZ 00485f60 f i wxmswd:bitmap.obj
 0001:00084fa0       ?SetHBITMAP@wxBitmap@@QAEXK@Z 00485fa0 f i wxmswd:bitmap.obj
 0001:00084fc0       ?GetSelectedInto@wxBitmap@@QBEPAVwxDC@@XZ 00485fc0 f i wxmswd:bitmap.obj
 0001:00085000       ??0wxMask@@QAE@K@Z         00486000 f i wxmswd:bitmap.obj
 0001:00085030       ?SetMaskBitmap@wxMask@@QAEXK@Z 00486030 f i wxmswd:bitmap.obj
 0001:00085050       ?GetClassInfo@wxMask@@UBEPAVwxClassInfo@@XZ 00486050 f i wxmswd:bitmap.obj
 0001:00085060       ??_GwxMask@@UAEPAXI@Z      00486060 f i wxmswd:bitmap.obj
 0001:00085060       ??_EwxMask@@UAEPAXI@Z      00486060 f i wxmswd:bitmap.obj
 0001:00085090       ??0wxBitmapHandler@@QAE@XZ 00486090 f i wxmswd:bitmap.obj
 0001:000850c0       ??0wxGDIImageHandler@@QAE@XZ 004860c0 f i wxmswd:bitmap.obj
 0001:00085100       ??_GwxGDIImageHandler@@UAEPAXI@Z 00486100 f i wxmswd:bitmap.obj
 0001:00085100       ??_EwxGDIImageHandler@@UAEPAXI@Z 00486100 f i wxmswd:bitmap.obj
 0001:00085130       ??1wxGDIImageHandler@@UAE@XZ 00486130 f i wxmswd:bitmap.obj
 0001:00085160       ?GetClassInfo@wxBitmapHandler@@UBEPAVwxClassInfo@@XZ 00486160 f i wxmswd:bitmap.obj
 0001:00085170       ??_GwxBitmapHandler@@UAEPAXI@Z 00486170 f i wxmswd:bitmap.obj
 0001:00085170       ??_EwxBitmapHandler@@UAEPAXI@Z 00486170 f i wxmswd:bitmap.obj
 0001:000851a0       ??1wxBitmapHandler@@UAE@XZ 004861a0 f i wxmswd:bitmap.obj
 0001:000851c0       ??1wxHtmlHistoryArray@@QAE@XZ 004861c0 f   wxmswd:htmlwin.obj
 0001:000851db       ?DoCopy@wxHtmlHistoryArray@@AAEXABV1@@Z 004861db f   wxmswd:htmlwin.obj
 0001:00085222       ??4wxHtmlHistoryArray@@QAEAAV0@ABV0@@Z 00486222 f   wxmswd:htmlwin.obj
 0001:00085246       ??0wxHtmlHistoryArray@@QAE@ABV0@@Z 00486246 f   wxmswd:htmlwin.obj
 0001:0008526a       ?DoEmpty@wxHtmlHistoryArray@@AAEXXZ 0048626a f   wxmswd:htmlwin.obj
 0001:000852cb       ?RemoveAt@wxHtmlHistoryArray@@QAEXII@Z 004862cb f   wxmswd:htmlwin.obj
 0001:00085372       ?Add@wxHtmlHistoryArray@@QAEXABVwxHtmlHistoryItem@@I@Z 00486372 f   wxmswd:htmlwin.obj
 0001:00085439       ?Insert@wxHtmlHistoryArray@@QAEXABVwxHtmlHistoryItem@@II@Z 00486439 f   wxmswd:htmlwin.obj
 0001:000854f9       ?Index@wxHtmlHistoryArray@@QBEHABVwxHtmlHistoryItem@@_N@Z 004864f9 f   wxmswd:htmlwin.obj
 0001:00085593       ?DeleteData@wxwxHtmlProcessorListNode@@UAEXXZ 00486593 f   wxmswd:htmlwin.obj
 0001:000855d0       ?Init@wxHtmlWindow@@IAEXXZ 004865d0 f   wxmswd:htmlwin.obj
 0001:0008576e       ?Create@wxHtmlWindow@@QAE_NPAVwxWindow@@HABVwxPoint@@ABVwxSize@@JABVwxString@@@Z 0048676e f   wxmswd:htmlwin.obj
 0001:000857e7       ??1wxHtmlWindow@@UAE@XZ    004867e7 f   wxmswd:htmlwin.obj
 0001:00085950       ?SetRelatedFrame@wxHtmlWindow@@QAEXPAVwxFrame@@ABVwxString@@@Z 00486950 f   wxmswd:htmlwin.obj
 0001:0008597b       ?SetRelatedStatusBar@wxHtmlWindow@@QAEXH@Z 0048697b f   wxmswd:htmlwin.obj
 0001:00085994       ?SetFonts@wxHtmlWindow@@QAEXVwxString@@0PBH@Z 00486994 f   wxmswd:htmlwin.obj
 0001:00085a3c       ?SetPage@wxHtmlWindow@@QAE_NABVwxString@@@Z 00486a3c f   wxmswd:htmlwin.obj
 0001:00085d98       ?AppendToPage@wxHtmlWindow@@QAE_NABVwxString@@@Z 00486d98 f   wxmswd:htmlwin.obj
 0001:00085dde       ?LoadPage@wxHtmlWindow@@UAE_NABVwxString@@@Z 00486dde f   wxmswd:htmlwin.obj
 0001:00086569       ?ScrollToAnchor@wxHtmlWindow@@IAE_NABVwxString@@@Z 00487569 f   wxmswd:htmlwin.obj
 0001:00086625       ?OnSetTitle@wxHtmlWindow@@UAEXABVwxString@@@Z 00487625 f   wxmswd:htmlwin.obj
 0001:000866a1       ?CreateLayout@wxHtmlWindow@@IAEXXZ 004876a1 f   wxmswd:htmlwin.obj
 0001:00086851       ?ReadCustomization@wxHtmlWindow@@UAEXPAVwxConfigBase@@VwxString@@@Z 00487851 f   wxmswd:htmlwin.obj
 0001:00086a4f       ?WriteCustomization@wxHtmlWindow@@UAEXPAVwxConfigBase@@VwxString@@@Z 00487a4f f   wxmswd:htmlwin.obj
 0001:00086bd0       ?HistoryBack@wxHtmlWindow@@QAE_NXZ 00487bd0 f   wxmswd:htmlwin.obj
 0001:00086dcd       ?HistoryCanBack@wxHtmlWindow@@QAE_NXZ 00487dcd f   wxmswd:htmlwin.obj
 0001:00086dea       ?HistoryForward@wxHtmlWindow@@QAE_NXZ 00487dea f   wxmswd:htmlwin.obj
 0001:00086ff3       ?HistoryCanForward@wxHtmlWindow@@QAE_NXZ 00487ff3 f   wxmswd:htmlwin.obj
 0001:00087030       ?HistoryClear@wxHtmlWindow@@QAEXXZ 00488030 f   wxmswd:htmlwin.obj
 0001:00087056       ?AddProcessor@wxHtmlWindow@@QAEXPAVwxHtmlProcessor@@@Z 00488056 f   wxmswd:htmlwin.obj
 0001:0008712f       ?AddGlobalProcessor@wxHtmlWindow@@SAXPAVwxHtmlProcessor@@@Z 0048812f f   wxmswd:htmlwin.obj
 0001:0008724e       ?CleanUpStatics@wxHtmlWindow@@KAXXZ 0048824e f   wxmswd:htmlwin.obj
 0001:00087338       ?AddFilter@wxHtmlWindow@@SAXPAVwxHtmlFilter@@@Z 00488338 f   wxmswd:htmlwin.obj
 0001:0008734b       ?OnLinkClicked@wxHtmlWindow@@UAEXABVwxHtmlLinkInfo@@@Z 0048834b f   wxmswd:htmlwin.obj
 0001:0008737d       ?OnCellClicked@wxHtmlWindow@@UAEXPAVwxHtmlCell@@HHABVwxMouseEvent@@@Z 0048837d f   wxmswd:htmlwin.obj
 0001:000873d7       ?OnCellMouseHover@wxHtmlWindow@@UAEXPAVwxHtmlCell@@HH@Z 004883d7 f   wxmswd:htmlwin.obj
 0001:000873e4       ?OnDraw@wxHtmlWindow@@MAEXAAVwxDC@@@Z 004883e4 f   wxmswd:htmlwin.obj
 0001:000874a7       ?OnSize@wxHtmlWindow@@IAEXAAVwxSizeEvent@@@Z 004884a7 f   wxmswd:htmlwin.obj
 0001:000874da       ?OnMouseEvent@wxHtmlWindow@@IAEXAAVwxMouseEvent@@@Z 004884da f   wxmswd:htmlwin.obj
 0001:000875c6       ?OnIdle@wxHtmlWindow@@IAEXAAVwxIdleEvent@@@Z 004885c6 f   wxmswd:htmlwin.obj
 0001:000878a9       ?wxConstructorForwxHtmlWindow@@YAPAVwxObject@@XZ 004888a9 f   wxmswd:htmlwin.obj
 0001:00087952       ?GetEventTable@wxHtmlWindow@@MBEPBUwxEventTable@@XZ 00488952 f   wxmswd:htmlwin.obj
 0001:00087a45       ?wxConstructorForwxHtmlWinModule@@YAPAVwxObject@@XZ 00488a45 f   wxmswd:htmlwin.obj
 0001:00087bf0       ?Empty@wxHtmlHistoryArray@@QAEXXZ 00488bf0 f i wxmswd:htmlwin.obj
 0001:00087c10       ??AwxHtmlHistoryArray@@QBEAAVwxHtmlHistoryItem@@I@Z 00488c10 f i wxmswd:htmlwin.obj
 0001:00087c30       ??_GwxHtmlHistoryItem@@QAEPAXI@Z 00488c30 f i wxmswd:htmlwin.obj
 0001:00087c60       ??1wxHtmlHistoryItem@@QAE@XZ 00488c60 f i wxmswd:htmlwin.obj
 0001:00087c80       ??0wxHtmlHistoryItem@@QAE@ABV0@@Z 00488c80 f i wxmswd:htmlwin.obj
 0001:00087cc0       ?GetData@wxwxHtmlProcessorListNode@@QBEPAVwxHtmlProcessor@@XZ 00488cc0 f i wxmswd:htmlwin.obj
 0001:00087ce0       ??0wxFileSystem@@QAE@XZ    00488ce0 f i wxmswd:htmlwin.obj
 0001:00087d50       ?GetClassInfo@wxFileSystem@@UBEPAVwxClassInfo@@XZ 00488d50 f i wxmswd:htmlwin.obj
 0001:00087d60       ??_GwxFileSystem@@UAEPAXI@Z 00488d60 f i wxmswd:htmlwin.obj
 0001:00087d60       ??_EwxFileSystem@@UAEPAXI@Z 00488d60 f i wxmswd:htmlwin.obj
 0001:00087d90       ??1wxFileSystem@@UAE@XZ    00488d90 f i wxmswd:htmlwin.obj
 0001:00087dc0       ?SetFS@wxHtmlParser@@QAEXPAVwxFileSystem@@@Z 00488dc0 f i wxmswd:htmlwin.obj
 0001:00087de0       ?SetBorders@wxHtmlWindow@@QAEXH@Z 00488de0 f i wxmswd:htmlwin.obj
 0001:00087e00       ??0wxHtmlHistoryArray@@QAE@XZ 00488e00 f i wxmswd:htmlwin.obj
 0001:00087e20       ??_GwxHtmlHistoryArray@@QAEPAXI@Z 00488e20 f i wxmswd:htmlwin.obj
 0001:00087e50       ?SetAlignHor@wxHtmlContainerCell@@QAEXH@Z 00488e50 f i wxmswd:htmlwin.obj
 0001:00087e80       ?IsEnabled@wxHtmlProcessor@@QBE_NXZ 00488e80 f i wxmswd:htmlwin.obj
 0001:00087ea0       ?GetNext@wxwxHtmlProcessorListNode@@QBEPAV1@XZ 00488ea0 f i wxmswd:htmlwin.obj
 0001:00087ec0       ?GetFirst@wxHtmlProcessorList@@QBEPAVwxwxHtmlProcessorListNode@@XZ 00488ec0 f i wxmswd:htmlwin.obj
 0001:00087ee0       ?GetSource@wxHtmlParser@@QAEPAVwxString@@XZ 00488ee0 f i wxmswd:htmlwin.obj
 0001:00087f00       ?GetParser@wxHtmlWindow@@QBEPAVwxHtmlWinParser@@XZ 00488f00 f i wxmswd:htmlwin.obj
 0001:00087f20       ?GetLocation@wxFSFile@@QBEABVwxString@@XZ 00488f20 f i wxmswd:htmlwin.obj
 0001:00087f40       ?GetAnchor@wxFSFile@@QBEABVwxString@@XZ 00488f40 f i wxmswd:htmlwin.obj
 0001:00087f60       ?GetPath@wxFileSystem@@QBE?AVwxString@@XZ 00488f60 f i wxmswd:htmlwin.obj
 0001:00087f80       ??0wxHtmlHistoryItem@@QAE@ABVwxString@@0@Z 00488f80 f i wxmswd:htmlwin.obj
 0001:00087fd0       ?SetPos@wxHtmlHistoryItem@@QAEXH@Z 00488fd0 f i wxmswd:htmlwin.obj
 0001:00087ff0       ?GetPage@wxHtmlHistoryItem@@QBEABVwxString@@XZ 00488ff0 f i wxmswd:htmlwin.obj
 0001:00088000       ?GetAnchor@wxHtmlHistoryItem@@QBEABVwxString@@XZ 00489000 f i wxmswd:htmlwin.obj
 0001:00088020       ?Add@wxHtmlHistoryArray@@QAEXPBVwxHtmlHistoryItem@@@Z 00489020 f i wxmswd:htmlwin.obj
 0001:00088040       ?Add@wxArrayPtrVoid@@QAEXPAXI@Z 00489040 f i wxmswd:htmlwin.obj
 0001:00088060       ?GetParent@wxHtmlCell@@QBEPAVwxHtmlContainerCell@@XZ 00489060 f i wxmswd:htmlwin.obj
 0001:00088080       ?GetPosY@wxHtmlCell@@QBEHXZ 00489080 f i wxmswd:htmlwin.obj
 0001:000880a0       ?GetWidth@wxHtmlCell@@QBEHXZ 004890a0 f i wxmswd:htmlwin.obj
 0001:000880c0       ?GetHeight@wxHtmlCell@@QBEHXZ 004890c0 f i wxmswd:htmlwin.obj
 0001:000880e0       ?Read@wxConfigBase@@QBE?AVwxString@@ABV2@0@Z 004890e0 f i wxmswd:htmlwin.obj
 0001:00088130       ?Read@wxConfigBase@@QBEJABVwxString@@J@Z 00489130 f i wxmswd:htmlwin.obj
 0001:00088160       ?Write@wxConfigBase@@QAE_NABVwxString@@0@Z 00489160 f i wxmswd:htmlwin.obj
 0001:00088180       ?Write@wxConfigBase@@QAE_NABVwxString@@J@Z 00489180 f i wxmswd:htmlwin.obj
 0001:000881a0       ?GetPos@wxHtmlHistoryItem@@QBEHXZ 004891a0 f i wxmswd:htmlwin.obj
 0001:000881c0       ??0wxHtmlProcessorList@@QAE@W4wxKeyType@@@Z 004891c0 f i wxmswd:htmlwin.obj
 0001:000881f0       ?Append@wxHtmlProcessorList@@QAEPAVwxwxHtmlProcessorListNode@@PAVwxHtmlProcessor@@@Z 004891f0 f i wxmswd:htmlwin.obj
 0001:00088210       ?Insert@wxHtmlProcessorList@@QAEPAVwxwxHtmlProcessorListNode@@PAV2@PAVwxHtmlProcessor@@@Z 00489210 f i wxmswd:htmlwin.obj
 0001:00088230       ?Find@wxHtmlProcessorList@@UBEPAVwxwxHtmlProcessorListNode@@ABVwxListKey@@@Z 00489230 f i wxmswd:htmlwin.obj
 0001:00088250       ?CreateNode@wxHtmlProcessorList@@MAEPAVwxNodeBase@@PAV2@0PAXABVwxListKey@@@Z 00489250 f i wxmswd:htmlwin.obj
 0001:000882a0       ??0wxwxHtmlProcessorListNode@@QAE@PAVwxListBase@@PAV0@1PAVwxHtmlProcessor@@ABVwxListKey@@@Z 004892a0 f i wxmswd:htmlwin.obj
 0001:000882e0       ??_EwxwxHtmlProcessorListNode@@UAEPAXI@Z 004892e0 f i wxmswd:htmlwin.obj
 0001:000882e0       ??_GwxwxHtmlProcessorListNode@@UAEPAXI@Z 004892e0 f i wxmswd:htmlwin.obj
 0001:00088310       ??1wxwxHtmlProcessorListNode@@UAE@XZ 00489310 f i wxmswd:htmlwin.obj
 0001:00088330       ??_EwxHtmlProcessorList@@UAEPAXI@Z 00489330 f i wxmswd:htmlwin.obj
 0001:00088330       ??_GwxHtmlProcessorList@@UAEPAXI@Z 00489330 f i wxmswd:htmlwin.obj
 0001:00088360       ??1wxHtmlProcessorList@@UAE@XZ 00489360 f i wxmswd:htmlwin.obj
 0001:00088380       ?GetHref@wxHtmlLinkInfo@@QBE?AVwxString@@XZ 00489380 f i wxmswd:htmlwin.obj
 0001:000883a0       ??0wxHtmlWindow@@QAE@XZ    004893a0 f i wxmswd:htmlwin.obj
 0001:00088410       ??0wxHtmlWinModule@@QAE@XZ 00489410 f i wxmswd:htmlwin.obj
 0001:00088430       ?GetClassInfo@wxHtmlWinModule@@UBEPAVwxClassInfo@@XZ 00489430 f i wxmswd:htmlwin.obj
 0001:00088440       ?OnInit@wxHtmlWinModule@@UAE_NXZ 00489440 f i wxmswd:htmlwin.obj
 0001:00088450       ?OnExit@wxHtmlWinModule@@UAEXXZ 00489450 f i wxmswd:htmlwin.obj
 0001:00088460       ??_EwxHtmlWinModule@@UAEPAXI@Z 00489460 f i wxmswd:htmlwin.obj
 0001:00088460       ??_GwxHtmlWinModule@@UAEPAXI@Z 00489460 f i wxmswd:htmlwin.obj
 0001:00088490       ??1wxHtmlWinModule@@UAE@XZ 00489490 f i wxmswd:htmlwin.obj
 0001:000884b0       ??0wxBusyCursor@@QAE@PAVwxCursor@@@Z 004894b0 f i wxmswd:htmlwin.obj
 0001:000884d0       ??1wxBusyCursor@@QAE@XZ    004894d0 f i wxmswd:htmlwin.obj
 0001:000884e0       ?GetUpdateRegion@wxWindowBase@@QAEAAVwxRegion@@XZ 004894e0 f i wxmswd:htmlwin.obj
 0001:00088500       ?DeleteData@wxwxMenuListNode@@UAEXXZ 00489500 f   wxmswd:menucmn.obj
 0001:0008853d       ?DeleteData@wxwxMenuItemListNode@@UAEXXZ 0048953d f   wxmswd:menucmn.obj
 0001:0008857a       ??0wxMenuItemBase@@IAE@PAVwxMenu@@HABVwxString@@1W4wxItemKind@@0@Z 0048957a f   wxmswd:menucmn.obj
 0001:0008860e       ??1wxMenuItemBase@@UAE@XZ  0048960e f   wxmswd:menucmn.obj
 0001:00088670       ?wxGetAccelFromString@@YAPAVwxAcceleratorEntry@@ABVwxString@@@Z 00489670 f   wxmswd:menucmn.obj
 0001:00088b94       ?GetAccel@wxMenuItemBase@@UBEPAVwxAcceleratorEntry@@XZ 00489b94 f   wxmswd:menucmn.obj
 0001:00088bb0       ?SetAccel@wxMenuItemBase@@UAEXPAVwxAcceleratorEntry@@@Z 00489bb0 f   wxmswd:menucmn.obj
 0001:00088cd7       ?Init@wxMenuBase@@IAEXJ@Z  00489cd7 f   wxmswd:menucmn.obj
 0001:00088d2b       ??1wxMenuBase@@UAE@XZ      00489d2b f   wxmswd:menucmn.obj
 0001:00088d5d       ?AddSubMenu@wxMenuBase@@IAEXPAVwxMenu@@@Z 00489d5d f   wxmswd:menucmn.obj
 0001:00088dc3       ?DoAppend@wxMenuBase@@MAE_NPAVwxMenuItem@@@Z 00489dc3 f   wxmswd:menucmn.obj
 0001:00088e37       ?Insert@wxMenuBase@@QAE_NIPAVwxMenuItem@@@Z 00489e37 f   wxmswd:menucmn.obj
 0001:00088ee5       ?DoInsert@wxMenuBase@@MAE_NIPAVwxMenuItem@@@Z 00489ee5 f   wxmswd:menucmn.obj
 0001:00088fa6       ?Remove@wxMenuBase@@QAEPAVwxMenuItem@@PAV2@@Z 00489fa6 f   wxmswd:menucmn.obj
 0001:00088ff6       ?DoRemove@wxMenuBase@@MAEPAVwxMenuItem@@PAV2@@Z 00489ff6 f   wxmswd:menucmn.obj
 0001:00089083       ?Delete@wxMenuBase@@QAE_NPAVwxMenuItem@@@Z 0048a083 f   wxmswd:menucmn.obj
 0001:000890d3       ?DoDelete@wxMenuBase@@MAE_NPAVwxMenuItem@@@Z 0048a0d3 f   wxmswd:menucmn.obj
 0001:0008915f       ?Destroy@wxMenuBase@@QAE_NPAVwxMenuItem@@@Z 0048a15f f   wxmswd:menucmn.obj
 0001:000891af       ?DoDestroy@wxMenuBase@@MAE_NPAVwxMenuItem@@@Z 0048a1af f   wxmswd:menucmn.obj
 0001:00089231       ?FindItem@wxMenuBase@@UBEHABVwxString@@@Z 0048a231 f   wxmswd:menucmn.obj
 0001:00089337       ?FindItem@wxMenuBase@@QBEPAVwxMenuItem@@HPAPAVwxMenu@@@Z 0048a337 f   wxmswd:menucmn.obj
 0001:000893e4       ?FindChildItem@wxMenuBase@@QBEPAVwxMenuItem@@HPAI@Z 0048a3e4 f   wxmswd:menucmn.obj
 0001:00089478       ?UpdateUI@wxMenuBase@@QAEXPAVwxEvtHandler@@@Z 0048a478 f   wxmswd:menucmn.obj
 0001:000895f4       ?SendEvent@wxMenuBase@@QAE_NHH@Z 0048a5f4 f   wxmswd:menucmn.obj
 0001:000896c8       ?Attach@wxMenuBase@@UAEXPAVwxMenuBarBase@@@Z 0048a6c8 f   wxmswd:menucmn.obj
 0001:0008972d       ?Detach@wxMenuBase@@UAEXXZ 0048a72d f   wxmswd:menucmn.obj
 0001:0008976b       ?Enable@wxMenuBase@@QAEXH_N@Z 0048a76b f   wxmswd:menucmn.obj
 0001:000897cd       ?IsEnabled@wxMenuBase@@QBE_NH@Z 0048a7cd f   wxmswd:menucmn.obj
 0001:0008982d       ?Check@wxMenuBase@@QAEXH_N@Z 0048a82d f   wxmswd:menucmn.obj
 0001:0008988f       ?IsChecked@wxMenuBase@@QBE_NH@Z 0048a88f f   wxmswd:menucmn.obj
 0001:000898ef       ?SetLabel@wxMenuBase@@QAEXHABVwxString@@@Z 0048a8ef f   wxmswd:menucmn.obj
 0001:00089951       ?GetLabel@wxMenuBase@@QBE?AVwxString@@H@Z 0048a951 f   wxmswd:menucmn.obj
 0001:000899ca       ?SetHelpString@wxMenuBase@@UAEXHABVwxString@@@Z 0048a9ca f   wxmswd:menucmn.obj
 0001:00089a29       ?GetHelpString@wxMenuBase@@UBE?AVwxString@@H@Z 0048aa29 f   wxmswd:menucmn.obj
 0001:00089aa2       ??0wxMenuBarBase@@QAE@XZ   0048aaa2 f   wxmswd:menucmn.obj
 0001:00089aee       ??1wxMenuBarBase@@UAE@XZ   0048aaee f   wxmswd:menucmn.obj
 0001:00089b18       ?GetMenu@wxMenuBarBase@@QBEPAVwxMenu@@I@Z 0048ab18 f   wxmswd:menucmn.obj
 0001:00089b79       ?Append@wxMenuBarBase@@UAE_NPAVwxMenu@@ABVwxString@@@Z 0048ab79 f   wxmswd:menucmn.obj
 0001:00089bdd       ?Insert@wxMenuBarBase@@UAE_NIPAVwxMenu@@ABVwxString@@@Z 0048abdd f   wxmswd:menucmn.obj
 0001:00089cba       ?Replace@wxMenuBarBase@@UAEPAVwxMenu@@IPAV2@ABVwxString@@@Z 0048acba f   wxmswd:menucmn.obj
 0001:00089d7b       ?Remove@wxMenuBarBase@@UAEPAVwxMenu@@I@Z 0048ad7b f   wxmswd:menucmn.obj
 0001:00089e60       ?FindMenu@wxMenuBarBase@@QBEHABVwxString@@@Z 0048ae60 f   wxmswd:menucmn.obj
 0001:00089f46       ?Attach@wxMenuBarBase@@UAEXPAVwxFrame@@@Z 0048af46 f   wxmswd:menucmn.obj
 0001:00089f8e       ?Detach@wxMenuBarBase@@UAEXXZ 0048af8e f   wxmswd:menucmn.obj
 0001:00089fd6       ?FindItem@wxMenuBarBase@@UBEPAVwxMenuItem@@HPAPAVwxMenu@@@Z 0048afd6 f   wxmswd:menucmn.obj
 0001:0008a04f       ?FindMenuItem@wxMenuBarBase@@UBEHABVwxString@@0@Z 0048b04f f   wxmswd:menucmn.obj
 0001:0008a132       ?Enable@wxMenuBarBase@@QAEXH_N@Z 0048b132 f   wxmswd:menucmn.obj
 0001:0008a199       ?Check@wxMenuBarBase@@QAEXH_N@Z 0048b199 f   wxmswd:menucmn.obj
 0001:0008a23e       ?IsChecked@wxMenuBarBase@@QBE_NH@Z 0048b23e f   wxmswd:menucmn.obj
 0001:0008a2a3       ?IsEnabled@wxMenuBarBase@@QBE_NH@Z 0048b2a3 f   wxmswd:menucmn.obj
 0001:0008a308       ?SetLabel@wxMenuBarBase@@QAEXHABVwxString@@@Z 0048b308 f   wxmswd:menucmn.obj
 0001:0008a36f       ?GetLabel@wxMenuBarBase@@QBE?AVwxString@@H@Z 0048b36f f   wxmswd:menucmn.obj
 0001:0008a3ef       ?SetHelpString@wxMenuBarBase@@QAEXHABVwxString@@@Z 0048b3ef f   wxmswd:menucmn.obj
 0001:0008a453       ?GetHelpString@wxMenuBarBase@@QBE?AVwxString@@H@Z 0048b453 f   wxmswd:menucmn.obj
 0001:0008a4e0       ??_EwxMenuItemBase@@UAEPAXI@Z 0048b4e0 f i wxmswd:menucmn.obj
 0001:0008a4e0       ??_GwxMenuItemBase@@UAEPAXI@Z 0048b4e0 f i wxmswd:menucmn.obj
 0001:0008a510       ??_GwxMenuBarBase@@UAEPAXI@Z 0048b510 f i wxmswd:menucmn.obj
 0001:0008a510       ??_EwxMenuBarBase@@UAEPAXI@Z 0048b510 f i wxmswd:menucmn.obj
 0001:0008a540       ??6wxString@@QAEAAV0@H@Z   0048b540 f i wxmswd:menucmn.obj
 0001:0008a580       ?clear@wxString@@QAEXXZ    0048b580 f i wxmswd:menucmn.obj
 0001:0008a5a0       ?SetText@wxMenuItemBase@@UAEXABVwxString@@@Z 0048b5a0 f i wxmswd:menucmn.obj
 0001:0008a5c0       ?GetLabel@wxMenuItemBase@@QBE?AVwxString@@XZ 0048b5c0 f i wxmswd:menucmn.obj
 0001:0008a5f0       ?SetCheckable@wxMenuItemBase@@UAEX_N@Z 0048b5f0 f i wxmswd:menucmn.obj
 0001:0008a620       ?SetSubMenu@wxMenuItemBase@@QAEXPAVwxMenu@@@Z 0048b620 f i wxmswd:menucmn.obj
 0001:0008a640       ?Enable@wxMenuItemBase@@UAEX_N@Z 0048b640 f i wxmswd:menucmn.obj
 0001:0008a660       ?IsEnabled@wxMenuItemBase@@UBE_NXZ 0048b660 f i wxmswd:menucmn.obj
 0001:0008a680       ?Check@wxMenuItemBase@@UAEX_N@Z 0048b680 f i wxmswd:menucmn.obj
 0001:0008a6a0       ?IsChecked@wxMenuItemBase@@UBE_NXZ 0048b6a0 f i wxmswd:menucmn.obj
 0001:0008a6c0       ?SetHelp@wxMenuItemBase@@QAEXABVwxString@@@Z 0048b6c0 f i wxmswd:menucmn.obj
 0001:0008a6e0       ?GetNext@wxwxMenuListNode@@QBEPAV1@XZ 0048b6e0 f i wxmswd:menucmn.obj
 0001:0008a700       ?SetData@wxwxMenuListNode@@QAEXPAVwxMenu@@@Z 0048b700 f i wxmswd:menucmn.obj
 0001:0008a720       ?SetData@wxNodeBase@@IAEXPAX@Z 0048b720 f i wxmswd:menucmn.obj
 0001:0008a740       ??0wxMenuList@@QAE@W4wxKeyType@@@Z 0048b740 f i wxmswd:menucmn.obj
 0001:0008a770       ?GetFirst@wxMenuList@@QBEPAVwxwxMenuListNode@@XZ 0048b770 f i wxmswd:menucmn.obj
 0001:0008a790       ?Insert@wxMenuList@@QAEPAVwxwxMenuListNode@@PAV2@PAVwxMenu@@@Z 0048b790 f i wxmswd:menucmn.obj
 0001:0008a7b0       ?DetachNode@wxMenuList@@QAEPAVwxwxMenuListNode@@PAV2@@Z 0048b7b0 f i wxmswd:menucmn.obj
 0001:0008a7d0       ?Find@wxMenuList@@UBEPAVwxwxMenuListNode@@ABVwxListKey@@@Z 0048b7d0 f i wxmswd:menucmn.obj
 0001:0008a7f0       ?CreateNode@wxMenuList@@MAEPAVwxNodeBase@@PAV2@0PAXABVwxListKey@@@Z 0048b7f0 f i wxmswd:menucmn.obj
 0001:0008a840       ??0wxwxMenuListNode@@QAE@PAVwxListBase@@PAV0@1PAVwxMenu@@ABVwxListKey@@@Z 0048b840 f i wxmswd:menucmn.obj
 0001:0008a880       ??_GwxwxMenuListNode@@UAEPAXI@Z 0048b880 f i wxmswd:menucmn.obj
 0001:0008a880       ??_EwxwxMenuListNode@@UAEPAXI@Z 0048b880 f i wxmswd:menucmn.obj
 0001:0008a8b0       ??1wxwxMenuListNode@@UAE@XZ 0048b8b0 f i wxmswd:menucmn.obj
 0001:0008a8d0       ??_GwxMenuList@@UAEPAXI@Z  0048b8d0 f i wxmswd:menucmn.obj
 0001:0008a8d0       ??_EwxMenuList@@UAEPAXI@Z  0048b8d0 f i wxmswd:menucmn.obj
 0001:0008a900       ??1wxMenuList@@UAE@XZ      0048b900 f i wxmswd:menucmn.obj
 0001:0008a920       ?SetData@wxwxMenuItemListNode@@QAEXPAVwxMenuItem@@@Z 0048b920 f i wxmswd:menucmn.obj
 0001:0008a940       ?Append@wxMenuItemList@@QAEPAVwxwxMenuItemListNode@@PAVwxMenuItem@@@Z 0048b940 f i wxmswd:menucmn.obj
 0001:0008a960       ?Insert@wxMenuItemList@@QAEPAVwxwxMenuItemListNode@@PAV2@PAVwxMenuItem@@@Z 0048b960 f i wxmswd:menucmn.obj
 0001:0008a980       ?DeleteNode@wxMenuItemList@@QAE_NPAVwxwxMenuItemListNode@@@Z 0048b980 f i wxmswd:menucmn.obj
 0001:0008a9a0       ?Find@wxMenuItemList@@QBEPAVwxwxMenuItemListNode@@PAVwxMenuItem@@@Z 0048b9a0 f i wxmswd:menucmn.obj
 0001:0008a9c0       ?GetMenuItems@wxMenuBase@@QBEABVwxMenuItemList@@XZ 0048b9c0 f i wxmswd:menucmn.obj
 0001:0008a9e0       ?GetEventHandler@wxMenuBase@@QBEPAVwxEvtHandler@@XZ 0048b9e0 f i wxmswd:menucmn.obj
 0001:0008aa00       ?GetInvokingWindow@wxMenuBase@@QBEPAVwxWindow@@XZ 0048ba00 f i wxmswd:menucmn.obj
 0001:0008aaf6       ?wxConstructorForwxMenuItem@@YAPAVwxObject@@XZ 0048baf6 f   wxmswd:menuitem.obj
 0001:0008ac11       ??0wxMenuItem@@QAE@PAVwxMenu@@HABVwxString@@1W4wxItemKind@@0@Z 0048bc11 f   wxmswd:menuitem.obj
 0001:0008ac77       ??0wxMenuItem@@QAE@PAVwxMenu@@HABVwxString@@1_N0@Z 0048bc77 f   wxmswd:menuitem.obj
 0001:0008ace3       ?Init@wxMenuItem@@AAEXXZ   0048bce3 f   wxmswd:menuitem.obj
 0001:0008ad7b       ??1wxMenuItem@@UAE@XZ      0048bd7b f   wxmswd:menuitem.obj
 0001:0008adc3       ?GetRealId@wxMenuItem@@QBEHXZ 0048bdc3 f   wxmswd:menuitem.obj
 0001:0008adf7       ?IsChecked@wxMenuItem@@UBE_NXZ 0048bdf7 f   wxmswd:menuitem.obj
 0001:0008ae30       ?GetLabelFromText@wxMenuItemBase@@SA?AVwxString@@ABV2@@Z 0048be30 f   wxmswd:menuitem.obj
 0001:0008ae48       ?SetAsRadioGroupStart@wxMenuItem@@QAEXXZ 0048be48 f   wxmswd:menuitem.obj
 0001:0008ae5d       ?SetRadioGroupStart@wxMenuItem@@QAEXH@Z 0048be5d f   wxmswd:menuitem.obj
 0001:0008aea3       ?SetRadioGroupEnd@wxMenuItem@@QAEXH@Z 0048bea3 f   wxmswd:menuitem.obj
 0001:0008aeea       ?Enable@wxMenuItem@@UAEX_N@Z 0048beea f   wxmswd:menuitem.obj
 0001:0008af7f       ?Check@wxMenuItem@@UAEX_N@Z 0048bf7f f   wxmswd:menuitem.obj
 0001:0008b1fd       ?SetText@wxMenuItem@@UAEXABVwxString@@@Z 0048c1fd f   wxmswd:menuitem.obj
 0001:0008b3d5       ?SetCheckable@wxMenuItem@@UAEX_N@Z 0048c3d5 f   wxmswd:menuitem.obj
 0001:0008b411       ?New@wxMenuItemBase@@SAPAVwxMenuItem@@PAVwxMenu@@HABVwxString@@1W4wxItemKind@@0@Z 0048c411 f   wxmswd:menuitem.obj
 0001:0008b460       ??_EwxMenuItem@@UAEPAXI@Z  0048c460 f i wxmswd:menuitem.obj
 0001:0008b460       ??_GwxMenuItem@@UAEPAXI@Z  0048c460 f i wxmswd:menuitem.obj
 0001:0008b490       ??_EwxMenuItem@@WCE@AEPAXI@Z 0048c490 f i wxmswd:menuitem.obj
 0001:0008b4a0       ??1wxOwnerDrawn@@UAE@XZ    0048c4a0 f i wxmswd:menuitem.obj
 0001:0008b510       ?SetTextColour@wxOwnerDrawn@@QAEXABVwxColour@@@Z 0048c510 f i wxmswd:menuitem.obj
 0001:0008b540       ?SetBackgroundColour@wxOwnerDrawn@@QAEXABVwxColour@@@Z 0048c540 f i wxmswd:menuitem.obj
 0001:0008b570       ?SetName@wxOwnerDrawn@@QAEXABVwxString@@@Z 0048c570 f i wxmswd:menuitem.obj
 0001:0008b590       ?SetCheckable@wxOwnerDrawn@@QAEX_N@Z 0048c590 f i wxmswd:menuitem.obj
 0001:0008b5b0       ?SetAccelString@wxOwnerDrawn@@QAEXABVwxString@@@Z 0048c5b0 f i wxmswd:menuitem.obj
 0001:0008b5d0       ?ResetOwnerDrawn@wxOwnerDrawn@@QAEXXZ 0048c5d0 f i wxmswd:menuitem.obj
 0001:0008b5f0       ??_EwxOwnerDrawn@@UAEPAXI@Z 0048c5f0 f i wxmswd:menuitem.obj
 0001:0008b5f0       ??_GwxOwnerDrawn@@UAEPAXI@Z 0048c5f0 f i wxmswd:menuitem.obj
 0001:0008b620       ?GetClassInfo@wxMenuItem@@UBEPAVwxClassInfo@@XZ 0048c620 f i wxmswd:menuitem.obj
 0001:0008b630       ?IndexOf@wxMenuItemList@@QBEHPAVwxMenuItem@@@Z 0048c630 f i wxmswd:menuitem.obj
 0001:0008b795       ?wxFileSelector@@YA?AVwxString@@PBD0000HPAVwxWindow@@HH@Z 0048c795 f   wxmswd:filedlg.obj
 0001:0008bab6       ?wxFileSelectorEx@@YA?AVwxString@@PBD00PAH0HPAVwxWindow@@HH@Z 0048cab6 f   wxmswd:filedlg.obj
 0001:0008bc66       ??0wxFileDialog@@QAE@PAVwxWindow@@ABVwxString@@111JABVwxPoint@@@Z 0048cc66 f   wxmswd:filedlg.obj
 0001:0008bd8f       ?GetPaths@wxFileDialog@@QBEXAAVwxArrayString@@@Z 0048cd8f f   wxmswd:filedlg.obj
 0001:0008be42       ?SetPath@wxFileDialog@@QAEXABVwxString@@@Z 0048ce42 f   wxmswd:filedlg.obj
 0001:0008beb6       ?ShowModal@wxFileDialog@@UAEHXZ 0048ceb6 f   wxmswd:filedlg.obj
 0001:0008c966       ?wxLoadFileSelector@@YA?AVwxString@@PBD00PAVwxWindow@@@Z 0048d966 f   wxmswd:filedlg.obj
 0001:0008ca8c       ?wxSaveFileSelector@@YA?AVwxString@@PBD00PAVwxWindow@@@Z 0048da8c f   wxmswd:filedlg.obj
 0001:0008cac0       ??_EwxFileDialog@@UAEPAXI@Z 0048dac0 f i wxmswd:filedlg.obj
 0001:0008cac0       ??_GwxFileDialog@@UAEPAXI@Z 0048dac0 f i wxmswd:filedlg.obj
 0001:0008caf0       ?Last@wxString@@QBEDXZ     0048daf0 f i wxmswd:filedlg.obj
 0001:0008cb40       ?SetFilterIndex@wxFileDialog@@QAEXH@Z 0048db40 f i wxmswd:filedlg.obj
 0001:0008cb60       ?GetClassInfo@wxFileDialog@@UBEPAVwxClassInfo@@XZ 0048db60 f i wxmswd:filedlg.obj
 0001:0008cc46       ?wxConstructorForwxPen@@YAPAVwxObject@@XZ 0048dc46 f   wxmswd:pen.obj
 0001:0008cce9       ??0wxPenRefData@@QAE@XZ    0048dce9 f   wxmswd:pen.obj
 0001:0008cd64       ??0wxPenRefData@@QAE@ABV0@@Z 0048dd64 f   wxmswd:pen.obj
 0001:0008cdff       ??1wxPenRefData@@UAE@XZ    0048ddff f   wxmswd:pen.obj
 0001:0008ce47       ??0wxPen@@QAE@XZ           0048de47 f   wxmswd:pen.obj
 0001:0008ce66       ??1wxPen@@UAE@XZ           0048de66 f   wxmswd:pen.obj
 0001:0008ce82       ??0wxPen@@QAE@ABVwxColour@@HH@Z 0048de82 f   wxmswd:pen.obj
 0001:0008cf84       ??0wxPen@@QAE@ABVwxBitmap@@H@Z 0048df84 f   wxmswd:pen.obj
 0001:0008d04b       ?RealizeResource@wxPen@@UAE_NXZ 0048e04b f   wxmswd:pen.obj
 0001:0008d3f0       ?GetResourceHandle@wxPen@@UBEKXZ 0048e3f0 f   wxmswd:pen.obj
 0001:0008d411       ?FreeResource@wxPen@@UAE_N_N@Z 0048e411 f   wxmswd:pen.obj
 0001:0008d456       ?IsFree@wxPen@@UBE_NXZ     0048e456 f   wxmswd:pen.obj
 0001:0008d48b       ?Unshare@wxPen@@QAEXXZ     0048e48b f   wxmswd:pen.obj
 0001:0008d518       ?SetColour@wxPen@@QAEXABVwxColour@@@Z 0048e518 f   wxmswd:pen.obj
 0001:0008d54a       ?SetColour@wxPen@@QAEXEEE@Z 0048e54a f   wxmswd:pen.obj
 0001:0008d584       ?SetWidth@wxPen@@QAEXH@Z   0048e584 f   wxmswd:pen.obj
 0001:0008d5b0       ?SetStyle@wxPen@@QAEXH@Z   0048e5b0 f   wxmswd:pen.obj
 0001:0008d5dc       ?SetStipple@wxPen@@QAEXABVwxBitmap@@@Z 0048e5dc f   wxmswd:pen.obj
 0001:0008d61b       ?SetDashes@wxPen@@QAEXHPBC@Z 0048e61b f   wxmswd:pen.obj
 0001:0008d653       ?SetJoin@wxPen@@QAEXH@Z    0048e653 f   wxmswd:pen.obj
 0001:0008d67f       ?SetCap@wxPen@@QAEXH@Z     0048e67f f   wxmswd:pen.obj
 0001:0008d6ab       ?wx2msPenStyle@@YAHH@Z     0048e6ab f   wxmswd:pen.obj
 0001:0008d750       ??_GwxPenRefData@@UAEPAXI@Z 0048e750 f i wxmswd:pen.obj
 0001:0008d750       ??_EwxPenRefData@@UAEPAXI@Z 0048e750 f i wxmswd:pen.obj
 0001:0008d780       ?GetPixel@wxColour@@QBEKXZ 0048e780 f i wxmswd:pen.obj
 0001:0008d7df       ??8wxListKey@@QBE_NTwxListKeyValue@@@Z 0048e7df f   wxmswd:list.obj
 0001:0008d852       ??0wxNodeBase@@QAE@PAVwxListBase@@PAV0@1PAXABVwxListKey@@@Z 0048e852 f   wxmswd:list.obj
 0001:0008d921       ??1wxNodeBase@@UAE@XZ      0048e921 f   wxmswd:list.obj
 0001:0008d969       ?IndexOf@wxNodeBase@@IBEHXZ 0048e969 f   wxmswd:list.obj
 0001:0008d9db       ?Init@wxListBase@@AAEXW4wxKeyType@@@Z 0048e9db f   wxmswd:list.obj
 0001:0008da16       ??0wxListBase@@IAE@IQAPAX@Z 0048ea16 f   wxmswd:list.obj
 0001:0008da71       ?DoCopy@wxListBase@@AAEXABV1@@Z 0048ea71 f   wxmswd:list.obj
 0001:0008dbd3       ??1wxListBase@@UAE@XZ      0048ebd3 f   wxmswd:list.obj
 0001:0008dc1f       ?AppendCommon@wxListBase@@AAEPAVwxNodeBase@@PAV2@@Z 0048ec1f f   wxmswd:list.obj
 0001:0008dc73       ?Append@wxListBase@@IAEPAVwxNodeBase@@PAX@Z 0048ec73 f   wxmswd:list.obj
 0001:0008dce6       ?Append@wxListBase@@IAEPAVwxNodeBase@@JPAX@Z 0048ece6 f   wxmswd:list.obj
 0001:0008dd7d       ?Append@wxListBase@@IAEPAVwxNodeBase@@PBDPAX@Z 0048ed7d f   wxmswd:list.obj
 0001:0008de14       ?Insert@wxListBase@@IAEPAVwxNodeBase@@PAV2@PAX@Z 0048ee14 f   wxmswd:list.obj
 0001:0008df19       ?Item@wxListBase@@IBEPAVwxNodeBase@@I@Z 0048ef19 f   wxmswd:list.obj
 0001:0008df8a       ?Find@wxListBase@@IBEPAVwxNodeBase@@ABVwxListKey@@@Z 0048ef8a f   wxmswd:list.obj
 0001:0008e008       ?Find@wxListBase@@IBEPAVwxNodeBase@@PAX@Z 0048f008 f   wxmswd:list.obj
 0001:0008e04b       ?IndexOf@wxListBase@@IBEHPAX@Z 0048f04b f   wxmswd:list.obj
 0001:0008e086       ?DoDeleteNode@wxListBase@@AAEXPAVwxNodeBase@@@Z 0048f086 f   wxmswd:list.obj
 0001:0008e0f9       ?DetachNode@wxListBase@@IAEPAVwxNodeBase@@PAV2@@Z 0048f0f9 f   wxmswd:list.obj
 0001:0008e207       ?DeleteNode@wxListBase@@IAE_NPAVwxNodeBase@@@Z 0048f207 f   wxmswd:list.obj
 0001:0008e236       ?DeleteObject@wxListBase@@IAE_NPAX@Z 0048f236 f   wxmswd:list.obj
 0001:0008e284       ?Clear@wxListBase@@QAEXXZ  0048f284 f   wxmswd:list.obj
 0001:0008e2dd       ?ForEach@wxListBase@@IAEXP6AHPAX@Z@Z 0048f2dd f   wxmswd:list.obj
 0001:0008e31b       ?FirstThat@wxListBase@@IAEPAXP6AHPAX@Z@Z 0048f31b f   wxmswd:list.obj
 0001:0008e369       ?LastThat@wxListBase@@IAEPAXP6AHPAX@Z@Z 0048f369 f   wxmswd:list.obj
 0001:0008e3b7       ?Sort@wxListBase@@IAEXQ6AHPBX0@Z@Z 0048f3b7 f   wxmswd:list.obj
 0001:0008e491       ?wxConstructorForwxList@@YAPAVwxObject@@XZ 0048f491 f   wxmswd:list.obj
 0001:0008e536       ?DeleteData@wxObjectListNode@@UAEXXZ 0048f536 f   wxmswd:list.obj
 0001:0008e573       ?wxConstructorForwxStringList@@YAPAVwxObject@@XZ 0048f573 f   wxmswd:list.obj
 0001:0008e616       ?DeleteData@wxStringListNode@@UAEXXZ 0048f616 f   wxmswd:list.obj
 0001:0008e63a       ?Delete@wxStringList@@QAE_NPBD@Z 0048f63a f   wxmswd:list.obj
 0001:0008e694       ?DoCopy@wxStringList@@AAEXABV1@@Z 0048f694 f   wxmswd:list.obj
 0001:0008e70d       ??0wxStringList@@QAA@PBDZZ 0048f70d f   wxmswd:list.obj
 0001:0008e77a       ?ListToArray@wxStringList@@QBEPAPAD_N@Z 0048f77a f   wxmswd:list.obj
 0001:0008e81b       ?Member@wxStringList@@QBE_NPBD@Z 0048f81b f   wxmswd:list.obj
 0001:0008e877       _wx_comparestrings         0048f877 f   wxmswd:list.obj
 0001:0008e8a1       ?Sort@wxStringList@@QAEXXZ 0048f8a1 f   wxmswd:list.obj
 0001:0008e990       ??_GwxNodeBase@@UAEPAXI@Z  0048f990 f i wxmswd:list.obj
 0001:0008e990       ??_EwxNodeBase@@UAEPAXI@Z  0048f990 f i wxmswd:list.obj
 0001:0008e9c0       ??0wxListKey@@QAE@XZ       0048f9c0 f i wxmswd:list.obj
 0001:0008e9e0       ??0wxListKey@@QAE@J@Z      0048f9e0 f i wxmswd:list.obj
 0001:0008ea10       ??0wxListKey@@QAE@PBD@Z    0048fa10 f i wxmswd:list.obj
 0001:0008ea40       ?GetKeyType@wxListKey@@QBE?AW4wxKeyType@@XZ 0048fa40 f i wxmswd:list.obj
 0001:0008ea50       ?GetString@wxListKey@@QBEPBDXZ 0048fa50 f i wxmswd:list.obj
 0001:0008ea90       ?GetNumber@wxListKey@@QBEJXZ 0048fa90 f i wxmswd:list.obj
 0001:0008ead0       ??1wxListKey@@QAE@XZ       0048fad0 f i wxmswd:list.obj
 0001:0008eb00       ?GetKeyString@wxNodeBase@@QBEPBDXZ 0048fb00 f i wxmswd:list.obj
 0001:0008eb20       ?GetKeyInteger@wxNodeBase@@QBEJXZ 0048fb20 f i wxmswd:list.obj
 0001:0008eb40       ?DeleteData@wxNodeBase@@MAEXXZ 0048fb40 f i wxmswd:list.obj
 0001:0008eb50       ?GetNext@wxStringListNode@@QBEPAV1@XZ 0048fb50 f i wxmswd:list.obj
 0001:0008eb70       ?GetData@wxStringListNode@@QBEPADXZ 0048fb70 f i wxmswd:list.obj
 0001:0008eb90       ?SetData@wxStringListNode@@QAEXPAD@Z 0048fb90 f i wxmswd:list.obj
 0001:0008ebb0       ?GetFirst@wxStringListBase@@QBEPAVwxStringListNode@@XZ 0048fbb0 f i wxmswd:list.obj
 0001:0008ebd0       ?Item@wxStringListBase@@QBEPAVwxStringListNode@@I@Z 0048fbd0 f i wxmswd:list.obj
 0001:0008ebf0       ?DeleteNode@wxStringListBase@@QAE_NPAVwxStringListNode@@@Z 0048fbf0 f i wxmswd:list.obj
 0001:0008ece6       ?wxConstructorForwxChoice@@YAPAVwxObject@@XZ 0048fce6 f   wxmswd:choice.obj
 0001:0008ed8f       ?Create@wxChoice@@QAE_NPAVwxWindow@@HABVwxPoint@@ABVwxSize@@HQBVwxString@@JABVwxValidator@@ABV5@@Z 0048fd8f f   wxmswd:choice.obj
 0001:0008ef24       ??1wxChoice@@UAE@XZ        0048ff24 f   wxmswd:choice.obj
 0001:0008ef55       ?DoAppend@wxChoice@@UAEHABVwxString@@@Z 0048ff55 f   wxmswd:choice.obj
 0001:0008efc3       ?Delete@wxChoice@@UAEXH@Z  0048ffc3 f   wxmswd:choice.obj
 0001:0008f075       ?Clear@wxChoice@@UAEXXZ    00490075 f   wxmswd:choice.obj
 0001:0008f0a0       ?Free@wxChoice@@IAEXXZ     004900a0 f   wxmswd:choice.obj
 0001:0008f12b       ?GetSelection@wxChoice@@UBEHXZ 0049012b f   wxmswd:choice.obj
 0001:0008f154       ?SetSelection@wxChoice@@UAEXH@Z 00490154 f   wxmswd:choice.obj
 0001:0008f17b       ?GetCount@wxChoice@@UBEHXZ 0049017b f   wxmswd:choice.obj
 0001:0008f1a4       ?FindString@wxChoice@@UBEHABVwxString@@@Z 004901a4 f   wxmswd:choice.obj
 0001:0008f1f3       ?SetString@wxChoice@@UAEXHABVwxString@@@Z 004901f3 f   wxmswd:choice.obj
 0001:0008f2cb       ?GetString@wxChoice@@UBE?AVwxString@@H@Z 004902cb f   wxmswd:choice.obj
 0001:0008f3bf       ?DoSetItemClientData@wxChoice@@MAEXHPAX@Z 004903bf f   wxmswd:choice.obj
 0001:0008f424       ?DoGetItemClientData@wxChoice@@MBEPAXH@Z 00490424 f   wxmswd:choice.obj
 0001:0008f497       ?DoSetItemClientObject@wxChoice@@MAEXHPAVwxClientData@@@Z 00490497 f   wxmswd:choice.obj
 0001:0008f4b7       ?DoGetItemClientObject@wxChoice@@MBEPAVwxClientData@@H@Z 004904b7 f   wxmswd:choice.obj
 0001:0008f4d3       ?DoMoveWindow@wxChoice@@MAEXHHHH@Z 004904d3 f   wxmswd:choice.obj
 0001:0008f500       ?DoSetSize@wxChoice@@MAEXHHHHH@Z 00490500 f   wxmswd:choice.obj
 0001:0008f527       ?DoGetBestSize@wxChoice@@MBE?AVwxSize@@XZ 00490527 f   wxmswd:choice.obj
 0001:0008f65f       ?MSWWindowProc@wxChoice@@UAEJIIJ@Z 0049065f f   wxmswd:choice.obj
 0001:0008f6c1       ?MSWCommand@wxChoice@@UAE_NIG@Z 004906c1 f   wxmswd:choice.obj
 0001:0008f7c0       ?OnCtlColor@wxChoice@@UAEKKKIIIJ@Z 004907c0 f   wxmswd:choice.obj
 0001:0008f8b0       ?SetClientData@wxCommandEvent@@QAEXPAX@Z 004908b0 f i wxmswd:choice.obj
 0001:0008f8d0       ?SetClientObject@wxCommandEvent@@QAEXPAVwxClientData@@@Z 004908d0 f i wxmswd:choice.obj
 0001:0008f8f0       ?SetString@wxCommandEvent@@QAEXABVwxString@@@Z 004908f0 f i wxmswd:choice.obj
 0001:0008f910       ?GetTransparentBackground@wxWindow@@QBE_NXZ 00490910 f i wxmswd:choice.obj
 0001:0008f930       ?HasClientObjectData@wxItemContainer@@QBE_NXZ 00490930 f i wxmswd:choice.obj
 0001:0008f950       ?HasClientUntypedData@wxItemContainer@@QBE_NXZ 00490950 f i wxmswd:choice.obj
 0001:0008f970       ?GetClientData@wxControlWithItems@@QBEPAXH@Z 00490970 f i wxmswd:choice.obj
 0001:0008f990       ?GetClientObject@wxControlWithItems@@QBEPAVwxClientData@@H@Z 00490990 f i wxmswd:choice.obj
 0001:0008fa86       ?wxConstructorForwxComboBox@@YAPAVwxObject@@XZ 00490a86 f   wxmswd:combobox.obj
 0001:0008fb2f       ?wxComboEditWndProc@@YGJPAUHWND__@@IIJ@Z 00490b2f f   wxmswd:combobox.obj
 0001:0008fdf3       ?OnCtlColor@wxComboBox@@UAEKKKIIIJ@Z 00490df3 f   wxmswd:combobox.obj
 0001:0008fee2       ?MSWProcessEditMsg@wxComboBox@@QAE_NIIJ@Z 00490ee2 f   wxmswd:combobox.obj
 0001:000900ff       ?MSWCommand@wxComboBox@@UAE_NIG@Z 004910ff f   wxmswd:combobox.obj
 0001:0009026d       ?GetEditHWND@wxComboBox@@QBEKXZ 0049126d f   wxmswd:combobox.obj
 0001:0009030e       ?Create@wxComboBox@@QAE_NPAVwxWindow@@HABVwxString@@ABVwxPoint@@ABVwxSize@@HQBV3@JABVwxValidator@@1@Z 0049130e f   wxmswd:combobox.obj
 0001:000904fa       ?SetValue@wxComboBox@@UAEXABVwxString@@@Z 004914fa f   wxmswd:combobox.obj
 0001:00090546       ?Copy@wxComboBox@@UAEXXZ   00491546 f   wxmswd:combobox.obj
 0001:00090569       ?Cut@wxComboBox@@UAEXXZ    00491569 f   wxmswd:combobox.obj
 0001:0009058c       ?Paste@wxComboBox@@UAEXXZ  0049158c f   wxmswd:combobox.obj
 0001:000905af       ?SetEditable@wxComboBox@@UAEX_N@Z 004915af f   wxmswd:combobox.obj
 0001:000905bc       ?SetInsertionPoint@wxComboBox@@UAEXJ@Z 004915bc f   wxmswd:combobox.obj
 0001:00090649       ?SetInsertionPointEnd@wxComboBox@@UAEXXZ 00491649 f   wxmswd:combobox.obj
 0001:00090688       ?GetInsertionPoint@wxComboBox@@UBEJXZ 00491688 f   wxmswd:combobox.obj
 0001:000906b8       ?GetLastPosition@wxComboBox@@UBEJXZ 004916b8 f   wxmswd:combobox.obj
 0001:000906e9       ?Replace@wxComboBox@@UAEXJJABVwxString@@@Z 004916e9 f   wxmswd:combobox.obj
 0001:00090745       ?Remove@wxComboBox@@UAEXJJ@Z 00491745 f   wxmswd:combobox.obj
 0001:00090780       ?SetSelection@wxComboBox@@UAEXJJ@Z 00491780 f   wxmswd:combobox.obj
 0001:00090800       ??0wxDataFormat@@QAE@G@Z   00491800 f i wxmswd:combobox.obj
 0001:00090820       ?GetValue@wxComboBox@@QBE?AVwxString@@XZ 00491820 f i wxmswd:combobox.obj
 0001:00090840       ??1wxChoiceBase@@UAE@XZ    00491840 f   wxmswd:choiccmn.obj
 0001:00090869       ?SetStringSelection@wxChoiceBase@@UAE_NABVwxString@@@Z 00491869 f   wxmswd:choiccmn.obj
 0001:000908e1       ?Command@wxChoiceBase@@UAEXAAVwxCommandEvent@@@Z 004918e1 f   wxmswd:choiccmn.obj
 0001:00090a65       ?GetEventTable@wxControl@@MBEPBUwxEventTable@@XZ 00491a65 f   wxmswd:control.obj
 0001:00090acc       ??0wxControl@@QAE@XZ       00491acc f   wxmswd:control.obj
 0001:00090af9       ??1wxControl@@UAE@XZ       00491af9 f   wxmswd:control.obj
 0001:00090b38       ?Create@wxControl@@QAE_NPAVwxWindow@@HABVwxPoint@@ABVwxSize@@JABVwxValidator@@ABVwxString@@@Z 00491b38 f   wxmswd:control.obj
 0001:00090b86       ?MSWCreateControl@wxControl@@IAE_NPBDABVwxString@@ABVwxPoint@@ABVwxSize@@J@Z 00491b86 f   wxmswd:control.obj
 0001:00090bce       ?MSWCreateControl@wxControl@@IAE_NPBDKABVwxPoint@@ABVwxSize@@ABVwxString@@K@Z 00491bce f   wxmswd:control.obj
 0001:00090d7e       ?DoGetBestSize@wxControl@@MBE?AVwxSize@@XZ 00491d7e f   wxmswd:control.obj
 0001:00090da9       ?ProcessCommand@wxControl@@QAE_NAAVwxCommandEvent@@@Z 00491da9 f   wxmswd:control.obj
 0001:00090dd2       ?MSWOnNotify@wxControl@@UAE_NHJPAJ@Z 00491dd2 f   wxmswd:control.obj
 0001:00090ee2       ?OnEraseBackground@wxControl@@QAEXAAVwxEraseEvent@@@Z 00491ee2 f   wxmswd:control.obj
 0001:00090f76       ?OnCtlColor@wxControl@@UAEKKKIIIJ@Z 00491f76 f   wxmswd:control.obj
 0001:00091035       ?MSWGetStyle@wxControl@@MBEKJPAK@Z 00492035 f   wxmswd:control.obj
 0001:0009107d       ?wxFindMaxSize@@YAXKPAUtagRECT@@@Z 0049207d f   wxmswd:control.obj
 0001:00091110       ??0wxArrayLong@@QAE@XZ     00492110 f i wxmswd:control.obj
 0001:00091130       ?SetBestSize@wxWindowBase@@IAEXABVwxSize@@@Z 00492130 f i wxmswd:control.obj
 0001:000911a0       ?SetSize@wxWindowBase@@QAEXABVwxSize@@@Z 004921a0 f i wxmswd:control.obj
 0001:000911d0       ??_GwxControl@@UAEPAXI@Z   004921d0 f i wxmswd:control.obj
 0001:000911d0       ??_EwxControl@@UAEPAXI@Z   004921d0 f i wxmswd:control.obj
 0001:00091200       ??0wxControlBase@@QAE@XZ   00492200 f i wxmswd:control.obj
 0001:00091220       ??_GwxControlBase@@UAEPAXI@Z 00492220 f i wxmswd:control.obj
 0001:00091220       ??_EwxControlBase@@UAEPAXI@Z 00492220 f i wxmswd:control.obj
 0001:00091250       ?SetDefaultEncoding@wxFontBase@@SAXW4wxFontEncoding@@@Z 00492250 f   wxmswd:fontcmn.obj
 0001:0009128d       ??1wxFontBase@@UAE@XZ      0049228d f   wxmswd:fontcmn.obj
 0001:000912a9       ?New@wxFontBase@@SAPAVwxFont@@HHHH_NABVwxString@@W4wxFontEncoding@@@Z 004922a9 f   wxmswd:fontcmn.obj
 0001:000912f9       ?New@wxFontBase@@SAPAVwxFont@@ABUwxNativeFontInfo@@@Z 004922f9 f   wxmswd:fontcmn.obj
 0001:00091333       ?New@wxFontBase@@SAPAVwxFont@@ABVwxString@@@Z 00492333 f   wxmswd:fontcmn.obj
 0001:00091399       ?IsFixedWidth@wxFontBase@@UBE_NXZ 00492399 f   wxmswd:fontcmn.obj
 0001:000913b9       ?GetNativeFontInfo@wxFontBase@@UBEPAUwxNativeFontInfo@@XZ 004923b9 f   wxmswd:fontcmn.obj
 0001:000913c6       ?SetNativeFontInfo@wxFontBase@@UAEXABUwxNativeFontInfo@@@Z 004923c6 f   wxmswd:fontcmn.obj
 0001:000913d3       ?GetNativeFontInfoDesc@wxFontBase@@QBE?AVwxString@@XZ 004923d3 f   wxmswd:fontcmn.obj
 0001:00091444       ?GetNativeFontInfoUserDesc@wxFontBase@@QBE?AVwxString@@XZ 00492444 f   wxmswd:fontcmn.obj
 0001:000914b5       ?SetNativeFontInfo@wxFontBase@@QAEXABVwxString@@@Z 004924b5 f   wxmswd:fontcmn.obj
 0001:00091501       ?SetNativeFontInfoUserDesc@wxFontBase@@QAEXABVwxString@@@Z 00492501 f   wxmswd:fontcmn.obj
 0001:0009154d       ??4wxFont@@QAEAAV0@ABV0@@Z 0049254d f   wxmswd:fontcmn.obj
 0001:00091571       ??8wxFontBase@@QBE_NABVwxFont@@@Z 00492571 f   wxmswd:fontcmn.obj
 0001:000916e0       ??9wxFontBase@@QBE_NABVwxFont@@@Z 004926e0 f   wxmswd:fontcmn.obj
 0001:00091703       ?GetFamilyString@wxFontBase@@QBE?AVwxString@@XZ 00492703 f   wxmswd:fontcmn.obj
 0001:00091831       ?GetStyleString@wxFontBase@@QBE?AVwxString@@XZ 00492831 f   wxmswd:fontcmn.obj
 0001:000918ff       ?GetWeightString@wxFontBase@@QBE?AVwxString@@XZ 004928ff f   wxmswd:fontcmn.obj
 0001:000919cd       ?ToUserString@wxNativeFontInfo@@QBE?AVwxString@@XZ 004929cd f   wxmswd:fontcmn.obj
 0001:00091baf       ?FromUserString@wxNativeFontInfo@@QAE_NABVwxString@@@Z 00492baf f   wxmswd:fontcmn.obj
 0001:00091e70       ??0wxFont@@QAE@ABUwxNativeFontInfo@@K@Z 00492e70 f i wxmswd:fontcmn.obj
 0001:00091f86       ?wxConstructorForwxGDIObject@@YAPAVwxObject@@XZ 00492f86 f   wxmswd:gdiobj.obj
 0001:00092106       ??0wxCriticalSection@@QAE@XZ 00493106 f   wxmswd:thread.obj
 0001:0009211e       ??1wxCriticalSection@@QAE@XZ 0049311e f   wxmswd:thread.obj
 0001:00092133       ?Enter@wxCriticalSection@@QAEXXZ 00493133 f   wxmswd:thread.obj
 0001:00092148       ?Leave@wxCriticalSection@@QAEXXZ 00493148 f   wxmswd:thread.obj
 0001:0009215d       ??0wxMutexInternal@@QAE@W4wxMutexType@@@Z 0049315d f   wxmswd:thread.obj
 0001:000921b7       ??1wxMutexInternal@@QAE@XZ 004931b7 f   wxmswd:thread.obj
 0001:0009220b       ?LockTimeout@wxMutexInternal@@AAE?AW4wxMutexError@@K@Z 0049320b f   wxmswd:thread.obj
 0001:000922de       ?Unlock@wxMutexInternal@@QAE?AW4wxMutexError@@XZ 004932de f   wxmswd:thread.obj
 0001:00092333       ??0wxSemaphoreInternal@@QAE@HH@Z 00493333 f   wxmswd:thread.obj
 0001:000923a0       ??1wxSemaphoreInternal@@QAE@XZ 004933a0 f   wxmswd:thread.obj
 0001:000923f4       ?WaitTimeout@wxSemaphoreInternal@@QAE?AW4wxSemaError@@K@Z 004933f4 f   wxmswd:thread.obj
 0001:0009246e       ?Post@wxSemaphoreInternal@@QAE?AW4wxSemaError@@XZ 0049346e f   wxmswd:thread.obj
 0001:000924c7       ??0wxConditionInternal@@QAE@AAVwxMutex@@@Z 004934c7 f   wxmswd:thread.obj
 0001:00092503       ?Wait@wxConditionInternal@@QAE?AW4wxCondError@@XZ 00493503 f   wxmswd:thread.obj
 0001:00092548       ?WaitTimeout@wxConditionInternal@@QAE?AW4wxCondError@@K@Z 00493548 f   wxmswd:thread.obj
 0001:000925d3       ?Signal@wxConditionInternal@@QAE?AW4wxCondError@@XZ 004935d3 f   wxmswd:thread.obj
 0001:00092639       ?Broadcast@wxConditionInternal@@QAE?AW4wxCondError@@XZ 00493639 f   wxmswd:thread.obj
 0001:000926a1       ?WinThreadStart@wxThreadInternal@@SGIPAX@Z 004936a1 f   wxmswd:thread.obj
 0001:0009279e       ?SetPriority@wxThreadInternal@@QAEXI@Z 0049379e f   wxmswd:thread.obj
 0001:0009286c       ?Create@wxThreadInternal@@QAE_NPAVwxThread@@I@Z 0049386c f   wxmswd:thread.obj
 0001:000928db       ?Suspend@wxThreadInternal@@QAE_NXZ 004938db f   wxmswd:thread.obj
 0001:00092929       ?Resume@wxThreadInternal@@QAE_NXZ 00493929 f   wxmswd:thread.obj
 0001:00092980       ?This@wxThread@@SAPAV1@XZ  00493980 f   wxmswd:thread.obj
 0001:000929c0       ?IsMain@wxThread@@SA_NXZ   004939c0 f   wxmswd:thread.obj
 0001:000929d8       ?Yield@wxThread@@SAXXZ     004939d8 f   wxmswd:thread.obj
 0001:000929e5       ?Sleep@wxThread@@SAXK@Z    004939e5 f   wxmswd:thread.obj
 0001:000929f4       ?GetCPUCount@wxThread@@SAHXZ 004939f4 f   wxmswd:thread.obj
 0001:00092a0b       ?GetCurrentId@wxThread@@SAKXZ 00493a0b f   wxmswd:thread.obj
 0001:00092a16       ?SetConcurrency@wxThread@@SA_NI@Z 00493a16 f   wxmswd:thread.obj
 0001:00092bd3       ??0wxThread@@QAE@W4wxThreadKind@@@Z 00493bd3 f   wxmswd:thread.obj
 0001:00092c38       ??1wxThread@@UAE@XZ        00493c38 f   wxmswd:thread.obj
 0001:00092c84       ?Create@wxThread@@QAE?AW4wxThreadError@@I@Z 00493c84 f   wxmswd:thread.obj
 0001:00092ce4       ?Run@wxThread@@QAE?AW4wxThreadError@@XZ 00493ce4 f   wxmswd:thread.obj
 0001:00092d39       ?Pause@wxThread@@QAE?AW4wxThreadError@@XZ 00493d39 f   wxmswd:thread.obj
 0001:00092d7c       ?Resume@wxThread@@QAE?AW4wxThreadError@@XZ 00493d7c f   wxmswd:thread.obj
 0001:00092dbf       ?Wait@wxThread@@QAEPAXXZ   00493dbf f   wxmswd:thread.obj
 0001:00092e2d       ?Delete@wxThread@@QAE?AW4wxThreadError@@PAPAX@Z 00493e2d f   wxmswd:thread.obj
 0001:000930d8       ?Kill@wxThread@@QAE?AW4wxThreadError@@XZ 004940d8 f   wxmswd:thread.obj
 0001:0009317b       ?Exit@wxThread@@IAEXPAX@Z  0049417b f   wxmswd:thread.obj
 0001:00093209       ?SetPriority@wxThread@@QAEXI@Z 00494209 f   wxmswd:thread.obj
 0001:0009323e       ?GetPriority@wxThread@@QBEIXZ 0049423e f   wxmswd:thread.obj
 0001:00093273       ?GetId@wxThread@@QBEKXZ    00494273 f   wxmswd:thread.obj
 0001:000932a8       ?IsRunning@wxThread@@QBE_NXZ 004942a8 f   wxmswd:thread.obj
 0001:000932e5       ?IsAlive@wxThread@@QBE_NXZ 004942e5 f   wxmswd:thread.obj
 0001:00093342       ?IsPaused@wxThread@@QBE_NXZ 00494342 f   wxmswd:thread.obj
 0001:0009337f       ?TestDestroy@wxThread@@IAE_NXZ 0049437f f   wxmswd:thread.obj
 0001:000933bc       ?wxConstructorForwxThreadModule@@YAPAVwxObject@@XZ 004943bc f   wxmswd:thread.obj
 0001:0009345f       ?OnInit@wxThreadModule@@UAE_NXZ 0049445f f   wxmswd:thread.obj
 0001:00093557       ?OnExit@wxThreadModule@@UAEXXZ 00494557 f   wxmswd:thread.obj
 0001:00093622       ?wxMutexGuiEnter@@YAXXZ    00494622 f   wxmswd:thread.obj
 0001:0009368b       ?wxMutexGuiLeave@@YAXXZ    0049468b f   wxmswd:thread.obj
 0001:00093706       ?wxMutexGuiLeaveOrEnter@@YAXXZ 00494706 f   wxmswd:thread.obj
 0001:0009378f       ?wxGuiOwnedByMainThread@@YA_NXZ 0049478f f   wxmswd:thread.obj
 0001:00093799       ?wxWakeUpMainThread@@YAXXZ 00494799 f   wxmswd:thread.obj
 0001:000937e5       ?wxIsWaitingForThread@@YA_NXZ 004947e5 f   wxmswd:thread.obj
 0001:000937ef       ??0wxMutex@@QAE@W4wxMutexType@@@Z 004947ef f   wxmswd:thread.obj
 0001:0009387a       ??1wxMutex@@QAE@XZ         0049487a f   wxmswd:thread.obj
 0001:000938b1       ?IsOk@wxMutex@@QBE_NXZ     004948b1 f   wxmswd:thread.obj
 0001:000938c9       ?Lock@wxMutex@@QAE?AW4wxMutexError@@XZ 004948c9 f   wxmswd:thread.obj
 0001:00093915       ?TryLock@wxMutex@@QAE?AW4wxMutexError@@XZ 00494915 f   wxmswd:thread.obj
 0001:00093961       ?Unlock@wxMutex@@QAE?AW4wxMutexError@@XZ 00494961 f   wxmswd:thread.obj
 0001:000939ad       ??0wxCondition@@QAE@AAVwxMutex@@@Z 004949ad f   wxmswd:thread.obj
 0001:00093a38       ??1wxCondition@@QAE@XZ     00494a38 f   wxmswd:thread.obj
 0001:00093a6f       ?IsOk@wxCondition@@QBE_NXZ 00494a6f f   wxmswd:thread.obj
 0001:00093a87       ?Wait@wxCondition@@QAE?AW4wxCondError@@XZ 00494a87 f   wxmswd:thread.obj
 0001:00093ad3       ?WaitTimeout@wxCondition@@QAE?AW4wxCondError@@K@Z 00494ad3 f   wxmswd:thread.obj
 0001:00093b25       ?Signal@wxCondition@@QAE?AW4wxCondError@@XZ 00494b25 f   wxmswd:thread.obj
 0001:00093b71       ?Broadcast@wxCondition@@QAE?AW4wxCondError@@XZ 00494b71 f   wxmswd:thread.obj
 0001:00093bbd       ??0wxSemaphore@@QAE@HH@Z   00494bbd f   wxmswd:thread.obj
 0001:00093c4c       ??1wxSemaphore@@QAE@XZ     00494c4c f   wxmswd:thread.obj
 0001:00093c83       ?IsOk@wxSemaphore@@QBE_NXZ 00494c83 f   wxmswd:thread.obj
 0001:00093c9b       ?Wait@wxSemaphore@@QAE?AW4wxSemaError@@XZ 00494c9b f   wxmswd:thread.obj
 0001:00093cea       ?TryWait@wxSemaphore@@QAE?AW4wxSemaError@@XZ 00494cea f   wxmswd:thread.obj
 0001:00093d39       ?WaitTimeout@wxSemaphore@@QAE?AW4wxSemaError@@K@Z 00494d39 f   wxmswd:thread.obj
 0001:00093d8e       ?Post@wxSemaphore@@QAE?AW4wxSemaError@@XZ 00494d8e f   wxmswd:thread.obj
 0001:00093de0       ?SetState@wxThreadInternal@@QAEXW4wxThreadState@@@Z 00494de0 f i wxmswd:thread.obj
 0001:00093e00       ?GetState@wxThreadInternal@@QBE?AW4wxThreadState@@XZ 00494e00 f i wxmswd:thread.obj
 0001:00093e20       ?LoadLibrary@@YAPAUHINSTANCE__@@PBD@Z 00494e20 f i wxmswd:thread.obj
 0001:00093e30       ??0wxThreadInternal@@QAE@XZ 00494e30 f i wxmswd:thread.obj
 0001:00093e60       ??_GwxThread@@UAEPAXI@Z    00494e60 f i wxmswd:thread.obj
 0001:00093e60       ??_EwxThread@@UAEPAXI@Z    00494e60 f i wxmswd:thread.obj
 0001:00093e90       ??_GwxThreadInternal@@QAEPAXI@Z 00494e90 f i wxmswd:thread.obj
 0001:00093ec0       ??1wxThreadInternal@@QAE@XZ 00494ec0 f i wxmswd:thread.obj
 0001:00093ee0       ?Free@wxThreadInternal@@QAEXXZ 00494ee0 f i wxmswd:thread.obj
 0001:00093f40       ?Cancel@wxThreadInternal@@QAEXXZ 00494f40 f i wxmswd:thread.obj
 0001:00093f60       ?GetHandle@wxThreadInternal@@QBEPAXXZ 00494f60 f i wxmswd:thread.obj
 0001:00093f70       ?GetPriority@wxThreadInternal@@QBEIXZ 00494f70 f i wxmswd:thread.obj
 0001:00093f90       ?GetId@wxThreadInternal@@QBEKXZ 00494f90 f i wxmswd:thread.obj
 0001:00093fb0       ??0wxThreadModule@@QAE@XZ  00494fb0 f i wxmswd:thread.obj
 0001:00093fd0       ?GetClassInfo@wxThreadModule@@UBEPAVwxClassInfo@@XZ 00494fd0 f i wxmswd:thread.obj
 0001:00093fe0       ??_EwxThreadModule@@UAEPAXI@Z 00494fe0 f i wxmswd:thread.obj
 0001:00093fe0       ??_GwxThreadModule@@UAEPAXI@Z 00494fe0 f i wxmswd:thread.obj
 0001:00094010       ??1wxThreadModule@@UAE@XZ  00495010 f i wxmswd:thread.obj
 0001:00094030       ?IsOk@wxMutexInternal@@QBE_NXZ 00495030 f i wxmswd:thread.obj
 0001:00094050       ??_GwxMutexInternal@@QAEPAXI@Z 00495050 f i wxmswd:thread.obj
 0001:00094080       ?Lock@wxMutexInternal@@QAE?AW4wxMutexError@@XZ 00495080 f i wxmswd:thread.obj
 0001:000940a0       ?TryLock@wxMutexInternal@@QAE?AW4wxMutexError@@XZ 004950a0 f i wxmswd:thread.obj
 0001:000940c0       ?IsOk@wxConditionInternal@@QBE_NXZ 004950c0 f i wxmswd:thread.obj
 0001:00094110       ??_GwxConditionInternal@@QAEPAXI@Z 00495110 f i wxmswd:thread.obj
 0001:00094140       ??1wxConditionInternal@@QAE@XZ 00495140 f i wxmswd:thread.obj
 0001:00094170       ?IsOk@wxSemaphoreInternal@@QBE_NXZ 00495170 f i wxmswd:thread.obj
 0001:00094190       ??_GwxSemaphoreInternal@@QAEPAXI@Z 00495190 f i wxmswd:thread.obj
 0001:000941c0       ?Wait@wxSemaphoreInternal@@QAE?AW4wxSemaError@@XZ 004951c0 f i wxmswd:thread.obj
 0001:000941e0       ?TryWait@wxSemaphoreInternal@@QAE?AW4wxSemaError@@XZ 004951e0 f i wxmswd:thread.obj
 0001:00094200       ?IsDetached@wxThread@@QBE_NXZ 00495200 f i wxmswd:thread.obj
 0001:00094220       ?GetEventTable@wxDialogBase@@MBEPBUwxEventTable@@XZ 00495220 f   wxmswd:dlgcmn.obj
 0001:000942cd       ?SetDefaultItem@wxDialogBase@@UAEPAVwxWindow@@PAV2@@Z 004952cd f   wxmswd:dlgcmn.obj
 0001:000942ec       ?SetTmpDefaultItem@wxDialogBase@@UAEXPAVwxWindow@@@Z 004952ec f   wxmswd:dlgcmn.obj
 0001:0009430b       ?GetDefaultItem@wxDialogBase@@UBEPAVwxWindow@@XZ 0049530b f   wxmswd:dlgcmn.obj
 0001:00094324       ?OnNavigationKey@wxDialogBase@@QAEXAAVwxNavigationKeyEvent@@@Z 00495324 f   wxmswd:dlgcmn.obj
 0001:00094343       ?RemoveChild@wxDialogBase@@UAEXPAVwxWindowBase@@@Z 00495343 f   wxmswd:dlgcmn.obj
 0001:0009436e       ?SetFocus@wxDialogBase@@UAEXXZ 0049536e f   wxmswd:dlgcmn.obj
 0001:00094398       ?OnChildFocus@wxDialogBase@@UAEXAAVwxChildFocusEvent@@@Z 00495398 f   wxmswd:dlgcmn.obj
 0001:000943bc       ?OnFocus@wxDialogBase@@QAEXAAVwxFocusEvent@@@Z 004953bc f   wxmswd:dlgcmn.obj
 0001:000943db       ?Init@wxDialogBase@@QAEXXZ 004953db f   wxmswd:dlgcmn.obj
 0001:0009441e       ?CreateTextSizer@wxDialogBase@@QAEPAVwxSizer@@ABVwxString@@@Z 0049541e f   wxmswd:dlgcmn.obj
 0001:00094868       ?CreateButtonSizer@wxDialogBase@@QAEPAVwxSizer@@J@Z 00495868 f   wxmswd:dlgcmn.obj
 0001:00095360       ??_9@$BCDE@AE              00496360 f i wxmswd:dlgcmn.obj
 0001:00095370       ?Remove@wxString@@QAEAAV1@II@Z 00496370 f i wxmswd:dlgcmn.obj
 0001:00095390       ?GetFont@wxWindowBase@@QAEAAVwxFont@@XZ 00496390 f i wxmswd:dlgcmn.obj
 0001:00095486       ??1wxArrayDCInfo@@QAE@XZ   00496486 f   wxmswd:dcclient.obj
 0001:000954a1       ?DoCopy@wxArrayDCInfo@@AAEXABV1@@Z 004964a1 f   wxmswd:dcclient.obj
 0001:000954e8       ??4wxArrayDCInfo@@QAEAAV0@ABV0@@Z 004964e8 f   wxmswd:dcclient.obj
 0001:0009550c       ??0wxArrayDCInfo@@QAE@ABV0@@Z 0049650c f   wxmswd:dcclient.obj
 0001:00095530       ?DoEmpty@wxArrayDCInfo@@AAEXXZ 00496530 f   wxmswd:dcclient.obj
 0001:0009557b       ?RemoveAt@wxArrayDCInfo@@QAEXII@Z 0049657b f   wxmswd:dcclient.obj
 0001:0009560c       ?Add@wxArrayDCInfo@@QAEXABUwxPaintDCInfo@@I@Z 0049660c f   wxmswd:dcclient.obj
 0001:000956ed       ?Insert@wxArrayDCInfo@@QAEXABUwxPaintDCInfo@@II@Z 004966ed f   wxmswd:dcclient.obj
 0001:000957c7       ?Index@wxArrayDCInfo@@QBEHABUwxPaintDCInfo@@_N@Z 004967c7 f   wxmswd:dcclient.obj
 0001:00095861       ?wxConstructorForwxWindowDC@@YAPAVwxObject@@XZ 00496861 f   wxmswd:dcclient.obj
 0001:0009590a       ?wxConstructorForwxClientDC@@YAPAVwxObject@@XZ 0049690a f   wxmswd:dcclient.obj
 0001:000959b3       ?wxConstructorForwxPaintDC@@YAPAVwxObject@@XZ 004969b3 f   wxmswd:dcclient.obj
 0001:00095a5c       ??0wxWindowDC@@QAE@XZ      00496a5c f   wxmswd:dcclient.obj
 0001:00095a88       ??0wxWindowDC@@QAE@PAVwxWindow@@@Z 00496a88 f   wxmswd:dcclient.obj
 0001:00095b0b       ?InitDC@wxWindowDC@@IAEXXZ 00496b0b f   wxmswd:dcclient.obj
 0001:00095b6a       ?DoGetSize@wxWindowDC@@MBEXPAH0@Z 00496b6a f   wxmswd:dcclient.obj
 0001:00095bc3       ??0wxClientDC@@QAE@XZ      00496bc3 f   wxmswd:dcclient.obj
 0001:00095bef       ??0wxClientDC@@QAE@PAVwxWindow@@@Z 00496bef f   wxmswd:dcclient.obj
 0001:00095c75       ?InitDC@wxClientDC@@IAEXXZ 00496c75 f   wxmswd:dcclient.obj
 0001:00095c88       ??1wxClientDC@@UAE@XZ      00496c88 f   wxmswd:dcclient.obj
 0001:00095ca4       ?DoGetSize@wxClientDC@@MBEXPAH0@Z 00496ca4 f   wxmswd:dcclient.obj
 0001:00095d5c       ??0wxPaintDC@@QAE@XZ       00496d5c f   wxmswd:dcclient.obj
 0001:00095d88       ??0wxPaintDC@@QAE@PAVwxWindow@@@Z 00496d88 f   wxmswd:dcclient.obj
 0001:00095edf       ??1wxPaintDC@@UAE@XZ       00496edf f   wxmswd:dcclient.obj
 0001:00095fcd       ?FindInCache@wxPaintDC@@IBEPAUwxPaintDCInfo@@PAI@Z 00496fcd f   wxmswd:dcclient.obj
 0001:0009604b       ?FindDCInCache@wxPaintDC@@SAKPAVwxWindow@@@Z 0049704b f   wxmswd:dcclient.obj
 0001:000960b0       ??_EwxWindowDC@@UAEPAXI@Z  004970b0 f i wxmswd:dcclient.obj
 0001:000960b0       ??_GwxWindowDC@@UAEPAXI@Z  004970b0 f i wxmswd:dcclient.obj
 0001:000960e0       ??_GwxClientDC@@UAEPAXI@Z  004970e0 f i wxmswd:dcclient.obj
 0001:000960e0       ??_EwxClientDC@@UAEPAXI@Z  004970e0 f i wxmswd:dcclient.obj
 0001:00096110       ??_GwxPaintDC@@UAEPAXI@Z   00497110 f i wxmswd:dcclient.obj
 0001:00096110       ??_EwxPaintDC@@UAEPAXI@Z   00497110 f i wxmswd:dcclient.obj
 0001:00096140       ??0wxPaintDCInfo@@QAE@PAVwxWindow@@PAVwxDC@@@Z 00497140 f i wxmswd:dcclient.obj
 0001:00096180       ??0wxArrayDCInfo@@QAE@XZ   00497180 f i wxmswd:dcclient.obj
 0001:000961a0       ??AwxArrayDCInfo@@QBEAAUwxPaintDCInfo@@I@Z 004971a0 f i wxmswd:dcclient.obj
 0001:000961c0       ?Add@wxArrayDCInfo@@QAEXPBUwxPaintDCInfo@@@Z 004971c0 f i wxmswd:dcclient.obj
 0001:000961e0       ?Empty@wxArrayDCInfo@@QAEXXZ 004971e0 f i wxmswd:dcclient.obj
 0001:00096200       ?Clear@wxArrayDCInfo@@QAEXXZ 00497200 f i wxmswd:dcclient.obj
 0001:00096220       ?GetClassInfo@wxWindowDC@@UBEPAVwxClassInfo@@XZ 00497220 f i wxmswd:dcclient.obj
 0001:00096230       ?GetClassInfo@wxClientDC@@UBEPAVwxClassInfo@@XZ 00497230 f i wxmswd:dcclient.obj
 0001:00096240       ?GetClassInfo@wxPaintDC@@UBEPAVwxClassInfo@@XZ 00497240 f i wxmswd:dcclient.obj
 0001:00096395       ??0wxColourChanger@@QAE@AAVwxDC@@@Z 00497395 f   wxmswd:dc.obj
 0001:00096495       ??1wxColourChanger@@QAE@XZ 00497495 f   wxmswd:dc.obj
 0001:000964e9       ??0wxDC@@QAE@XZ            004974e9 f   wxmswd:dc.obj
 0001:00096586       ??1wxDC@@UAE@XZ            00497586 f   wxmswd:dc.obj
 0001:00096632       ?SelectOldObjects@wxDC@@UAEXK@Z 00497632 f   wxmswd:dc.obj
 0001:000967c5       ?UpdateClipBox@wxDC@@QAEXXZ 004977c5 f   wxmswd:dc.obj
 0001:00096809       ?SetClippingHrgn@wxDC@@IAEXK@Z 00497809 f   wxmswd:dc.obj
 0001:000968aa       ?DoSetClippingRegion@wxDC@@MAEXHHHH@Z 004978aa f   wxmswd:dc.obj
 0001:0009694b       ?DoSetClippingRegionAsRegion@wxDC@@MAEXABVwxRegion@@@Z 0049794b f   wxmswd:dc.obj
 0001:00096969       ?DestroyClippingRegion@wxDC@@UAEXXZ 00497969 f   wxmswd:dc.obj
 0001:000969da       ?CanDrawBitmap@wxDC@@UBE_NXZ 004979da f   wxmswd:dc.obj
 0001:000969e7       ?CanGetTextExtent@wxDC@@UBE_NXZ 004979e7 f   wxmswd:dc.obj
 0001:00096a27       ?GetDepth@wxDC@@UBEHXZ     00497a27 f   wxmswd:dc.obj
 0001:00096a43       ?Clear@wxDC@@UAEXXZ        00497a43 f   wxmswd:dc.obj
 0001:00096bc5       ?DoFloodFill@wxDC@@MAE_NHHABVwxColour@@H@Z 00497bc5 f   wxmswd:dc.obj
 0001:00096c5d       ?DoGetPixel@wxDC@@MBE_NHHPAVwxColour@@@Z 00497c5d f   wxmswd:dc.obj
 0001:00096ccc       ?DoCrossHair@wxDC@@MAEXHH@Z 00497ccc f   wxmswd:dc.obj
 0001:00096d95       ?DoDrawLine@wxDC@@MAEXHHHH@Z 00497d95 f   wxmswd:dc.obj
 0001:00096dfe       ?DoDrawArc@wxDC@@MAEXHHHHHH@Z 00497dfe f   wxmswd:dc.obj
 0001:00096ff1       ?DoDrawCheckMark@wxDC@@MAEXHHHH@Z 00497ff1 f   wxmswd:dc.obj
 0001:0009706d       ?DoDrawPoint@wxDC@@MAEXHH@Z 0049806d f   wxmswd:dc.obj
 0001:000970ea       ?DoDrawPolygon@wxDC@@MAEXHQAVwxPoint@@HHH@Z 004980ea f   wxmswd:dc.obj
 0001:00097284       ?DoDrawLines@wxDC@@MAEXHQAVwxPoint@@HH@Z 00498284 f   wxmswd:dc.obj
 0001:000973a7       ?DoDrawRectangle@wxDC@@MAEXHHHH@Z 004983a7 f   wxmswd:dc.obj
 0001:000974ab       ?DoDrawRoundedRectangle@wxDC@@MAEXHHHHN@Z 004984ab f   wxmswd:dc.obj
 0001:000975ad       ?DoDrawEllipse@wxDC@@MAEXHHHH@Z 004985ad f   wxmswd:dc.obj
 0001:0009762d       ?DoDrawEllipticArc@wxDC@@MAEXHHHHNN@Z 0049862d f   wxmswd:dc.obj
 0001:000978c4       ?DoDrawIcon@wxDC@@MAEXABVwxIcon@@HH@Z 004988c4 f   wxmswd:dc.obj
 0001:00097986       ?DoDrawBitmap@wxDC@@MAEXABVwxBitmap@@HH_N@Z 00498986 f   wxmswd:dc.obj
 0001:00097dfb       ?DoDrawText@wxDC@@MAEXABVwxString@@HH@Z 00498dfb f   wxmswd:dc.obj
 0001:00097e6a       ?DrawAnyText@wxDC@@IAEXABVwxString@@HH@Z 00498e6a f   wxmswd:dc.obj
 0001:00097fa3       ?DoDrawRotatedText@wxDC@@MAEXABVwxString@@HHN@Z 00498fa3 f   wxmswd:dc.obj
 0001:000982a7       ?DoSelectPalette@wxDC@@IAEX_N@Z 004992a7 f   wxmswd:dc.obj
 0001:0009835f       ?SetPalette@wxDC@@UAEXABVwxPalette@@@Z 0049935f f   wxmswd:dc.obj
 0001:0009839c       ?InitializePalette@wxDC@@IAEXXZ 0049939c f   wxmswd:dc.obj
 0001:00098437       ?SetFont@wxDC@@UAEXABVwxFont@@@Z 00499437 f   wxmswd:dc.obj
 0001:00098550       ?SetPen@wxDC@@UAEXABVwxPen@@@Z 00499550 f   wxmswd:dc.obj
 0001:0009866a       ?SetBrush@wxDC@@UAEXABVwxBrush@@@Z 0049966a f   wxmswd:dc.obj
 0001:000987e2       ?SetBackground@wxDC@@UAEXABVwxBrush@@@Z 004997e2 f   wxmswd:dc.obj
 0001:000988f1       ?SetBackgroundMode@wxDC@@UAEXH@Z 004998f1 f   wxmswd:dc.obj
 0001:00098907       ?SetLogicalFunction@wxDC@@UAEXH@Z 00499907 f   wxmswd:dc.obj
 0001:00098935       ?SetRop@wxDC@@UAEXK@Z      00499935 f   wxmswd:dc.obj
 0001:00098a97       ?StartDoc@wxDC@@UAE_NABVwxString@@@Z 00499a97 f   wxmswd:dc.obj
 0001:00098aa6       ?EndDoc@wxDC@@UAEXXZ       00499aa6 f   wxmswd:dc.obj
 0001:00098ab1       ?StartPage@wxDC@@UAEXXZ    00499ab1 f   wxmswd:dc.obj
 0001:00098abc       ?EndPage@wxDC@@UAEXXZ      00499abc f   wxmswd:dc.obj
 0001:00098ac7       ?GetCharHeight@wxDC@@UBEHXZ 00499ac7 f   wxmswd:dc.obj
 0001:00098aea       ?GetCharWidth@wxDC@@UBEHXZ 00499aea f   wxmswd:dc.obj
 0001:00098b0d       ?DoGetTextExtent@wxDC@@UBEXABVwxString@@PAH111PAVwxFont@@@Z 00499b0d f   wxmswd:dc.obj
 0001:00098bff       ?SetMapMode@wxDC@@UAEXH@Z  00499bff f   wxmswd:dc.obj
 0001:00098e6e       ?SetUserScale@wxDC@@UAEXNN@Z 00499e6e f   wxmswd:dc.obj
 0001:00098ed0       ?SetAxisOrientation@wxDC@@UAEX_N0@Z 00499ed0 f   wxmswd:dc.obj
 0001:00098f47       ?SetSystemScale@wxDC@@UAEXNN@Z 00499f47 f   wxmswd:dc.obj
 0001:00098fa9       ?SetLogicalOrigin@wxDC@@UAEXHH@Z 00499fa9 f   wxmswd:dc.obj
 0001:00098fff       ?SetDeviceOrigin@wxDC@@UAEXHH@Z 00499fff f   wxmswd:dc.obj
 0001:00099055       ?DeviceToLogicalX@wxDCBase@@QBEHH@Z 0049a055 f   wxmswd:dc.obj
 0001:00099081       ?DeviceToLogicalXRel@wxDCBase@@QBEHH@Z 0049a081 f   wxmswd:dc.obj
 0001:000990aa       ?DeviceToLogicalY@wxDCBase@@QBEHH@Z 0049a0aa f   wxmswd:dc.obj
 0001:000990d6       ?DeviceToLogicalYRel@wxDCBase@@QBEHH@Z 0049a0d6 f   wxmswd:dc.obj
 0001:000990ff       ?LogicalToDeviceX@wxDCBase@@QBEHH@Z 0049a0ff f   wxmswd:dc.obj
 0001:0009912b       ?LogicalToDeviceXRel@wxDCBase@@QBEHH@Z 0049a12b f   wxmswd:dc.obj
 0001:00099152       ?LogicalToDeviceY@wxDCBase@@QBEHH@Z 0049a152 f   wxmswd:dc.obj
 0001:0009917e       ?LogicalToDeviceYRel@wxDCBase@@QBEHH@Z 0049a17e f   wxmswd:dc.obj
 0001:000991a5       ?DoBlit@wxDC@@MAE_NHHHHPAV1@HHH_NHH@Z 0049a1a5 f   wxmswd:dc.obj
 0001:0009984a       ?DoGetSize@wxDC@@MBEXPAH0@Z 0049a84a f   wxmswd:dc.obj
 0001:0009988f       ?DoGetSizeMM@wxDC@@MBEXPAH0@Z 0049a88f f   wxmswd:dc.obj
 0001:00099991       ?GetPPI@wxDC@@UBE?AVwxSize@@XZ 0049a991 f   wxmswd:dc.obj
 0001:000999e8       ?SetLogicalScale@wxDC@@UAEXNN@Z 0049a9e8 f   wxmswd:dc.obj
 0001:00099acf       ??0wxDCCacheEntry@@QAE@KHHH@Z 0049aacf f   wxmswd:dc.obj
 0001:00099b1e       ??0wxDCCacheEntry@@QAE@KH@Z 0049ab1e f   wxmswd:dc.obj
 0001:00099b6f       ??1wxDCCacheEntry@@UAE@XZ  0049ab6f f   wxmswd:dc.obj
 0001:00099bb7       ?FindBitmapInCache@wxDC@@SAPAVwxDCCacheEntry@@KHH@Z 0049abb7 f   wxmswd:dc.obj
 0001:00099d53       ?FindDCInCache@wxDC@@SAPAVwxDCCacheEntry@@PAV2@K@Z 0049ad53 f   wxmswd:dc.obj
 0001:00099e53       ?AddToBitmapCache@wxDC@@SAXPAVwxDCCacheEntry@@@Z 0049ae53 f   wxmswd:dc.obj
 0001:00099e66       ?AddToDCCache@wxDC@@SAXPAVwxDCCacheEntry@@@Z 0049ae66 f   wxmswd:dc.obj
 0001:00099e79       ?ClearCache@wxDC@@SAXXZ    0049ae79 f   wxmswd:dc.obj
 0001:00099ec2       ?wxConstructorForwxDCModule@@YAPAVwxObject@@XZ 0049aec2 f   wxmswd:dc.obj
 0001:00099f70       ??_EwxDC@@UAEPAXI@Z        0049af70 f i wxmswd:dc.obj
 0001:00099f70       ??_GwxDC@@UAEPAXI@Z        0049af70 f i wxmswd:dc.obj
 0001:00099fa0       ?wxRGBToColour@@YAXAAVwxColour@@K@Z 0049afa0 f i wxmswd:dc.obj
 0001:00099fd0       ??_GwxDCCacheEntry@@UAEPAXI@Z 0049afd0 f i wxmswd:dc.obj
 0001:00099fd0       ??_EwxDCCacheEntry@@UAEPAXI@Z 0049afd0 f i wxmswd:dc.obj
 0001:0009a000       ??0wxDCModule@@QAE@XZ      0049b000 f i wxmswd:dc.obj
 0001:0009a020       ?OnInit@wxDCModule@@UAE_NXZ 0049b020 f i wxmswd:dc.obj
 0001:0009a030       ?OnExit@wxDCModule@@UAEXXZ 0049b030 f i wxmswd:dc.obj
 0001:0009a040       ?GetClassInfo@wxDCModule@@UBEPAVwxClassInfo@@XZ 0049b040 f i wxmswd:dc.obj
 0001:0009a050       ??_EwxDCModule@@UAEPAXI@Z  0049b050 f i wxmswd:dc.obj
 0001:0009a050       ??_GwxDCModule@@UAEPAXI@Z  0049b050 f i wxmswd:dc.obj
 0001:0009a080       ??1wxDCModule@@UAE@XZ      0049b080 f i wxmswd:dc.obj
 0001:0009a0a0       ?SetSelectedInto@wxBitmap@@QAEXPAVwxDC@@@Z 0049b0a0 f i wxmswd:dc.obj
 0001:0009a0d0       ?Ok@wxBrush@@QBE_NXZ       0049b0d0 f i wxmswd:dc.obj
 0001:0009a0f0       ??4wxPen@@QAEAAV0@ABV0@@Z  0049b0f0 f i wxmswd:dc.obj
 0001:0009a130       ??8wxPen@@QBE_NABV0@@Z     0049b130 f i wxmswd:dc.obj
 0001:0009a150       ?GetStyle@wxPen@@QBEHXZ    0049b150 f i wxmswd:dc.obj
 0001:0009a180       ??0wxDCBase@@QAE@XZ        0049b180 f i wxmswd:dc.obj
 0001:0009a3a0       ??0wxBrush@@QAE@ABV0@@Z    0049b3a0 f i wxmswd:dc.obj
 0001:0009a3d0       ?GetClassInfo@wxBrush@@UBEPAVwxClassInfo@@XZ 0049b3d0 f i wxmswd:dc.obj
 0001:0009a3e0       ??_GwxBrush@@UAEPAXI@Z     0049b3e0 f i wxmswd:dc.obj
 0001:0009a3e0       ??_EwxBrush@@UAEPAXI@Z     0049b3e0 f i wxmswd:dc.obj
 0001:0009a410       ??1wxDCBase@@UAE@XZ        0049b410 f i wxmswd:dc.obj
 0001:0009a490       ?Blit@wxDCBase@@QAE_NHHHHPAVwxDC@@HHH_NHH@Z 0049b490 f i wxmswd:dc.obj
 0001:0009a4e0       ?StartDoc@wxDCBase@@UAE_NABVwxString@@@Z 0049b4e0 f i wxmswd:dc.obj
 0001:0009a4f0       ?EndDoc@wxDCBase@@UAEXXZ   0049b4f0 f i wxmswd:dc.obj
 0001:0009a500       ?StartPage@wxDCBase@@UAEXXZ 0049b500 f i wxmswd:dc.obj
 0001:0009a510       ?EndPage@wxDCBase@@UAEXXZ  0049b510 f i wxmswd:dc.obj
 0001:0009a520       ?GetTextExtent@wxDCBase@@QBEXABVwxString@@PAH111PAVwxFont@@@Z 0049b520 f i wxmswd:dc.obj
 0001:0009a560       ?GetBackgroundMode@wxDCBase@@QBEHXZ 0049b560 f i wxmswd:dc.obj
 0001:0009a580       ?GetBrush@wxDCBase@@QAEAAVwxBrush@@XZ 0049b580 f i wxmswd:dc.obj
 0001:0009a5a0       ?GetTextBackground@wxDCBase@@QAEAAVwxColour@@XZ 0049b5a0 f i wxmswd:dc.obj
 0001:0009a5c0       ?GetTextForeground@wxDCBase@@QAEAAVwxColour@@XZ 0049b5c0 f i wxmswd:dc.obj
 0001:0009a5e0       ?SetLogicalScale@wxDCBase@@UAEXNN@Z 0049b5e0 f i wxmswd:dc.obj
 0001:0009a610       ?ResetBoundingBox@wxDCBase@@QAEXXZ 0049b610 f i wxmswd:dc.obj
 0001:0009a660       ?DoGetClippingRegion@wxDCBase@@MAEXPAH000@Z 0049b660 f i wxmswd:dc.obj
 0001:0009a690       ?GetClassInfo@wxDCBase@@UBEPAVwxClassInfo@@XZ 0049b690 f i wxmswd:dc.obj
 0001:0009a6a0       ??_GwxDCBase@@UAEPAXI@Z    0049b6a0 f i wxmswd:dc.obj
 0001:0009a6a0       ??_EwxDCBase@@UAEPAXI@Z    0049b6a0 f i wxmswd:dc.obj
 0001:0009a6d0       ?GetPalette@wxWindowBase@@QBE?AVwxPalette@@XZ 0049b6d0 f i wxmswd:dc.obj
 0001:0009a700       ??0wxPalette@@QAE@ABV0@@Z  0049b700 f i wxmswd:dc.obj
 0001:0009a730       ?GetClassInfo@wxPalette@@UBEPAVwxClassInfo@@XZ 0049b730 f i wxmswd:dc.obj
 0001:0009a740       ?Ok@wxPalette@@UBE_NXZ     0049b740 f i wxmswd:dc.obj
 0001:0009a760       ??_EwxPalette@@UAEPAXI@Z   0049b760 f i wxmswd:dc.obj
 0001:0009a760       ??_GwxPalette@@UAEPAXI@Z   0049b760 f i wxmswd:dc.obj
 0001:0009a790       ?SetTransparent@wxWindow@@QAEX_N@Z 0049b790 f i wxmswd:dc.obj
 0001:0009a896       ?wxConstructorForwxCursor@@YAPAVwxObject@@XZ 0049b896 f   wxmswd:cursor.obj
 0001:0009a939       ??0wxCursorRefData@@QAE@XZ 0049b939 f   wxmswd:cursor.obj
 0001:0009a973       ?Free@wxCursorRefData@@UAEXXZ 0049b973 f   wxmswd:cursor.obj
 0001:0009a9aa       ??0wxCursor@@QAE@XZ        0049b9aa f   wxmswd:cursor.obj
 0001:0009a9c9       ??0wxCursor@@QAE@ABVwxImage@@@Z 0049b9c9 f   wxmswd:cursor.obj
 0001:0009ad96       ??0wxCursor@@QAE@QBDHHHH0@Z 0049bd96 f   wxmswd:cursor.obj
 0001:0009adb7       ??0wxCursor@@QAE@ABVwxString@@JHH@Z 0049bdb7 f   wxmswd:cursor.obj
 0001:0009af35       ??0wxCursor@@QAE@H@Z       0049bf35 f   wxmswd:cursor.obj
 0001:0009b2c1       ??1wxCursor@@UAE@XZ        0049c2c1 f   wxmswd:cursor.obj
 0001:0009b2dd       ?wxGetGlobalCursor@@YAPBVwxCursor@@XZ 0049c2dd f   wxmswd:cursor.obj
 0001:0009b2e7       ?wxSetCursor@@YAXABVwxCursor@@@Z 0049c2e7 f   wxmswd:cursor.obj
 0001:0009b330       ??_GwxCursorRefData@@UAEPAXI@Z 0049c330 f i wxmswd:cursor.obj
 0001:0009b330       ??_EwxCursorRefData@@UAEPAXI@Z 0049c330 f i wxmswd:cursor.obj
 0001:0009b360       ??1wxCursorRefData@@UAE@XZ 0049c360 f i wxmswd:cursor.obj
 0001:0009b3f4       ?wxConstructorForwxSplitterWindow@@YAPAVwxObject@@XZ 0049c3f4 f   wxmswd:splitter.obj
 0001:0009b49d       ?wxConstructorForwxSplitterEvent@@YAPAVwxObject@@XZ 0049c49d f   wxmswd:splitter.obj
 0001:0009b548       ?GetEventTable@wxSplitterWindow@@MBEPBUwxEventTable@@XZ 0049c548 f   wxmswd:splitter.obj
 0001:0009b878       ?SetDefaultItem@wxSplitterWindow@@UAEPAVwxWindow@@PAV2@@Z 0049c878 f   wxmswd:splitter.obj
 0001:0009b897       ?SetTmpDefaultItem@wxSplitterWindow@@UAEXPAVwxWindow@@@Z 0049c897 f   wxmswd:splitter.obj
 0001:0009b8b6       ?GetDefaultItem@wxSplitterWindow@@UBEPAVwxWindow@@XZ 0049c8b6 f   wxmswd:splitter.obj
 0001:0009b8cf       ?OnNavigationKey@wxSplitterWindow@@QAEXAAVwxNavigationKeyEvent@@@Z 0049c8cf f   wxmswd:splitter.obj
 0001:0009b8ee       ?RemoveChild@wxSplitterWindow@@UAEXPAVwxWindowBase@@@Z 0049c8ee f   wxmswd:splitter.obj
 0001:0009b919       ?SetFocus@wxSplitterWindow@@UAEXXZ 0049c919 f   wxmswd:splitter.obj
 0001:0009b943       ?OnChildFocus@wxSplitterWindow@@UAEXAAVwxChildFocusEvent@@@Z 0049c943 f   wxmswd:splitter.obj
 0001:0009b967       ?OnFocus@wxSplitterWindow@@QAEXAAVwxFocusEvent@@@Z 0049c967 f   wxmswd:splitter.obj
 0001:0009b986       ?Create@wxSplitterWindow@@QAE_NPAVwxWindow@@HABVwxPoint@@ABVwxSize@@JABVwxString@@@Z 0049c986 f   wxmswd:splitter.obj
 0001:0009ba4e       ?Init@wxSplitterWindow@@IAEXXZ 0049ca4e f   wxmswd:splitter.obj
 0001:0009bbff       ??1wxSplitterWindow@@UAE@XZ 0049cbff f   wxmswd:splitter.obj
 0001:0009bd90       ?SetResizeCursor@wxSplitterWindow@@IAEXXZ 0049cd90 f   wxmswd:splitter.obj
 0001:0009bddb       ?OnPaint@wxSplitterWindow@@QAEXAAVwxPaintEvent@@@Z 0049cddb f   wxmswd:splitter.obj
 0001:0009be52       ?OnIdle@wxSplitterWindow@@QAEXAAVwxIdleEvent@@@Z 0049ce52 f   wxmswd:splitter.obj
 0001:0009be86       ?OnMouseEvent@wxSplitterWindow@@QAEXAAVwxMouseEvent@@@Z 0049ce86 f   wxmswd:splitter.obj
 0001:0009c3c8       ?OnSize@wxSplitterWindow@@QAEXAAVwxSizeEvent@@@Z 0049d3c8 f   wxmswd:splitter.obj
 0001:0009c537       ?SashHitTest@wxSplitterWindow@@UAE_NHHH@Z 0049d537 f   wxmswd:splitter.obj
 0001:0009c5d0       ?DrawBorders@wxSplitterWindow@@UAEXAAVwxDC@@@Z 0049d5d0 f   wxmswd:splitter.obj
 0001:0009c9b0       ?DrawSash@wxSplitterWindow@@UAEXAAVwxDC@@@Z 0049d9b0 f   wxmswd:splitter.obj
 0001:0009d20c       ?DrawSashTracker@wxSplitterWindow@@UAEXHH@Z 0049e20c f   wxmswd:splitter.obj
 0001:0009d3b5       ?GetWindowSize@wxSplitterWindow@@IBEHXZ 0049e3b5 f   wxmswd:splitter.obj
 0001:0009d3f6       ?AdjustSashPosition@wxSplitterWindow@@IBEHH@Z 0049e3f6 f   wxmswd:splitter.obj
 0001:0009d516       ?DoSetSashPosition@wxSplitterWindow@@IAE_NH@Z 0049e516 f   wxmswd:splitter.obj
 0001:0009d554       ?SetSashPositionAndNotify@wxSplitterWindow@@IAEXH@Z 0049e554 f   wxmswd:splitter.obj
 0001:0009d5ab       ?SizeWindows@wxSplitterWindow@@UAEXXZ 0049e5ab f   wxmswd:splitter.obj
 0001:0009d9a9       ?Initialize@wxSplitterWindow@@QAEXPAVwxWindow@@@Z 0049e9a9 f   wxmswd:splitter.obj
 0001:0009da1e       ?DoSplit@wxSplitterWindow@@IAE_NW4wxSplitMode@@PAVwxWindow@@1H@Z 0049ea1e f   wxmswd:splitter.obj
 0001:0009db1e       ?ConvertSashPosition@wxSplitterWindow@@IBEHH@Z 0049eb1e f   wxmswd:splitter.obj
 0001:0009db56       ?Unsplit@wxSplitterWindow@@QAE_NPAVwxWindow@@@Z 0049eb56 f   wxmswd:splitter.obj
 0001:0009dc49       ?ReplaceWindow@wxSplitterWindow@@QAE_NPAVwxWindow@@0@Z 0049ec49 f   wxmswd:splitter.obj
 0001:0009dd39       ?SetMinimumPaneSize@wxSplitterWindow@@QAEXH@Z 0049ed39 f   wxmswd:splitter.obj
 0001:0009dd66       ?SetSashPosition@wxSplitterWindow@@QAEXH_N@Z 0049ed66 f   wxmswd:splitter.obj
 0001:0009dd9a       ?InitColours@wxSplitterWindow@@QAEXXZ 0049ed9a f   wxmswd:splitter.obj
 0001:0009e20f       ?OnSashPositionChange@wxSplitterWindow@@UAE_NH@Z 0049f20f f   wxmswd:splitter.obj
 0001:0009e21e       ?OnSashPositionChanging@wxSplitterWindow@@UAEHH@Z 0049f21e f   wxmswd:splitter.obj
 0001:0009e32e       ?OnDoubleClickSash@wxSplitterWindow@@UAEXHH@Z 0049f32e f   wxmswd:splitter.obj
 0001:0009e39e       ?OnUnsplit@wxSplitterWindow@@UAEXPAVwxWindow@@@Z 0049f39e f   wxmswd:splitter.obj
 0001:0009e3e7       ?OnSetCursor@wxSplitterWindow@@IAEXAAVwxSetCursorEvent@@@Z 0049f3e7 f   wxmswd:splitter.obj
 0001:0009e430       ??0wxSplitterWindow@@QAE@XZ 0049f430 f i wxmswd:splitter.obj
 0001:0009e490       ??0wxSplitterEvent@@QAE@HPAVwxSplitterWindow@@@Z 0049f490 f i wxmswd:splitter.obj
 0001:0009e4e0       ?GetClassInfo@wxSplitterEvent@@UBEPAVwxClassInfo@@XZ 0049f4e0 f i wxmswd:splitter.obj
 0001:0009e4f0       ??_EwxSplitterEvent@@UAEPAXI@Z 0049f4f0 f i wxmswd:splitter.obj
 0001:0009e4f0       ??_GwxSplitterEvent@@UAEPAXI@Z 0049f4f0 f i wxmswd:splitter.obj
 0001:0009e520       ??1wxSplitterEvent@@UAE@XZ 0049f520 f i wxmswd:splitter.obj
 0001:0009e540       ?IsSplit@wxSplitterWindow@@QBE_NXZ 0049f540 f i wxmswd:splitter.obj
 0001:0009e560       ??1wxScreenDC@@UAE@XZ      0049f560 f i wxmswd:splitter.obj
 0001:0009e580       ?GetWindow1@wxSplitterWindow@@QBEPAVwxWindow@@XZ 0049f580 f i wxmswd:splitter.obj
 0001:0009e5a0       ?GetWindow2@wxSplitterWindow@@QBEPAVwxWindow@@XZ 0049f5a0 f i wxmswd:splitter.obj
 0001:0009e5c0       ?GetBorderSize@wxSplitterWindow@@QBEHXZ 0049f5c0 f i wxmswd:splitter.obj
 0001:0009e5e0       ?GetSplitMode@wxSplitterWindow@@QBE?AW4wxSplitMode@@XZ 0049f5e0 f i wxmswd:splitter.obj
 0001:0009e600       ?GetSashSize@wxSplitterWindow@@QBEHXZ 0049f600 f i wxmswd:splitter.obj
 0001:0009e620       ?GetSashPosition@wxSplitterWindow@@QBEHXZ 0049f620 f i wxmswd:splitter.obj
 0001:0009e640       ?SetNeedUpdating@wxSplitterWindow@@QAEX_N@Z 0049f640 f i wxmswd:splitter.obj
 0001:0009e660       ?DoSendEvent@wxSplitterWindow@@IAE_NAAVwxSplitterEvent@@@Z 0049f660 f i wxmswd:splitter.obj
 0001:0009e6c0       ?GetSashPosition@wxSplitterEvent@@QBEHXZ 0049f6c0 f i wxmswd:splitter.obj
 0001:0009e720       ?GetMinimumPaneSize@wxSplitterWindow@@QBEHXZ 0049f720 f i wxmswd:splitter.obj
 0001:0009e740       ??_9@$BCDI@AE              0049f740 f i wxmswd:splitter.obj
 0001:0009e750       ?IsAllowed@wxNotifyEvent@@QBE_NXZ 0049f750 f i wxmswd:splitter.obj
 0001:0009e770       ?GetX@wxMouseEvent@@QBEHXZ 0049f770 f i wxmswd:splitter.obj
 0001:0009e790       ?GetY@wxMouseEvent@@QBEHXZ 0049f790 f i wxmswd:splitter.obj
 0001:0009e7b0       ?GetX@wxSetCursorEvent@@QBEHXZ 0049f7b0 f i wxmswd:splitter.obj
 0001:0009e7d0       ?GetY@wxSetCursorEvent@@QBEHXZ 0049f7d0 f i wxmswd:splitter.obj
 0001:0009e8c6       ?wxConstructorForwxBMPFileHandler@@YAPAVwxObject@@XZ 0049f8c6 f   wxmswd:gdiimage.obj
 0001:0009e969       ?wxConstructorForwxBMPResourceHandler@@YAPAVwxObject@@XZ 0049f969 f   wxmswd:gdiimage.obj
 0001:0009ea0c       ?wxConstructorForwxICOFileHandler@@YAPAVwxObject@@XZ 0049fa0c f   wxmswd:gdiimage.obj
 0001:0009eaaf       ?wxConstructorForwxICOResourceHandler@@YAPAVwxObject@@XZ 0049faaf f   wxmswd:gdiimage.obj
 0001:0009ebb0       ?FreeResource@wxGDIImage@@UAE_N_N@Z 0049fbb0 f   wxmswd:gdiimage.obj
 0001:0009ebf7       ?GetResourceHandle@wxGDIImage@@UBEKXZ 0049fbf7 f   wxmswd:gdiimage.obj
 0001:0009ec0a       ?AddHandler@wxGDIImage@@SAXPAVwxGDIImageHandler@@@Z 0049fc0a f   wxmswd:gdiimage.obj
 0001:0009ec1d       ?InsertHandler@wxGDIImage@@SAXPAVwxGDIImageHandler@@@Z 0049fc1d f   wxmswd:gdiimage.obj
 0001:0009ec30       ?RemoveHandler@wxGDIImage@@SA_NABVwxString@@@Z 0049fc30 f   wxmswd:gdiimage.obj
 0001:0009ec61       ?FindHandler@wxGDIImage@@SAPAVwxGDIImageHandler@@ABVwxString@@@Z 0049fc61 f   wxmswd:gdiimage.obj
 0001:0009ecce       ?FindHandler@wxGDIImage@@SAPAVwxGDIImageHandler@@ABVwxString@@J@Z 0049fcce f   wxmswd:gdiimage.obj
 0001:0009eda6       ?FindHandler@wxGDIImage@@SAPAVwxGDIImageHandler@@J@Z 0049fda6 f   wxmswd:gdiimage.obj
 0001:0009edef       ?CleanUpHandlers@wxGDIImage@@SAXXZ 0049fdef f   wxmswd:gdiimage.obj
 0001:0009ee7f       ?InitStandardHandlers@wxGDIImage@@SAXXZ 0049fe7f f   wxmswd:gdiimage.obj
 0001:0009ef55       ?LoadFile@wxBMPResourceHandler@@UAE_NPAVwxBitmap@@ABVwxString@@JHH@Z 0049ff55 f   wxmswd:gdiimage.obj
 0001:0009f02b       ?LoadFile@wxBMPFileHandler@@UAE_NPAVwxBitmap@@ABVwxString@@JHH@Z 004a002b f   wxmswd:gdiimage.obj
 0001:0009f0b5       ?SaveFile@wxBMPFileHandler@@UAE_NPAVwxBitmap@@ABVwxString@@HPBVwxPalette@@@Z 004a00b5 f   wxmswd:gdiimage.obj
 0001:0009f0ff       ?LoadIconA@wxICOFileHandler@@UAE_NPAVwxIcon@@ABVwxString@@JHH@Z 004a00ff f   wxmswd:gdiimage.obj
 0001:0009f34d       ?LoadIconA@wxICOResourceHandler@@UAE_NPAVwxIcon@@ABVwxString@@JHH@Z 004a034d f   wxmswd:gdiimage.obj
 0001:0009f4b8       ?wxGetHiconSize@@YA?AVwxSize@@PAUHICON__@@@Z 004a04b8 f   wxmswd:gdiimage.obj
 0001:0009f5a0       ??0wxBMPFileHandler@@QAE@XZ 004a05a0 f i wxmswd:gdiimage.obj
 0001:0009f600       ?GetClassInfo@wxBMPFileHandler@@UBEPAVwxClassInfo@@XZ 004a0600 f i wxmswd:gdiimage.obj
 0001:0009f610       ??_GwxBMPFileHandler@@UAEPAXI@Z 004a0610 f i wxmswd:gdiimage.obj
 0001:0009f610       ??_EwxBMPFileHandler@@UAEPAXI@Z 004a0610 f i wxmswd:gdiimage.obj
 0001:0009f640       ??1wxBMPFileHandler@@UAE@XZ 004a0640 f i wxmswd:gdiimage.obj
 0001:0009f660       ??0wxBMPResourceHandler@@QAE@XZ 004a0660 f i wxmswd:gdiimage.obj
 0001:0009f6c0       ?GetClassInfo@wxBMPResourceHandler@@UBEPAVwxClassInfo@@XZ 004a06c0 f i wxmswd:gdiimage.obj
 0001:0009f6d0       ??_EwxBMPResourceHandler@@UAEPAXI@Z 004a06d0 f i wxmswd:gdiimage.obj
 0001:0009f6d0       ??_GwxBMPResourceHandler@@UAEPAXI@Z 004a06d0 f i wxmswd:gdiimage.obj
 0001:0009f700       ??1wxBMPResourceHandler@@UAE@XZ 004a0700 f i wxmswd:gdiimage.obj
 0001:0009f720       ??0wxICOFileHandler@@QAE@XZ 004a0720 f i wxmswd:gdiimage.obj
 0001:0009f780       ??0wxIconHandler@@QAE@ABVwxString@@0J@Z 004a0780 f i wxmswd:gdiimage.obj
 0001:0009f7b0       ?Create@wxIconHandler@@UAE_NPAVwxGDIImage@@PAXJHHH@Z 004a07b0 f i wxmswd:gdiimage.obj
 0001:0009f7c0       ?Save@wxIconHandler@@UAE_NPAVwxGDIImage@@ABVwxString@@H@Z 004a07c0 f i wxmswd:gdiimage.obj
 0001:0009f7d0       ?Load@wxIconHandler@@UAE_NPAVwxGDIImage@@ABVwxString@@JHH@Z 004a07d0 f i wxmswd:gdiimage.obj
 0001:0009f850       ??_GwxIconHandler@@UAEPAXI@Z 004a0850 f i wxmswd:gdiimage.obj
 0001:0009f850       ??_EwxIconHandler@@UAEPAXI@Z 004a0850 f i wxmswd:gdiimage.obj
 0001:0009f880       ??1wxIconHandler@@UAE@XZ   004a0880 f i wxmswd:gdiimage.obj
 0001:0009f8a0       ?GetClassInfo@wxICOFileHandler@@UBEPAVwxClassInfo@@XZ 004a08a0 f i wxmswd:gdiimage.obj
 0001:0009f8b0       ??_EwxICOFileHandler@@UAEPAXI@Z 004a08b0 f i wxmswd:gdiimage.obj
 0001:0009f8b0       ??_GwxICOFileHandler@@UAEPAXI@Z 004a08b0 f i wxmswd:gdiimage.obj
 0001:0009f8e0       ??1wxICOFileHandler@@UAE@XZ 004a08e0 f i wxmswd:gdiimage.obj
 0001:0009f900       ??0wxICOResourceHandler@@QAE@XZ 004a0900 f i wxmswd:gdiimage.obj
 0001:0009f960       ?GetClassInfo@wxICOResourceHandler@@UBEPAVwxClassInfo@@XZ 004a0960 f i wxmswd:gdiimage.obj
 0001:0009f970       ??_EwxICOResourceHandler@@UAEPAXI@Z 004a0970 f i wxmswd:gdiimage.obj
 0001:0009f970       ??_GwxICOResourceHandler@@UAEPAXI@Z 004a0970 f i wxmswd:gdiimage.obj
 0001:0009f9a0       ??1wxICOResourceHandler@@UAE@XZ 004a09a0 f i wxmswd:gdiimage.obj
 0001:0009f9c0       ??0wxGDIImageHandler@@QAE@ABVwxString@@0J@Z 004a09c0 f i wxmswd:gdiimage.obj
 0001:0009fa10       ?GetName@wxGDIImageHandler@@QBE?AVwxString@@XZ 004a0a10 f i wxmswd:gdiimage.obj
 0001:0009fa30       ?GetExtension@wxGDIImageHandler@@QBE?AVwxString@@XZ 004a0a30 f i wxmswd:gdiimage.obj
 0001:0009fa50       ?GetType@wxGDIImageHandler@@QBEJXZ 004a0a50 f i wxmswd:gdiimage.obj
 0001:0009fa70       ??0wxBitmapHandler@@QAE@ABVwxString@@0J@Z 004a0a70 f i wxmswd:gdiimage.obj
 0001:0009fd94       ??0wxSizerItem@@QAE@HHHHHPAVwxObject@@@Z 004a0d94 f   wxmswd:sizer.obj
 0001:0009fe49       ??0wxSizerItem@@QAE@PAVwxWindow@@HHHPAVwxObject@@@Z 004a0e49 f   wxmswd:sizer.obj
 0001:0009fef8       ??0wxSizerItem@@QAE@PAVwxSizer@@HHHPAVwxObject@@@Z 004a0ef8 f   wxmswd:sizer.obj
 0001:0009ff82       ??1wxSizerItem@@UAE@XZ     004a0f82 f   wxmswd:sizer.obj
 0001:000a000e       ?GetSize@wxSizerItem@@UAE?AVwxSize@@XZ 004a100e f   wxmswd:sizer.obj
 0001:000a0106       ?CalcMin@wxSizerItem@@UAE?AVwxSize@@XZ 004a1106 f   wxmswd:sizer.obj
 0001:000a0242       ?SetDimension@wxSizerItem@@UAEXVwxPoint@@VwxSize@@@Z 004a1242 f   wxmswd:sizer.obj
 0001:000a041d       ?DeleteWindows@wxSizerItem@@UAEXXZ 004a141d f   wxmswd:sizer.obj
 0001:000a045c       ?IsWindow@wxSizerItem@@QAE_NXZ 004a145c f   wxmswd:sizer.obj
 0001:000a0475       ?IsSizer@wxSizerItem@@QAE_NXZ 004a1475 f   wxmswd:sizer.obj
 0001:000a048e       ?IsSpacer@wxSizerItem@@QAE_NXZ 004a148e f   wxmswd:sizer.obj
 0001:000a04c0       ??0wxSizer@@QAE@XZ         004a14c0 f   wxmswd:sizer.obj
 0001:000a0543       ??1wxSizer@@UAE@XZ         004a1543 f   wxmswd:sizer.obj
 0001:000a05a0       ?Add@wxSizer@@UAEXPAVwxWindow@@HHHPAVwxObject@@@Z 004a15a0 f   wxmswd:sizer.obj
 0001:000a0605       ?Add@wxSizer@@UAEXPAV1@HHHPAVwxObject@@@Z 004a1605 f   wxmswd:sizer.obj
 0001:000a065e       ?Add@wxSizer@@UAEXHHHHHPAVwxObject@@@Z 004a165e f   wxmswd:sizer.obj
 0001:000a06bb       ?Prepend@wxSizer@@UAEXPAVwxWindow@@HHHPAVwxObject@@@Z 004a16bb f   wxmswd:sizer.obj
 0001:000a0720       ?Prepend@wxSizer@@UAEXPAV1@HHHPAVwxObject@@@Z 004a1720 f   wxmswd:sizer.obj
 0001:000a0779       ?Prepend@wxSizer@@UAEXHHHHHPAVwxObject@@@Z 004a1779 f   wxmswd:sizer.obj
 0001:000a07d6       ?Insert@wxSizer@@UAEXHPAVwxWindow@@HHHPAVwxObject@@@Z 004a17d6 f   wxmswd:sizer.obj
 0001:000a083f       ?Insert@wxSizer@@UAEXHPAV1@HHHPAVwxObject@@@Z 004a183f f   wxmswd:sizer.obj
 0001:000a089c       ?Insert@wxSizer@@UAEXHHHHHHPAVwxObject@@@Z 004a189c f   wxmswd:sizer.obj
 0001:000a08fd       ?Remove@wxSizer@@UAE_NPAVwxWindow@@@Z 004a18fd f   wxmswd:sizer.obj
 0001:000a098e       ?Remove@wxSizer@@UAE_NPAV1@@Z 004a198e f   wxmswd:sizer.obj
 0001:000a0a0e       ?Remove@wxSizer@@UAE_NH@Z  004a1a0e f   wxmswd:sizer.obj
 0001:000a0a5e       ?Clear@wxSizer@@UAEX_N@Z   004a1a5e f   wxmswd:sizer.obj
 0001:000a0add       ?DeleteWindows@wxSizer@@UAEXXZ 004a1add f   wxmswd:sizer.obj
 0001:000a0b21       ?Fit@wxSizer@@QAE?AVwxSize@@PAVwxWindow@@@Z 004a1b21 f   wxmswd:sizer.obj
 0001:000a0ba4       ?FitInside@wxSizer@@QAEXPAVwxWindow@@@Z 004a1ba4 f   wxmswd:sizer.obj
 0001:000a0c16       ?Layout@wxSizer@@UAEXXZ    004a1c16 f   wxmswd:sizer.obj
 0001:000a0c3d       ?SetSizeHints@wxSizer@@QAEXPAVwxWindow@@@Z 004a1c3d f   wxmswd:sizer.obj
 0001:000a0c90       ?SetVirtualSizeHints@wxSizer@@QAEXPAVwxWindow@@@Z 004a1c90 f   wxmswd:sizer.obj
 0001:000a0ce7       ?GetMaxWindowSize@wxSizer@@IAE?AVwxSize@@PAVwxWindow@@@Z 004a1ce7 f   wxmswd:sizer.obj
 0001:000a0d15       ?GetMinWindowSize@wxSizer@@IAE?AVwxSize@@PAVwxWindow@@@Z 004a1d15 f   wxmswd:sizer.obj
 0001:000a0d95       ?FitSize@wxSizer@@IAE?AVwxSize@@PAVwxWindow@@@Z 004a1d95 f   wxmswd:sizer.obj
 0001:000a0e13       ?GetMaxClientSize@wxSizer@@IAE?AVwxSize@@PAVwxWindow@@@Z 004a1e13 f   wxmswd:sizer.obj
 0001:000a0ec4       ?GetMinClientSize@wxSizer@@IAE?AVwxSize@@PAVwxWindow@@@Z 004a1ec4 f   wxmswd:sizer.obj
 0001:000a0eef       ?VirtualFitSize@wxSizer@@IAE?AVwxSize@@PAVwxWindow@@@Z 004a1eef f   wxmswd:sizer.obj
 0001:000a0f6d       ?SetDimension@wxSizer@@QAEXHHHH@Z 004a1f6d f   wxmswd:sizer.obj
 0001:000a0fa9       ?GetMinSize@wxSizer@@QAE?AVwxSize@@XZ 004a1fa9 f   wxmswd:sizer.obj
 0001:000a100b       ?DoSetMinSize@wxSizer@@MAEXHH@Z 004a200b f   wxmswd:sizer.obj
 0001:000a102a       ?DoSetItemMinSize@wxSizer@@MAE_NPAVwxWindow@@HH@Z 004a202a f   wxmswd:sizer.obj
 0001:000a1112       ?DoSetItemMinSize@wxSizer@@MAE_NPAV1@HH@Z 004a2112 f   wxmswd:sizer.obj
 0001:000a1208       ?DoSetItemMinSize@wxSizer@@MAE_NHHH@Z 004a2208 f   wxmswd:sizer.obj
 0001:000a127c       ?Show@wxSizer@@QAEXPAVwxWindow@@_N@Z 004a227c f   wxmswd:sizer.obj
 0001:000a12f2       ?Show@wxSizer@@QAEXPAV1@_N@Z 004a22f2 f   wxmswd:sizer.obj
 0001:000a1365       ?ShowItems@wxSizer@@QAEX_N@Z 004a2365 f   wxmswd:sizer.obj
 0001:000a13f1       ?IsShown@wxSizer@@QAE_NPAVwxWindow@@@Z 004a23f1 f   wxmswd:sizer.obj
 0001:000a1456       ?IsShown@wxSizer@@QAE_NPAV1@@Z 004a2456 f   wxmswd:sizer.obj
 0001:000a14bb       ??0wxGridSizer@@QAE@HHHH@Z 004a24bb f   wxmswd:sizer.obj
 0001:000a150a       ??0wxGridSizer@@QAE@HHH@Z  004a250a f   wxmswd:sizer.obj
 0001:000a155a       ?CalcRowsCols@wxGridSizer@@IBEHAAH0@Z 004a255a f   wxmswd:sizer.obj
 0001:000a161e       ?RecalcSizes@wxGridSizer@@UAEXXZ 004a261e f   wxmswd:sizer.obj
 0001:000a1784       ?CalcMin@wxGridSizer@@UAE?AVwxSize@@XZ 004a2784 f   wxmswd:sizer.obj
 0001:000a189f       ?SetItemBounds@wxGridSizer@@IAEXPAVwxSizerItem@@HHHH@Z 004a289f f   wxmswd:sizer.obj
 0001:000a19ad       ??0wxFlexGridSizer@@QAE@HHHH@Z 004a29ad f   wxmswd:sizer.obj
 0001:000a1a12       ??0wxFlexGridSizer@@QAE@HHH@Z 004a2a12 f   wxmswd:sizer.obj
 0001:000a1a73       ??1wxFlexGridSizer@@UAE@XZ 004a2a73 f   wxmswd:sizer.obj
 0001:000a1aed       ?CreateArrays@wxFlexGridSizer@@IAEXXZ 004a2aed f   wxmswd:sizer.obj
 0001:000a1bf1       ?RecalcSizes@wxFlexGridSizer@@UAEXXZ 004a2bf1 f   wxmswd:sizer.obj
 0001:000a2047       ?CalcMin@wxFlexGridSizer@@UAE?AVwxSize@@XZ 004a3047 f   wxmswd:sizer.obj
 0001:000a221f       ?AddGrowableRow@wxFlexGridSizer@@QAEXI@Z 004a321f f   wxmswd:sizer.obj
 0001:000a223d       ?RemoveGrowableRow@wxFlexGridSizer@@QAEXI@Z 004a323d f   wxmswd:sizer.obj
 0001:000a224a       ?AddGrowableCol@wxFlexGridSizer@@QAEXI@Z 004a324a f   wxmswd:sizer.obj
 0001:000a2268       ?RemoveGrowableCol@wxFlexGridSizer@@QAEXI@Z 004a3268 f   wxmswd:sizer.obj
 0001:000a2275       ??0wxBoxSizer@@QAE@H@Z     004a3275 f   wxmswd:sizer.obj
 0001:000a22a9       ?RecalcSizes@wxBoxSizer@@UAEXXZ 004a32a9 f   wxmswd:sizer.obj
 0001:000a259f       ?CalcMin@wxBoxSizer@@UAE?AVwxSize@@XZ 004a359f f   wxmswd:sizer.obj
 0001:000a2890       ??0wxStaticBoxSizer@@QAE@PAVwxStaticBox@@H@Z 004a3890 f   wxmswd:sizer.obj
 0001:000a28ee       ?RecalcSizes@wxStaticBoxSizer@@UAEXXZ 004a38ee f   wxmswd:sizer.obj
 0001:000a29db       ?CalcMin@wxStaticBoxSizer@@UAE?AVwxSize@@XZ 004a39db f   wxmswd:sizer.obj
 0001:000a2a43       ??0wxNotebookSizer@@QAE@PAVwxNotebook@@@Z 004a3a43 f   wxmswd:sizer.obj
 0001:000a2a9d       ?RecalcSizes@wxNotebookSizer@@UAEXXZ 004a3a9d f   wxmswd:sizer.obj
 0001:000a2ad1       ?CalcMin@wxNotebookSizer@@UAE?AVwxSize@@XZ 004a3ad1 f   wxmswd:sizer.obj
 0001:000a2c20       ??_EwxSizerItem@@UAEPAXI@Z 004a3c20 f i wxmswd:sizer.obj
 0001:000a2c20       ??_GwxSizerItem@@UAEPAXI@Z 004a3c20 f i wxmswd:sizer.obj
 0001:000a2c50       ??_EwxSizer@@UAEPAXI@Z     004a3c50 f i wxmswd:sizer.obj
 0001:000a2c50       ??_GwxSizer@@UAEPAXI@Z     004a3c50 f i wxmswd:sizer.obj
 0001:000a2c80       ??_EwxGridSizer@@UAEPAXI@Z 004a3c80 f i wxmswd:sizer.obj
 0001:000a2c80       ??_GwxGridSizer@@UAEPAXI@Z 004a3c80 f i wxmswd:sizer.obj
 0001:000a2cb0       ??1wxGridSizer@@UAE@XZ     004a3cb0 f i wxmswd:sizer.obj
 0001:000a2cd0       ??_GwxFlexGridSizer@@UAEPAXI@Z 004a3cd0 f i wxmswd:sizer.obj
 0001:000a2cd0       ??_EwxFlexGridSizer@@UAEPAXI@Z 004a3cd0 f i wxmswd:sizer.obj
 0001:000a2d00       ??_EwxBoxSizer@@UAEPAXI@Z  004a3d00 f i wxmswd:sizer.obj
 0001:000a2d00       ??_GwxBoxSizer@@UAEPAXI@Z  004a3d00 f i wxmswd:sizer.obj
 0001:000a2d30       ??1wxBoxSizer@@UAE@XZ      004a3d30 f i wxmswd:sizer.obj
 0001:000a2d50       ?Empty@wxBaseArrayInt@@QAEXXZ 004a3d50 f i wxmswd:sizer.obj
 0001:000a2d70       ?GetCount@wxBaseArrayInt@@QBEIXZ 004a3d70 f i wxmswd:sizer.obj
 0001:000a2d90       ??_EwxStaticBoxSizer@@UAEPAXI@Z 004a3d90 f i wxmswd:sizer.obj
 0001:000a2d90       ??_GwxStaticBoxSizer@@UAEPAXI@Z 004a3d90 f i wxmswd:sizer.obj
 0001:000a2dc0       ??1wxStaticBoxSizer@@UAE@XZ 004a3dc0 f i wxmswd:sizer.obj
 0001:000a2de0       ??_EwxNotebookSizer@@UAEPAXI@Z 004a3de0 f i wxmswd:sizer.obj
 0001:000a2de0       ??_GwxNotebookSizer@@UAEPAXI@Z 004a3de0 f i wxmswd:sizer.obj
 0001:000a2e10       ??1wxNotebookSizer@@UAE@XZ 004a3e10 f i wxmswd:sizer.obj
 0001:000a2e30       ??_EwxSizer@@W7AEPAXI@Z    004a3e30 f i wxmswd:sizer.obj
 0001:000a2e40       ??_EwxStaticBoxSizer@@W7AEPAXI@Z 004a3e40 f i wxmswd:sizer.obj
 0001:000a2e50       ??1wxArrayInt@@QAE@XZ      004a3e50 f i wxmswd:sizer.obj
 0001:000a2e70       ??_EwxGridSizer@@W7AEPAXI@Z 004a3e70 f i wxmswd:sizer.obj
 0001:000a2e80       ??_EwxNotebookSizer@@W7AEPAXI@Z 004a3e80 f i wxmswd:sizer.obj
 0001:000a2e90       ??_EwxBoxSizer@@W7AEPAXI@Z 004a3e90 f i wxmswd:sizer.obj
 0001:000a2ea0       ??_EwxFlexGridSizer@@W7AEPAXI@Z 004a3ea0 f i wxmswd:sizer.obj
 0001:000a2eb0       ??AwxArrayInt@@QBEAAHI@Z   004a3eb0 f i wxmswd:sizer.obj
 0001:000a2ed0       ?Item@wxBaseArrayInt@@IBEAAHI@Z 004a3ed0 f i wxmswd:sizer.obj
 0001:000a2f10       ?Add@wxArrayInt@@QAEXHI@Z  004a3f10 f i wxmswd:sizer.obj
 0001:000a2f30       ?Nth@wxListBase@@QBEPAVwxObjectListNode@@I@Z 004a3f30 f i wxmswd:sizer.obj
 0001:000a2f50       ?Insert@wxObjectList@@QAEPAVwxObjectListNode@@IPAVwxObject@@@Z 004a3f50 f i wxmswd:sizer.obj
 0001:000a2f70       ?Insert@wxListBase@@IAEPAVwxNodeBase@@IPAX@Z 004a3f70 f i wxmswd:sizer.obj
 0001:000a2fc0       ??9wxSize@@QBE_NABV0@@Z    004a3fc0 f i wxmswd:sizer.obj
 0001:000a3000       ??HwxSize@@QAE?AV0@ABV0@@Z 004a4000 f i wxmswd:sizer.obj
 0001:000a3040       ?GetAdjustedBestSize@wxWindowBase@@QBE?AVwxSize@@XZ 004a4040 f i wxmswd:sizer.obj
 0001:000a30e0       ?SetContainingSizer@wxWindowBase@@QAEXPAVwxSizer@@@Z 004a40e0 f i wxmswd:sizer.obj
 0001:000a3100       ?SetRatio@wxSizerItem@@QAEXHH@Z 004a4100 f i wxmswd:sizer.obj
 0001:000a3140       ?SetRatio@wxSizerItem@@QAEXVwxSize@@@Z 004a4140 f i wxmswd:sizer.obj
 0001:000a3180       ?SetInitSize@wxSizerItem@@QAEXHH@Z 004a4180 f i wxmswd:sizer.obj
 0001:000a31a0       ?Show@wxSizerItem@@QAEX_N@Z 004a41a0 f i wxmswd:sizer.obj
 0001:000a31c0       ?GetWindow@wxSizerItem@@QBEPAVwxWindow@@XZ 004a41c0 f i wxmswd:sizer.obj
 0001:000a31e0       ?GetSizer@wxSizerItem@@QBEPAVwxSizer@@XZ 004a41e0 f i wxmswd:sizer.obj
 0001:000a3200       ?GetOption@wxSizerItem@@QBEHXZ 004a4200 f i wxmswd:sizer.obj
 0001:000a3220       ?GetFlag@wxSizerItem@@QBEHXZ 004a4220 f i wxmswd:sizer.obj
 0001:000a3240       ?IsShown@wxSizerItem@@QBE_NXZ 004a4240 f i wxmswd:sizer.obj
 0001:000a3260       ?GetClassInfo@wxSizerItem@@UBEPAVwxClassInfo@@XZ 004a4260 f i wxmswd:sizer.obj
 0001:000a3270       ?GetSize@wxSizer@@QAE?AVwxSize@@XZ 004a4270 f i wxmswd:sizer.obj
 0001:000a32a0       ?GetPosition@wxSizer@@QAE?AVwxPoint@@XZ 004a42a0 f i wxmswd:sizer.obj
 0001:000a32d0       ?GetClassInfo@wxSizer@@UBEPAVwxClassInfo@@XZ 004a42d0 f i wxmswd:sizer.obj
 0001:000a32e0       ?GetClassInfo@wxGridSizer@@UBEPAVwxClassInfo@@XZ 004a42e0 f i wxmswd:sizer.obj
 0001:000a32f0       ?GetClassInfo@wxFlexGridSizer@@UBEPAVwxClassInfo@@XZ 004a42f0 f i wxmswd:sizer.obj
 0001:000a3300       ?GetClassInfo@wxBoxSizer@@UBEPAVwxClassInfo@@XZ 004a4300 f i wxmswd:sizer.obj
 0001:000a3310       ?GetClassInfo@wxStaticBoxSizer@@UBEPAVwxClassInfo@@XZ 004a4310 f i wxmswd:sizer.obj
 0001:000a3320       ?GetClassInfo@wxNotebookSizer@@UBEPAVwxClassInfo@@XZ 004a4320 f i wxmswd:sizer.obj
 0001:000a3406       ?wxConstructorForwxPalette@@YAPAVwxObject@@XZ 004a4406 f   wxmswd:palette.obj
 0001:000a34a9       ??0wxPaletteRefData@@QAE@XZ 004a44a9 f   wxmswd:palette.obj
 0001:000a34d2       ??1wxPaletteRefData@@UAE@XZ 004a44d2 f   wxmswd:palette.obj
 0001:000a3504       ??0wxPalette@@QAE@XZ       004a4504 f   wxmswd:palette.obj
 0001:000a3523       ??0wxPalette@@QAE@HPBE00@Z 004a4523 f   wxmswd:palette.obj
 0001:000a355c       ??1wxPalette@@UAE@XZ       004a455c f   wxmswd:palette.obj
 0001:000a3578       ?FreeResource@wxPalette@@UAE_N_N@Z 004a4578 f   wxmswd:palette.obj
 0001:000a35ac       ?Create@wxPalette@@QAE_NHPBE00@Z 004a45ac f   wxmswd:palette.obj
 0001:000a36ab       ?GetPixel@wxPalette@@QBEHEEE@Z 004a46ab f   wxmswd:palette.obj
 0001:000a3700       ?GetRGB@wxPalette@@QBE_NHPAE00@Z 004a4700 f   wxmswd:palette.obj
 0001:000a376b       ?SetHPALETTE@wxPalette@@QAEXK@Z 004a476b f   wxmswd:palette.obj
 0001:000a37c0       ??_EwxPaletteRefData@@UAEPAXI@Z 004a47c0 f i wxmswd:palette.obj
 0001:000a37c0       ??_GwxPaletteRefData@@UAEPAXI@Z 004a47c0 f i wxmswd:palette.obj
 0001:000a38c6       ?wxConstructorForwxRegion@@YAPAVwxObject@@XZ 004a48c6 f   wxmswd:region.obj
 0001:000a3969       ?wxConstructorForwxRegionIterator@@YAPAVwxObject@@XZ 004a4969 f   wxmswd:region.obj
 0001:000a3a0c       ??0wxRegion@@QAE@XZ        004a4a0c f   wxmswd:region.obj
 0001:000a3a35       ??0wxRegion@@QAE@K@Z       004a4a35 f   wxmswd:region.obj
 0001:000a3a94       ??0wxRegion@@QAE@HHHH@Z    004a4a94 f   wxmswd:region.obj
 0001:000a3b0c       ??0wxRegion@@QAE@ABVwxPoint@@0@Z 004a4b0c f   wxmswd:region.obj
 0001:000a3b88       ??0wxRegion@@QAE@ABVwxRect@@@Z 004a4b88 f   wxmswd:region.obj
 0001:000a3c10       ??0wxRegion@@QAE@IPBVwxPoint@@H@Z 004a4c10 f   wxmswd:region.obj
 0001:000a3c85       ??1wxRegion@@UAE@XZ        004a4c85 f   wxmswd:region.obj
 0001:000a3ca1       ?CreateRefData@wxRegion@@MBEPAVwxObjectRefData@@XZ 004a4ca1 f   wxmswd:region.obj
 0001:000a3cd8       ?CloneRefData@wxRegion@@MBEPAVwxObjectRefData@@PBV2@@Z 004a4cd8 f   wxmswd:region.obj
 0001:000a3d15       ?Clear@wxRegion@@QAEXXZ    004a4d15 f   wxmswd:region.obj
 0001:000a3d28       ?Offset@wxRegion@@QAE_NHH@Z 004a4d28 f   wxmswd:region.obj
 0001:000a3dda       ?Combine@wxRegion@@QAE_NABV1@W4wxRegionOp@@@Z 004a4dda f   wxmswd:region.obj
 0001:000a3f4c       ?Combine@wxRegion@@QAE_NHHHHW4wxRegionOp@@@Z 004a4f4c f   wxmswd:region.obj
 0001:000a3f8e       ?Combine@wxRegion@@QAE_NABVwxRect@@W4wxRegionOp@@@Z 004a4f8e f   wxmswd:region.obj
 0001:000a3fcb       ?GetBox@wxRegion@@QBEXAAH000@Z 004a4fcb f   wxmswd:region.obj
 0001:000a4043       ?GetBox@wxRegion@@QBE?AVwxRect@@XZ 004a5043 f   wxmswd:region.obj
 0001:000a409e       ?Empty@wxRegion@@QBE_NXZ   004a509e f   wxmswd:region.obj
 0001:000a40e2       ?Contains@wxRegion@@QBE?AW4wxRegionContain@@HH@Z 004a50e2 f   wxmswd:region.obj
 0001:000a411b       ?Contains@wxRegion@@QBE?AW4wxRegionContain@@ABVwxPoint@@@Z 004a511b f   wxmswd:region.obj
 0001:000a413d       ?Contains@wxRegion@@QBE?AW4wxRegionContain@@HHHH@Z 004a513d f   wxmswd:region.obj
 0001:000a4192       ?Contains@wxRegion@@QBE?AW4wxRegionContain@@ABVwxRect@@@Z 004a5192 f   wxmswd:region.obj
 0001:000a41c2       ?GetHRGN@wxRegion@@QBEKXZ  004a51c2 f   wxmswd:region.obj
 0001:000a41f0       ?Init@wxRegionIterator@@AAEXXZ 004a51f0 f   wxmswd:region.obj
 0001:000a4219       ??1wxRegionIterator@@UAE@XZ 004a5219 f   wxmswd:region.obj
 0001:000a4257       ??0wxRegionIterator@@QAE@ABVwxRegion@@@Z 004a5257 f   wxmswd:region.obj
 0001:000a4299       ??4wxRegionIterator@@QAEAAV0@ABV0@@Z 004a5299 f   wxmswd:region.obj
 0001:000a438f       ?Reset@wxRegionIterator@@QAEXABVwxRegion@@@Z 004a538f f   wxmswd:region.obj
 0001:000a453a       ??EwxRegionIterator@@QAEAAV0@XZ 004a553a f   wxmswd:region.obj
 0001:000a4565       ??EwxRegionIterator@@QAE?AV0@H@Z 004a5565 f   wxmswd:region.obj
 0001:000a45b4       ?GetX@wxRegionIterator@@QBEHXZ 004a55b4 f   wxmswd:region.obj
 0001:000a460d       ?GetY@wxRegionIterator@@QBEHXZ 004a560d f   wxmswd:region.obj
 0001:000a4667       ?GetW@wxRegionIterator@@QBEHXZ 004a5667 f   wxmswd:region.obj
 0001:000a46c1       ?GetH@wxRegionIterator@@QBEHXZ 004a56c1 f   wxmswd:region.obj
 0001:000a4720       ??0wxRegionRefData@@QAE@XZ 004a5720 f i wxmswd:region.obj
 0001:000a4750       ??_GwxRegionRefData@@UAEPAXI@Z 004a5750 f i wxmswd:region.obj
 0001:000a4750       ??_EwxRegionRefData@@UAEPAXI@Z 004a5750 f i wxmswd:region.obj
 0001:000a4780       ??1wxRegionRefData@@UAE@XZ 004a5780 f i wxmswd:region.obj
 0001:000a47c0       ??0wxRegionRefData@@QAE@ABV0@@Z 004a57c0 f i wxmswd:region.obj
 0001:000a4850       ??0wxRegionIterator@@QAE@XZ 004a5850 f i wxmswd:region.obj
 0001:000a4890       ??0wxRegionIterator@@QAE@ABV0@@Z 004a5890 f i wxmswd:region.obj
 0001:000a48d0       ?GetClassInfo@wxRegionIterator@@UBEPAVwxClassInfo@@XZ 004a58d0 f i wxmswd:region.obj
 0001:000a48e0       ??_GwxRegionIterator@@UAEPAXI@Z 004a58e0 f i wxmswd:region.obj
 0001:000a48e0       ??_EwxRegionIterator@@UAEPAXI@Z 004a58e0 f i wxmswd:region.obj
 0001:000a4910       ??0wxControlContainer@@QAE@PAVwxWindow@@@Z 004a5910 f   wxmswd:containr.obj
 0001:000a4946       ?SetLastFocus@wxControlContainer@@QAEXPAVwxWindow@@@Z 004a5946 f   wxmswd:containr.obj
 0001:000a4a58       ?HandleOnNavigationKey@wxControlContainer@@QAEXAAVwxNavigationKeyEvent@@@Z 004a5a58 f   wxmswd:containr.obj
 0001:000a4d61       ?HandleOnWindowDestroy@wxControlContainer@@QAEXPAVwxWindowBase@@@Z 004a5d61 f   wxmswd:containr.obj
 0001:000a4dad       ?DoSetFocus@wxControlContainer@@QAE_NXZ 004a5dad f   wxmswd:containr.obj
 0001:000a4e29       ?HandleOnFocus@wxControlContainer@@QAEXAAVwxFocusEvent@@@Z 004a5e29 f   wxmswd:containr.obj
 0001:000a4e92       ?SetFocusToChild@wxControlContainer@@IAE_NXZ 004a5e92 f   wxmswd:containr.obj
 0001:000a4eb2       ?wxSetFocusToChild@@YA_NPAVwxWindow@@PAPAV1@@Z 004a5eb2 f   wxmswd:containr.obj
 0001:000a5030       ?GetDirection@wxNavigationKeyEvent@@QBE_NXZ 004a6030 f i wxmswd:containr.obj
 0001:000a5050       ?IsWindowChange@wxNavigationKeyEvent@@QBE_NXZ 004a6050 f i wxmswd:containr.obj
 0001:000a5070       ?GetCurrentFocus@wxNavigationKeyEvent@@QBEPAVwxWindow@@XZ 004a6070 f i wxmswd:containr.obj
 0001:000a5090       ?SetCurrentFocus@wxNavigationKeyEvent@@QAEXPAVwxWindow@@@Z 004a6090 f i wxmswd:containr.obj
 0001:000a50b0       ?GetPrevious@wxWindowListNode@@QBEPAV1@XZ 004a60b0 f i wxmswd:containr.obj
 0001:000a50d0       ?GetLast@wxWindowList@@QBEPAVwxWindowListNode@@XZ 004a60d0 f i wxmswd:containr.obj
 0001:000a51c6       ?wxConstructorForwxButton@@YAPAVwxObject@@XZ 004a61c6 f   wxmswd:button.obj
 0001:000a526f       ?Create@wxButton@@QAE_NPAVwxWindow@@HABVwxString@@ABVwxPoint@@ABVwxSize@@JABVwxValidator@@1@Z 004a626f f   wxmswd:button.obj
 0001:000a5306       ??1wxButton@@UAE@XZ        004a6306 f   wxmswd:button.obj
 0001:000a5322       ?MSWGetStyle@wxButton@@MBEKJPAK@Z 004a6322 f   wxmswd:button.obj
 0001:000a53b3       ?DoGetBestSize@wxButton@@MBE?AVwxSize@@XZ 004a63b3 f   wxmswd:button.obj
 0001:000a54b7       ?GetDefaultSize@wxButtonBase@@SA?AVwxSize@@XZ 004a64b7 f   wxmswd:button.obj
 0001:000a5599       ?SetDefault@wxButton@@UAEXXZ 004a6599 f   wxmswd:button.obj
 0001:000a5622       ?SetTmpDefault@wxButton@@IAEXXZ 004a6622 f   wxmswd:button.obj
 0001:000a56b9       ?UnsetTmpDefault@wxButton@@IAEXXZ 004a66b9 f   wxmswd:button.obj
 0001:000a574e       ?SetDefaultStyle@wxButton@@KAXPAV1@_N@Z 004a674e f   wxmswd:button.obj
 0001:000a586c       ?SendClickEvent@wxButton@@IAE_NXZ 004a686c f   wxmswd:button.obj
 0001:000a58b6       ?Command@wxButton@@UAEXAAVwxCommandEvent@@@Z 004a68b6 f   wxmswd:button.obj
 0001:000a58cf       ?MSWCommand@wxButton@@UAE_NIG@Z 004a68cf f   wxmswd:button.obj
 0001:000a590a       ?MSWWindowProc@wxButton@@UAEJIIJ@Z 004a690a f   wxmswd:button.obj
 0001:000a5969       ?MakeOwnerDrawn@wxButton@@AAEXXZ 004a6969 f   wxmswd:button.obj
 0001:000a59b3       ?SetBackgroundColour@wxButton@@UAE_NABVwxColour@@@Z 004a69b3 f   wxmswd:button.obj
 0001:000a59f5       ?SetForegroundColour@wxButton@@UAE_NABVwxColour@@@Z 004a69f5 f   wxmswd:button.obj
 0001:000a5a37       ?MSWOnDraw@wxButton@@UAE_NPAPAX@Z 004a6a37 f   wxmswd:button.obj
 0001:000a5f60       ?DrawText@@YAHPAUHDC__@@PBDHPAUtagRECT@@I@Z 004a6f60 f i wxmswd:button.obj
 0001:000a5f80       ?GetEventTable@wxProgressDialog@@MBEPBUwxEventTable@@XZ 004a6f80 f   wxmswd:progdlgg.obj
 0001:000a607c       ??0wxProgressDialog@@QAE@ABVwxString@@0HPAVwxWindow@@H@Z 004a707c f   wxmswd:progdlgg.obj
 0001:000a6b2e       ?CreateLabel@wxProgressDialog@@AAEPAVwxStaticText@@ABVwxString@@PAPAVwxWindow@@@Z 004a7b2e f   wxmswd:progdlgg.obj
 0001:000a6d63       ?Update@wxProgressDialog@@QAE_NHABVwxString@@@Z 004a7d63 f   wxmswd:progdlgg.obj
 0001:000a6ffc       ?Resume@wxProgressDialog@@QAEXXZ 004a7ffc f   wxmswd:progdlgg.obj
 0001:000a7030       ?Show@wxProgressDialog@@UAE_N_N@Z 004a8030 f   wxmswd:progdlgg.obj
 0001:000a705d       ?OnCancel@wxProgressDialog@@IAEXAAVwxCommandEvent@@@Z 004a805d f   wxmswd:progdlgg.obj
 0001:000a709d       ?OnClose@wxProgressDialog@@IAEXAAVwxCloseEvent@@@Z 004a809d f   wxmswd:progdlgg.obj
 0001:000a70e7       ??1wxProgressDialog@@UAE@XZ 004a80e7 f   wxmswd:progdlgg.obj
 0001:000a710b       ?ReenableOtherWindows@wxProgressDialog@@IAEXXZ 004a810b f   wxmswd:progdlgg.obj
 0001:000a7250       ?GetClassInfo@wxProgressDialog@@UBEPAVwxClassInfo@@XZ 004a8250 f i wxmswd:progdlgg.obj
 0001:000a7260       ?Update@wxProgressDialog@@EAEXXZ 004a8260 f i wxmswd:progdlgg.obj
 0001:000a7280       ??_GwxProgressDialog@@UAEPAXI@Z 004a8280 f i wxmswd:progdlgg.obj
 0001:000a7280       ??_EwxProgressDialog@@UAEPAXI@Z 004a8280 f i wxmswd:progdlgg.obj
 0001:000a72b0       ?GetTextExtent@wxDCBase@@QBEXABVwxString@@PAJ111PAVwxFont@@@Z 004a82b0 f i wxmswd:progdlgg.obj
 0001:000a7320       ?Hide@wxWindowBase@@QAE_NXZ 004a8320 f i wxmswd:progdlgg.obj
 0001:000a7340       ??0wxGauge95@@QAE@PAVwxWindow@@HHABVwxPoint@@ABVwxSize@@JABVwxValidator@@ABVwxString@@@Z 004a8340 f i wxmswd:progdlgg.obj
 0001:000a7390       ?GetClassInfo@wxGauge95@@UBEPAVwxClassInfo@@XZ 004a8390 f i wxmswd:progdlgg.obj
 0001:000a73a0       ?AcceptsFocus@wxGauge95@@UBE_NXZ 004a83a0 f i wxmswd:progdlgg.obj
 0001:000a73b0       ?Command@wxGauge95@@UAEXAAVwxCommandEvent@@@Z 004a83b0 f i wxmswd:progdlgg.obj
 0001:000a73c0       ??_EwxGauge95@@UAEPAXI@Z   004a83c0 f i wxmswd:progdlgg.obj
 0001:000a73c0       ??_GwxGauge95@@UAEPAXI@Z   004a83c0 f i wxmswd:progdlgg.obj
 0001:000a73f0       ??1wxGauge95@@UAE@XZ       004a83f0 f i wxmswd:progdlgg.obj
 0001:000a7410       ?AsIs@wxIndividualLayoutConstraint@@QAEXXZ 004a8410 f i wxmswd:progdlgg.obj
 0001:000a7430       ??0wxBaseArrayPtrVoid@@QAE@XZ 004a8430 f   wxmswd:dynarray.obj
 0001:000a745b       ??0wxBaseArrayPtrVoid@@QAE@ABV0@@Z 004a845b f   wxmswd:dynarray.obj
 0001:000a74e9       ??4wxBaseArrayPtrVoid@@QAEAAV0@ABV0@@Z 004a84e9 f   wxmswd:dynarray.obj
 0001:000a759f       ?Grow@wxBaseArrayPtrVoid@@AAEXI@Z 004a859f f   wxmswd:dynarray.obj
 0001:000a76c7       ??1wxBaseArrayPtrVoid@@QAE@XZ 004a86c7 f   wxmswd:dynarray.obj
 0001:000a76fc       ?Clear@wxBaseArrayPtrVoid@@QAEXXZ 004a86fc f   wxmswd:dynarray.obj
 0001:000a7744       ?Alloc@wxBaseArrayPtrVoid@@QAEXI@Z 004a8744 f   wxmswd:dynarray.obj
 0001:000a77c4       ?Shrink@wxBaseArrayPtrVoid@@QAEXXZ 004a87c4 f   wxmswd:dynarray.obj
 0001:000a783a       ?Index@wxBaseArrayPtrVoid@@IBEHPBX_N@Z 004a883a f   wxmswd:dynarray.obj
 0001:000a78c6       ?IndexForInsert@wxBaseArrayPtrVoid@@IBEIPBXP6AH00@Z@Z 004a88c6 f   wxmswd:dynarray.obj
 0001:000a793e       ?Index@wxBaseArrayPtrVoid@@IBEHPBXP6AH00@Z@Z 004a893e f   wxmswd:dynarray.obj
 0001:000a798e       ?Add@wxBaseArrayPtrVoid@@IAEXPBXI@Z 004a898e f   wxmswd:dynarray.obj
 0001:000a79ee       ?Add@wxBaseArrayPtrVoid@@IAEXPBXP6AH00@Z@Z 004a89ee f   wxmswd:dynarray.obj
 0001:000a7a1a       ?Insert@wxBaseArrayPtrVoid@@IAEXPBXII@Z 004a8a1a f   wxmswd:dynarray.obj
 0001:000a7b28       ?RemoveAt@wxBaseArrayPtrVoid@@IAEXII@Z 004a8b28 f   wxmswd:dynarray.obj
 0001:000a7bf0       ?Remove@wxBaseArrayPtrVoid@@IAEXPBX@Z 004a8bf0 f   wxmswd:dynarray.obj
 0001:000a7c51       ?Sort@wxBaseArrayPtrVoid@@IAEXP6AHPBX0@Z@Z 004a8c51 f   wxmswd:dynarray.obj
 0001:000a7c7b       ??0wxBaseArrayShort@@QAE@XZ 004a8c7b f   wxmswd:dynarray.obj
 0001:000a7ca6       ??0wxBaseArrayShort@@QAE@ABV0@@Z 004a8ca6 f   wxmswd:dynarray.obj
 0001:000a7d32       ??4wxBaseArrayShort@@QAEAAV0@ABV0@@Z 004a8d32 f   wxmswd:dynarray.obj
 0001:000a7de6       ?Grow@wxBaseArrayShort@@AAEXI@Z 004a8de6 f   wxmswd:dynarray.obj
 0001:000a7f0b       ??1wxBaseArrayShort@@QAE@XZ 004a8f0b f   wxmswd:dynarray.obj
 0001:000a7f40       ?Clear@wxBaseArrayShort@@QAEXXZ 004a8f40 f   wxmswd:dynarray.obj
 0001:000a7f88       ?Alloc@wxBaseArrayShort@@QAEXI@Z 004a8f88 f   wxmswd:dynarray.obj
 0001:000a8007       ?Shrink@wxBaseArrayShort@@QAEXXZ 004a9007 f   wxmswd:dynarray.obj
 0001:000a807b       ?Index@wxBaseArrayShort@@IBEHF_N@Z 004a907b f   wxmswd:dynarray.obj
 0001:000a810f       ?IndexForInsert@wxBaseArrayShort@@IBEIFP6AHPBX0@Z@Z 004a910f f   wxmswd:dynarray.obj
 0001:000a8189       ?Index@wxBaseArrayShort@@IBEHFP6AHPBX0@Z@Z 004a9189 f   wxmswd:dynarray.obj
 0001:000a81de       ?Add@wxBaseArrayShort@@IAEXFI@Z 004a91de f   wxmswd:dynarray.obj
 0001:000a8240       ?Add@wxBaseArrayShort@@IAEXFP6AHPBX0@Z@Z 004a9240 f   wxmswd:dynarray.obj
 0001:000a826e       ?Insert@wxBaseArrayShort@@IAEXFII@Z 004a926e f   wxmswd:dynarray.obj
 0001:000a837d       ?RemoveAt@wxBaseArrayShort@@IAEXII@Z 004a937d f   wxmswd:dynarray.obj
 0001:000a8441       ?Remove@wxBaseArrayShort@@IAEXF@Z 004a9441 f   wxmswd:dynarray.obj
 0001:000a84a3       ?Sort@wxBaseArrayShort@@IAEXP6AHPBX0@Z@Z 004a94a3 f   wxmswd:dynarray.obj
 0001:000a84cd       ??0wxBaseArrayInt@@QAE@XZ  004a94cd f   wxmswd:dynarray.obj
 0001:000a84f8       ??0wxBaseArrayInt@@QAE@ABV0@@Z 004a94f8 f   wxmswd:dynarray.obj
 0001:000a8586       ??4wxBaseArrayInt@@QAEAAV0@ABV0@@Z 004a9586 f   wxmswd:dynarray.obj
 0001:000a863c       ?Grow@wxBaseArrayInt@@AAEXI@Z 004a963c f   wxmswd:dynarray.obj
 0001:000a8764       ??1wxBaseArrayInt@@QAE@XZ  004a9764 f   wxmswd:dynarray.obj
 0001:000a8799       ?Clear@wxBaseArrayInt@@QAEXXZ 004a9799 f   wxmswd:dynarray.obj
 0001:000a87e1       ?Alloc@wxBaseArrayInt@@QAEXI@Z 004a97e1 f   wxmswd:dynarray.obj
 0001:000a8861       ?Shrink@wxBaseArrayInt@@QAEXXZ 004a9861 f   wxmswd:dynarray.obj
 0001:000a88d7       ?Index@wxBaseArrayInt@@IBEHH_N@Z 004a98d7 f   wxmswd:dynarray.obj
 0001:000a8963       ?IndexForInsert@wxBaseArrayInt@@IBEIHP6AHPBX0@Z@Z 004a9963 f   wxmswd:dynarray.obj
 0001:000a89db       ?Index@wxBaseArrayInt@@IBEHHP6AHPBX0@Z@Z 004a99db f   wxmswd:dynarray.obj
 0001:000a8a2b       ?Add@wxBaseArrayInt@@IAEXHI@Z 004a9a2b f   wxmswd:dynarray.obj
 0001:000a8a8b       ?Add@wxBaseArrayInt@@IAEXHP6AHPBX0@Z@Z 004a9a8b f   wxmswd:dynarray.obj
 0001:000a8ab7       ?Insert@wxBaseArrayInt@@IAEXHII@Z 004a9ab7 f   wxmswd:dynarray.obj
 0001:000a8bc5       ?RemoveAt@wxBaseArrayInt@@IAEXII@Z 004a9bc5 f   wxmswd:dynarray.obj
 0001:000a8c8d       ?Remove@wxBaseArrayInt@@IAEXH@Z 004a9c8d f   wxmswd:dynarray.obj
 0001:000a8cee       ?Sort@wxBaseArrayInt@@IAEXP6AHPBX0@Z@Z 004a9cee f   wxmswd:dynarray.obj
 0001:000a8d18       ??0wxBaseArrayLong@@QAE@XZ 004a9d18 f   wxmswd:dynarray.obj
 0001:000a8d43       ??0wxBaseArrayLong@@QAE@ABV0@@Z 004a9d43 f   wxmswd:dynarray.obj
 0001:000a8dd1       ??4wxBaseArrayLong@@QAEAAV0@ABV0@@Z 004a9dd1 f   wxmswd:dynarray.obj
 0001:000a8e87       ?Grow@wxBaseArrayLong@@AAEXI@Z 004a9e87 f   wxmswd:dynarray.obj
 0001:000a8faf       ??1wxBaseArrayLong@@QAE@XZ 004a9faf f   wxmswd:dynarray.obj
 0001:000a8fe4       ?Clear@wxBaseArrayLong@@QAEXXZ 004a9fe4 f   wxmswd:dynarray.obj
 0001:000a902c       ?Alloc@wxBaseArrayLong@@QAEXI@Z 004aa02c f   wxmswd:dynarray.obj
 0001:000a90ac       ?Shrink@wxBaseArrayLong@@QAEXXZ 004aa0ac f   wxmswd:dynarray.obj
 0001:000a9122       ?Index@wxBaseArrayLong@@IBEHJ_N@Z 004aa122 f   wxmswd:dynarray.obj
 0001:000a91ae       ?IndexForInsert@wxBaseArrayLong@@IBEIJP6AHPBX0@Z@Z 004aa1ae f   wxmswd:dynarray.obj
 0001:000a9226       ?Index@wxBaseArrayLong@@IBEHJP6AHPBX0@Z@Z 004aa226 f   wxmswd:dynarray.obj
 0001:000a9276       ?Add@wxBaseArrayLong@@IAEXJI@Z 004aa276 f   wxmswd:dynarray.obj
 0001:000a92d6       ?Add@wxBaseArrayLong@@IAEXJP6AHPBX0@Z@Z 004aa2d6 f   wxmswd:dynarray.obj
 0001:000a9302       ?Insert@wxBaseArrayLong@@IAEXJII@Z 004aa302 f   wxmswd:dynarray.obj
 0001:000a9410       ?RemoveAt@wxBaseArrayLong@@IAEXII@Z 004aa410 f   wxmswd:dynarray.obj
 0001:000a94d8       ?Remove@wxBaseArrayLong@@IAEXJ@Z 004aa4d8 f   wxmswd:dynarray.obj
 0001:000a9539       ?Sort@wxBaseArrayLong@@IAEXP6AHPBX0@Z@Z 004aa539 f   wxmswd:dynarray.obj
 0001:000a9646       ?wxConstructorForwxBitmapButton@@YAPAVwxObject@@XZ 004aa646 f   wxmswd:bmpbuttn.obj
 0001:000a96ef       ?Create@wxBitmapButton@@QAE_NPAVwxWindow@@HABVwxBitmap@@ABVwxPoint@@ABVwxSize@@JABVwxValidator@@ABVwxString@@@Z 004aa6ef f   wxmswd:bmpbuttn.obj
 0001:000a9969       ?MSWOnDraw@wxBitmapButton@@UAE_NPAPAX@Z 004aa969 f   wxmswd:bmpbuttn.obj
 0001:000a9d77       ?DrawFace@wxBitmapButton@@UAEXKHHHH_N@Z 004aad77 f   wxmswd:bmpbuttn.obj
 0001:000aa07b       ?DrawButtonFocus@wxBitmapButton@@UAEXKHHHH_N@Z 004ab07b f   wxmswd:bmpbuttn.obj
 0001:000aa0be       ?DrawButtonDisable@wxBitmapButton@@UAEXKHHHH_N@Z 004ab0be f   wxmswd:bmpbuttn.obj
 0001:000aa164       ?SetDefault@wxBitmapButton@@UAEXXZ 004ab164 f   wxmswd:bmpbuttn.obj
 0001:000aa256       ?wxConstructorForwxCheckBox@@YAPAVwxObject@@XZ 004ab256 f   wxmswd:checkbox.obj
 0001:000aa2ff       ?MSWCommand@wxCheckBox@@UAE_NIG@Z 004ab2ff f   wxmswd:checkbox.obj
 0001:000aa367       ?Create@wxCheckBox@@QAE_NPAVwxWindow@@HABVwxString@@ABVwxPoint@@ABVwxSize@@JABVwxValidator@@1@Z 004ab367 f   wxmswd:checkbox.obj
 0001:000aa3e3       ?SetLabel@wxCheckBox@@UAEXABVwxString@@@Z 004ab3e3 f   wxmswd:checkbox.obj
 0001:000aa408       ?DoGetBestSize@wxCheckBox@@MBE?AVwxSize@@XZ 004ab408 f   wxmswd:checkbox.obj
 0001:000aa539       ?SetValue@wxCheckBox@@UAEX_N@Z 004ab539 f   wxmswd:checkbox.obj
 0001:000aa565       ?GetValue@wxCheckBox@@UBE_NXZ 004ab565 f   wxmswd:checkbox.obj
 0001:000aa591       ?Command@wxCheckBox@@UAEXAAVwxCommandEvent@@@Z 004ab591 f   wxmswd:checkbox.obj
 0001:000aa5d0       ?GetInt@wxCommandEvent@@QBEJXZ 004ab5d0 f i wxmswd:checkbox.obj
 0001:000aa5f0       ??1wxItemContainer@@UAE@XZ 004ab5f0 f   wxmswd:ctrlsub.obj
 0001:000aa604       ?GetStringSelection@wxItemContainer@@QBE?AVwxString@@XZ 004ab604 f   wxmswd:ctrlsub.obj
 0001:000aa66a       ?Append@wxItemContainer@@QAEXABVwxArrayString@@@Z 004ab66a f   wxmswd:ctrlsub.obj
 0001:000aa6b5       ?SetClientObject@wxItemContainer@@QAEXHPAVwxClientData@@@Z 004ab6b5 f   wxmswd:ctrlsub.obj
 0001:000aa754       ?GetClientObject@wxItemContainer@@QBEPAVwxClientData@@H@Z 004ab754 f   wxmswd:ctrlsub.obj
 0001:000aa796       ?SetClientData@wxItemContainer@@QAEXHPAX@Z 004ab796 f   wxmswd:ctrlsub.obj
 0001:000aa7e6       ?GetClientData@wxItemContainer@@QBEPAXH@Z 004ab7e6 f   wxmswd:ctrlsub.obj
 0001:000aa828       ??1wxControlWithItems@@UAE@XZ 004ab828 f   wxmswd:ctrlsub.obj
 0001:000aa956       ?wxConstructorForwxStaticText@@YAPAVwxObject@@XZ 004ab956 f   wxmswd:stattext.obj
 0001:000aa9ff       ?Create@wxStaticText@@QAE_NPAVwxWindow@@HABVwxString@@ABVwxPoint@@ABVwxSize@@J1@Z 004ab9ff f   wxmswd:stattext.obj
 0001:000aac1e       ?DoGetBestSize@wxStaticText@@MBE?AVwxSize@@XZ 004abc1e f   wxmswd:stattext.obj
 0001:000aad8b       ?DoSetSize@wxStaticText@@MAEXHHHHH@Z 004abd8b f   wxmswd:stattext.obj
 0001:000aadc6       ?SetLabel@wxStaticText@@UAEXABVwxString@@@Z 004abdc6 f   wxmswd:stattext.obj
 0001:000aae06       ?SetFont@wxStaticText@@UAE_NABVwxFont@@@Z 004abe06 f   wxmswd:stattext.obj
 0001:000aae50       ?wxStyleHasBorder@@YA_NJ@Z 004abe50 f i wxmswd:stattext.obj
 0001:000aaf46       ?wxConstructorForwxStaticBox@@YAPAVwxObject@@XZ 004abf46 f   wxmswd:statbox.obj
 0001:000aafef       ?Create@wxStaticBox@@QAE_NPAVwxWindow@@HABVwxString@@ABVwxPoint@@ABVwxSize@@J1@Z 004abfef f   wxmswd:statbox.obj
 0001:000ab086       ?DoGetBestSize@wxStaticBox@@MBE?AVwxSize@@XZ 004ac086 f   wxmswd:statbox.obj
 0001:000ab129       ?MSWWindowProc@wxStaticBox@@UAEJIIJ@Z 004ac129 f   wxmswd:statbox.obj
 0001:000ab296       ?wxConstructorForwxRadioBox@@YAPAVwxObject@@XZ 004ac296 f   wxmswd:radiobox.obj
 0001:000ab33f       ?GetCount@wxRadioBox@@UBEHXZ 004ac33f f   wxmswd:radiobox.obj
 0001:000ab350       ?GetColumnCount@wxRadioBox@@UBEHXZ 004ac350 f   wxmswd:radiobox.obj
 0001:000ab369       ?GetRowCount@wxRadioBox@@UBEHXZ 004ac369 f   wxmswd:radiobox.obj
 0001:000ab382       ?GetNumVer@wxRadioBox@@QBEHXZ 004ac382 f   wxmswd:radiobox.obj
 0001:000ab3c8       ?GetNumHor@wxRadioBox@@QBEHXZ 004ac3c8 f   wxmswd:radiobox.obj
 0001:000ab40e       ?MSWCommand@wxRadioBox@@UAE_NIG@Z 004ac40e f   wxmswd:radiobox.obj
 0001:000ab4d2       ??0wxRadioBox@@QAE@XZ      004ac4d2 f   wxmswd:radiobox.obj
 0001:000ab567       ?Create@wxRadioBox@@QAE_NPAVwxWindow@@HABVwxString@@ABVwxPoint@@ABVwxSize@@HQBV3@HJABVwxValidator@@1@Z 004ac567 f   wxmswd:radiobox.obj
 0001:000ab866       ??1wxRadioBox@@UAE@XZ      004ac866 f   wxmswd:radiobox.obj
 0001:000ab949       ?SetString@wxRadioBox@@UAEXHABVwxString@@@Z 004ac949 f   wxmswd:radiobox.obj
 0001:000ab9d0       ?SetSelection@wxRadioBox@@UAEXH@Z 004ac9d0 f   wxmswd:radiobox.obj
 0001:000aba89       ?GetSelection@wxRadioBox@@UBEHXZ 004aca89 f   wxmswd:radiobox.obj
 0001:000aba9a       ?GetString@wxRadioBox@@UBE?AVwxString@@H@Z 004aca9a f   wxmswd:radiobox.obj
 0001:000abb14       ?GetMaxButtonSize@wxRadioBox@@IBE?AVwxSize@@XZ 004acb14 f   wxmswd:radiobox.obj
 0001:000abc2c       ?GetTotalButtonSize@wxRadioBox@@IBE?AVwxSize@@ABV2@@Z 004acc2c f   wxmswd:radiobox.obj
 0001:000abd4e       ?DoGetBestSize@wxRadioBox@@MBE?AVwxSize@@XZ 004acd4e f   wxmswd:radiobox.obj
 0001:000abd86       ?DoSetSize@wxRadioBox@@MAEXHHHHH@Z 004acd86 f   wxmswd:radiobox.obj
 0001:000ac0d8       ?GetSize@wxRadioBox@@QBEXPAH0@Z 004ad0d8 f   wxmswd:radiobox.obj
 0001:000ac179       ?GetPosition@wxRadioBox@@QBEXPAH0@Z 004ad179 f   wxmswd:radiobox.obj
 0001:000ac287       ?SetFocus@wxRadioBox@@UAEXXZ 004ad287 f   wxmswd:radiobox.obj
 0001:000ac2da       ?Show@wxRadioBox@@UAE_N_N@Z 004ad2da f   wxmswd:radiobox.obj
 0001:000ac353       ?Enable@wxRadioBox@@UAEXH_N@Z 004ad353 f   wxmswd:radiobox.obj
 0001:000ac3ba       ?Enable@wxRadioBox@@UAE_N_N@Z 004ad3ba f   wxmswd:radiobox.obj
 0001:000ac426       ?Show@wxRadioBox@@UAEXH_N@Z 004ad426 f   wxmswd:radiobox.obj
 0001:000ac494       ?ContainsHWND@wxRadioBox@@UBE_NK@Z 004ad494 f   wxmswd:radiobox.obj
 0001:000ac4f0       ?Command@wxRadioBox@@UAEXAAVwxCommandEvent@@@Z 004ad4f0 f   wxmswd:radiobox.obj
 0001:000ac524       ?SubclassRadioButton@wxRadioBox@@IAEXK@Z 004ad524 f   wxmswd:radiobox.obj
 0001:000ac574       ?SendNotificationEvent@wxRadioBox@@QAEXXZ 004ad574 f   wxmswd:radiobox.obj
 0001:000ac5fd       ?SetFont@wxRadioBox@@UAE_NABVwxFont@@@Z 004ad5fd f   wxmswd:radiobox.obj
 0001:000ac6a0       ?MSWWindowProc@wxRadioBox@@UAEJIIJ@Z 004ad6a0 f   wxmswd:radiobox.obj
 0001:000ac75d       ?OnCtlColor@wxRadioBox@@UAEKKKIIIJ@Z 004ad75d f   wxmswd:radiobox.obj
 0001:000ac84c       ?wxRadioBtnWndProc@@YGJPAUHWND__@@IIJ@Z 004ad84c f   wxmswd:radiobox.obj
 0001:000accf0       ?Add@wxArrayLong@@QAEXJI@Z 004adcf0 f i wxmswd:radiobox.obj
 0001:000acd10       ?GetRadioButtons@wxRadioBox@@QBEPAKXZ 004add10 f i wxmswd:radiobox.obj
 0001:000ace06       ?wxConstructorForwxRichEditModule@@YAPAVwxObject@@XZ 004ade06 f   wxmswd:textctrl.obj
 0001:000acea9       ?wxConstructorForwxTextCtrl@@YAPAVwxObject@@XZ 004adea9 f   wxmswd:textctrl.obj
 0001:000acf52       ?GetEventTable@wxTextCtrl@@MBEPBUwxEventTable@@XZ 004adf52 f   wxmswd:textctrl.obj
 0001:000ad23a       ?Init@wxTextCtrl@@IAEXXZ   004ae23a f   wxmswd:textctrl.obj
 0001:000ad269       ??1wxTextCtrl@@UAE@XZ      004ae269 f   wxmswd:textctrl.obj
 0001:000ad2d1       ?Create@wxTextCtrl@@QAE_NPAVwxWindow@@HABVwxString@@ABVwxPoint@@ABVwxSize@@JABVwxValidator@@1@Z 004ae2d1 f   wxmswd:textctrl.obj
 0001:000ad5bd       ?AdoptAttributesFromHWND@wxTextCtrl@@UAEXXZ 004ae5bd f   wxmswd:textctrl.obj
 0001:000ad73c       ?MSWGetStyle@wxTextCtrl@@MBEKJPAK@Z 004ae73c f   wxmswd:textctrl.obj
 0001:000ad87d       ?SetWindowStyleFlag@wxTextCtrl@@UAEXJ@Z 004ae87d f   wxmswd:textctrl.obj
 0001:000ad92b       ?GetValue@wxTextCtrl@@UBE?AVwxString@@XZ 004ae92b f   wxmswd:textctrl.obj
 0001:000ad951       ?GetRange@wxTextCtrl@@UBE?AVwxString@@JJ@Z 004ae951 f   wxmswd:textctrl.obj
 0001:000adb1a       ?SetValue@wxTextCtrl@@UAEXABVwxString@@@Z 004aeb1a f   wxmswd:textctrl.obj
 0001:000adb9b       ?wxRichEditStreamIn@@YGKKPAEJPAJ@Z 004aeb9b f   wxmswd:textctrl.obj
 0001:000adc10       ?StreamIn@wxTextCtrl@@IAE_NABVwxString@@W4wxFontEncoding@@_N@Z 004aec10 f   wxmswd:textctrl.obj
 0001:000add87       ?WriteText@wxTextCtrl@@UAEXABVwxString@@@Z 004aed87 f   wxmswd:textctrl.obj
 0001:000adda2       ?DoWriteText@wxTextCtrl@@IAEXABVwxString@@_N@Z 004aeda2 f   wxmswd:textctrl.obj
 0001:000adf94       ?AppendText@wxTextCtrl@@UAEXABVwxString@@@Z 004aef94 f   wxmswd:textctrl.obj
 0001:000ae004       ?Clear@wxTextCtrl@@UAEXXZ  004af004 f   wxmswd:textctrl.obj
 0001:000ae03c       ?EmulateKeyPress@wxTextCtrl@@UAE_NABVwxKeyEvent@@@Z 004af03c f   wxmswd:textctrl.obj
 0001:000ae0d7       ?Copy@wxTextCtrl@@UAEXXZ   004af0d7 f   wxmswd:textctrl.obj
 0001:000ae111       ?Cut@wxTextCtrl@@UAEXXZ    004af111 f   wxmswd:textctrl.obj
 0001:000ae14b       ?Paste@wxTextCtrl@@UAEXXZ  004af14b f   wxmswd:textctrl.obj
 0001:000ae185       ?HasSelection@wxTextCtrl@@IBE_NXZ 004af185 f   wxmswd:textctrl.obj
 0001:000ae1b3       ?CanCopy@wxTextCtrl@@UBE_NXZ 004af1b3 f   wxmswd:textctrl.obj
 0001:000ae1c6       ?CanCut@wxTextCtrl@@UBE_NXZ 004af1c6 f   wxmswd:textctrl.obj
 0001:000ae214       ?CanPaste@wxTextCtrl@@UBE_NXZ 004af214 f   wxmswd:textctrl.obj
 0001:000ae2b7       ?SetEditable@wxTextCtrl@@UAEX_N@Z 004af2b7 f   wxmswd:textctrl.obj
 0001:000ae2f0       ?SetInsertionPoint@wxTextCtrl@@UAEXJ@Z 004af2f0 f   wxmswd:textctrl.obj
 0001:000ae30f       ?SetInsertionPointEnd@wxTextCtrl@@UAEXXZ 004af30f f   wxmswd:textctrl.obj
 0001:000ae354       ?GetInsertionPoint@wxTextCtrl@@UBEJXZ 004af354 f   wxmswd:textctrl.obj
 0001:000ae3c2       ?GetLastPosition@wxTextCtrl@@UBEJXZ 004af3c2 f   wxmswd:textctrl.obj
 0001:000ae40f       ?GetSelection@wxTextCtrl@@UBEXPAJ0@Z 004af40f f   wxmswd:textctrl.obj
 0001:000ae487       ?IsEditable@wxTextCtrl@@UBE_NXZ 004af487 f   wxmswd:textctrl.obj
 0001:000ae4c5       ?SetSelection@wxTextCtrl@@UAEXJJ@Z 004af4c5 f   wxmswd:textctrl.obj
 0001:000ae4fe       ?DoSetSelection@wxTextCtrl@@IAEXJJ_N@Z 004af4fe f   wxmswd:textctrl.obj
 0001:000ae583       ?Replace@wxTextCtrl@@UAEXJJABVwxString@@@Z 004af583 f   wxmswd:textctrl.obj
 0001:000ae5c1       ?Remove@wxTextCtrl@@UAEXJJ@Z 004af5c1 f   wxmswd:textctrl.obj
 0001:000ae601       ?LoadFile@wxTextCtrl@@UAE_NABVwxString@@@Z 004af601 f   wxmswd:textctrl.obj
 0001:000ae631       ?IsModified@wxTextCtrl@@UBE_NXZ 004af631 f   wxmswd:textctrl.obj
 0001:000ae65a       ?DiscardEdits@wxTextCtrl@@UAEXXZ 004af65a f   wxmswd:textctrl.obj
 0001:000ae67d       ?GetNumberOfLines@wxTextCtrl@@UBEHXZ 004af67d f   wxmswd:textctrl.obj
 0001:000ae6a0       ?XYToPosition@wxTextCtrl@@UBEJJJ@Z 004af6a0 f   wxmswd:textctrl.obj
 0001:000ae6d2       ?PositionToXY@wxTextCtrl@@UBE_NJPAJ0@Z 004af6d2 f   wxmswd:textctrl.obj
 0001:000ae77c       ?ShowPosition@wxTextCtrl@@UAEXJ@Z 004af77c f   wxmswd:textctrl.obj
 0001:000ae7e8       ?GetLengthOfLineContainingPos@wxTextCtrl@@IBEJJ@Z 004af7e8 f   wxmswd:textctrl.obj
 0001:000ae80f       ?GetLineLength@wxTextCtrl@@UBEHJ@Z 004af80f f   wxmswd:textctrl.obj
 0001:000ae841       ?GetLineText@wxTextCtrl@@UBE?AVwxString@@J@Z 004af841 f   wxmswd:textctrl.obj
 0001:000ae8dd       ?SetMaxLength@wxTextCtrl@@UAEXK@Z 004af8dd f   wxmswd:textctrl.obj
 0001:000ae904       ?Undo@wxTextCtrl@@UAEXXZ   004af904 f   wxmswd:textctrl.obj
 0001:000ae93e       ?Redo@wxTextCtrl@@UAEXXZ   004af93e f   wxmswd:textctrl.obj
 0001:000ae978       ?CanUndo@wxTextCtrl@@UBE_NXZ 004af978 f   wxmswd:textctrl.obj
 0001:000ae9a1       ?CanRedo@wxTextCtrl@@UBE_NXZ 004af9a1 f   wxmswd:textctrl.obj
 0001:000ae9ca       ?Command@wxTextCtrl@@UAEXAAVwxCommandEvent@@@Z 004af9ca f   wxmswd:textctrl.obj
 0001:000aea08       ?OnDropFiles@wxTextCtrl@@QAEXAAVwxDropFilesEvent@@@Z 004afa08 f   wxmswd:textctrl.obj
 0001:000aea38       ?MSWShouldPreProcessMessage@wxTextCtrl@@MAE_NPAPAX@Z 004afa38 f   wxmswd:textctrl.obj
 0001:000aeba8       ?OnChar@wxTextCtrl@@QAEXAAVwxKeyEvent@@@Z 004afba8 f   wxmswd:textctrl.obj
 0001:000aecec       ?MSWWindowProc@wxTextCtrl@@MAEJIIJ@Z 004afcec f   wxmswd:textctrl.obj
 0001:000aed9a       ?SendUpdateEvent@wxTextCtrl@@IAE_NXZ 004afd9a f   wxmswd:textctrl.obj
 0001:000aee24       ?MSWCommand@wxTextCtrl@@UAE_NIG@Z 004afe24 f   wxmswd:textctrl.obj
 0001:000aef4f       ?OnCtlColor@wxTextCtrl@@UAEKKKIIIJ@Z 004aff4f f   wxmswd:textctrl.obj
 0001:000af04d       ?AdjustSpaceLimit@wxTextCtrl@@IAE_NXZ 004b004d f   wxmswd:textctrl.obj
 0001:000af101       ?AcceptsFocus@wxTextCtrl@@UBE_NXZ 004b0101 f   wxmswd:textctrl.obj
 0001:000af15a       ?DoGetBestSize@wxTextCtrl@@MBE?AVwxSize@@XZ 004b015a f   wxmswd:textctrl.obj
 0001:000af202       ?OnCut@wxTextCtrl@@QAEXAAVwxCommandEvent@@@Z 004b0202 f   wxmswd:textctrl.obj
 0001:000af21d       ?OnCopy@wxTextCtrl@@QAEXAAVwxCommandEvent@@@Z 004b021d f   wxmswd:textctrl.obj
 0001:000af238       ?OnPaste@wxTextCtrl@@QAEXAAVwxCommandEvent@@@Z 004b0238 f   wxmswd:textctrl.obj
 0001:000af253       ?OnUndo@wxTextCtrl@@QAEXAAVwxCommandEvent@@@Z 004b0253 f   wxmswd:textctrl.obj
 0001:000af26e       ?OnRedo@wxTextCtrl@@QAEXAAVwxCommandEvent@@@Z 004b026e f   wxmswd:textctrl.obj
 0001:000af289       ?OnDelete@wxTextCtrl@@QAEXAAVwxCommandEvent@@@Z 004b0289 f   wxmswd:textctrl.obj
 0001:000af2d0       ?OnSelectAll@wxTextCtrl@@QAEXAAVwxCommandEvent@@@Z 004b02d0 f   wxmswd:textctrl.obj
 0001:000af2ef       ?OnUpdateCut@wxTextCtrl@@QAEXAAVwxUpdateUIEvent@@@Z 004b02ef f   wxmswd:textctrl.obj
 0001:000af313       ?OnUpdateCopy@wxTextCtrl@@QAEXAAVwxUpdateUIEvent@@@Z 004b0313 f   wxmswd:textctrl.obj
 0001:000af337       ?OnUpdatePaste@wxTextCtrl@@QAEXAAVwxUpdateUIEvent@@@Z 004b0337 f   wxmswd:textctrl.obj
 0001:000af35b       ?OnUpdateUndo@wxTextCtrl@@QAEXAAVwxUpdateUIEvent@@@Z 004b035b f   wxmswd:textctrl.obj
 0001:000af37f       ?OnUpdateRedo@wxTextCtrl@@QAEXAAVwxUpdateUIEvent@@@Z 004b037f f   wxmswd:textctrl.obj
 0001:000af3a3       ?OnUpdateDelete@wxTextCtrl@@QAEXAAVwxUpdateUIEvent@@@Z 004b03a3 f   wxmswd:textctrl.obj
 0001:000af40f       ?OnUpdateSelectAll@wxTextCtrl@@QAEXAAVwxUpdateUIEvent@@@Z 004b040f f   wxmswd:textctrl.obj
 0001:000af43a       ?OnRightClick@wxTextCtrl@@QAEXAAVwxMouseEvent@@@Z 004b043a f   wxmswd:textctrl.obj
 0001:000af741       ?MSWOnNotify@wxTextCtrl@@UAE_NHJPAJ@Z 004b0741 f   wxmswd:textctrl.obj
 0001:000af98d       ?SetBackgroundColour@wxTextCtrl@@UAE_NABVwxColour@@@Z 004b098d f   wxmswd:textctrl.obj
 0001:000af9e9       ?SetForegroundColour@wxTextCtrl@@UAE_NABVwxColour@@@Z 004b09e9 f   wxmswd:textctrl.obj
 0001:000afa6b       ?SetStyle@wxTextCtrl@@UAE_NJJABVwxTextAttr@@@Z 004b0a6b f   wxmswd:textctrl.obj
 0001:000afd39       ?SetDefaultStyle@wxTextCtrl@@UAE_NABVwxTextAttr@@@Z 004b0d39 f   wxmswd:textctrl.obj
 0001:000afd93       ?OnInit@wxRichEditModule@@UAE_NXZ 004b0d93 f   wxmswd:textctrl.obj
 0001:000afda0       ?OnExit@wxRichEditModule@@UAEXXZ 004b0da0 f   wxmswd:textctrl.obj
 0001:000afde5       ?Load@wxRichEditModule@@SA_NH@Z 004b0de5 f   wxmswd:textctrl.obj
 0001:000aff10       ??0wxRichEditModule@@QAE@XZ 004b0f10 f i wxmswd:textctrl.obj
 0001:000aff30       ?GetClassInfo@wxRichEditModule@@UBEPAVwxClassInfo@@XZ 004b0f30 f i wxmswd:textctrl.obj
 0001:000aff40       ??_EwxRichEditModule@@UAEPAXI@Z 004b0f40 f i wxmswd:textctrl.obj
 0001:000aff40       ??_GwxRichEditModule@@UAEPAXI@Z 004b0f40 f i wxmswd:textctrl.obj
 0001:000aff70       ??1wxRichEditModule@@UAE@XZ 004b0f70 f i wxmswd:textctrl.obj
 0001:000aff90       ??0wxWCharBuffer@@QAE@I@Z  004b0f90 f i wxmswd:textctrl.obj
 0001:000affd0       ?GetString@wxCommandEvent@@QBE?AVwxString@@XZ 004b0fd0 f i wxmswd:textctrl.obj
 0001:000afff0       ?ShiftDown@wxKeyEvent@@QBE_NXZ 004b0ff0 f i wxmswd:textctrl.obj
 0001:000b0010       ?GetRawKeyCode@wxKeyEvent@@QBEIXZ 004b1010 f i wxmswd:textctrl.obj
 0001:000b0030       ?GetNumberOfFiles@wxDropFilesEvent@@QBEHXZ 004b1030 f i wxmswd:textctrl.obj
 0001:000b0050       ?GetFiles@wxDropFilesEvent@@QBEPAVwxString@@XZ 004b1050 f i wxmswd:textctrl.obj
 0001:000b0070       ?Enable@wxUpdateUIEvent@@QAEX_N@Z 004b1070 f i wxmswd:textctrl.obj
 0001:000b0090       ?PopupMenu@wxWindowBase@@QAE_NPAVwxMenu@@ABVwxPoint@@@Z 004b1090 f i wxmswd:textctrl.obj
 0001:000b00c0       ?IsMultiLine@wxTextCtrlBase@@QBE_NXZ 004b10c0 f i wxmswd:textctrl.obj
 0001:000b00e0       ?IsSingleLine@wxTextCtrlBase@@QBE_NXZ 004b10e0 f i wxmswd:textctrl.obj
 0001:000b0100       ?GetRichVersion@wxTextCtrl@@QBEHXZ 004b1100 f i wxmswd:textctrl.obj
 0001:000b0120       ?IsRich@wxTextCtrl@@QBE_NXZ 004b1120 f i wxmswd:textctrl.obj
 0001:000b0140       ??0wxTextUrlEvent@@QAE@HABVwxMouseEvent@@JJ@Z 004b1140 f i wxmswd:textctrl.obj
 0001:000b0266       ?wxConstructorForwxSlider@@YAPAVwxObject@@XZ 004b1266 f   wxmswd:slider95.obj
 0001:000b030f       ??0wxSlider95@@QAE@XZ      004b130f f   wxmswd:slider95.obj
 0001:000b0396       ?Create@wxSlider95@@QAE_NPAVwxWindow@@HHHHABVwxPoint@@ABVwxSize@@JABVwxValidator@@ABVwxString@@@Z 004b1396 f   wxmswd:slider95.obj
 0001:000b09cc       ?MSWOnScroll@wxSlider95@@UAE_NHGGK@Z 004b19cc f   wxmswd:slider95.obj
 0001:000b0b8a       ??1wxSlider95@@UAE@XZ      004b1b8a f   wxmswd:slider95.obj
 0001:000b0c21       ?GetValue@wxSlider95@@UBEHXZ 004b1c21 f   wxmswd:slider95.obj
 0001:000b0c44       ?SetValue@wxSlider95@@UAEXH@Z 004b1c44 f   wxmswd:slider95.obj
 0001:000b0cb7       ?DoGetSize@wxSlider95@@MBEXPAH0@Z 004b1cb7 f   wxmswd:slider95.obj
 0001:000b0cd4       ?GetSize@wxSlider95@@QBEXPAH0@Z 004b1cd4 f   wxmswd:slider95.obj
 0001:000b0d90       ?GetPosition@wxSlider95@@QBEXPAH0@Z 004b1d90 f   wxmswd:slider95.obj
 0001:000b0eb9       ?DoSetSize@wxSlider95@@MAEXHHHHH@Z 004b1eb9 f   wxmswd:slider95.obj
 0001:000b168f       ?SetRange@wxSlider95@@UAEXHH@Z 004b268f f   wxmswd:slider95.obj
 0001:000b175c       ?OnCtlColor@wxSlider95@@UAEKKKIIIJ@Z 004b275c f   wxmswd:slider95.obj
 0001:000b1793       ?SetTickFreq@wxSlider95@@UAEXHH@Z 004b2793 f   wxmswd:slider95.obj
 0001:000b17c8       ?SetPageSize@wxSlider95@@UAEXH@Z 004b27c8 f   wxmswd:slider95.obj
 0001:000b17fb       ?GetPageSize@wxSlider95@@UBEHXZ 004b27fb f   wxmswd:slider95.obj
 0001:000b180f       ?ClearSel@wxSlider95@@UAEXXZ 004b280f f   wxmswd:slider95.obj
 0001:000b1832       ?ClearTicks@wxSlider95@@UAEXXZ 004b2832 f   wxmswd:slider95.obj
 0001:000b1855       ?SetLineSize@wxSlider95@@UAEXH@Z 004b2855 f   wxmswd:slider95.obj
 0001:000b1888       ?GetLineSize@wxSlider95@@UBEHXZ 004b2888 f   wxmswd:slider95.obj
 0001:000b18ab       ?GetSelEnd@wxSlider95@@UBEHXZ 004b28ab f   wxmswd:slider95.obj
 0001:000b18ce       ?GetSelStart@wxSlider95@@UBEHXZ 004b28ce f   wxmswd:slider95.obj
 0001:000b18f1       ?SetSelection@wxSlider95@@UAEXHH@Z 004b28f1 f   wxmswd:slider95.obj
 0001:000b192b       ?SetThumbLength@wxSlider95@@UAEXH@Z 004b292b f   wxmswd:slider95.obj
 0001:000b1952       ?GetThumbLength@wxSlider95@@UBEHXZ 004b2952 f   wxmswd:slider95.obj
 0001:000b1975       ?SetTick@wxSlider95@@UAEXH@Z 004b2975 f   wxmswd:slider95.obj
 0001:000b199c       ?ContainsHWND@wxSlider95@@UBE_NK@Z 004b299c f   wxmswd:slider95.obj
 0001:000b19e5       ?Command@wxSlider95@@UAEXAAVwxCommandEvent@@@Z 004b29e5 f   wxmswd:slider95.obj
 0001:000b1a15       ?Show@wxSlider95@@UAE_N_N@Z 004b2a15 f   wxmswd:slider95.obj
 0001:000b1ab0       ?SetPosition@wxScrollEvent@@QAEXH@Z 004b2ab0 f i wxmswd:slider95.obj
 0001:000b1ad0       ?GetStaticMin@wxSlider95@@QBEKXZ 004b2ad0 f i wxmswd:slider95.obj
 0001:000b1af0       ?GetStaticMax@wxSlider95@@QBEKXZ 004b2af0 f i wxmswd:slider95.obj
 0001:000b1b10       ?GetEditValue@wxSlider95@@QBEKXZ 004b2b10 f i wxmswd:slider95.obj
 0001:000b1b9c       ?wxConstructorForwxHtmlFilterPlainText@@YAPAVwxObject@@XZ 004b2b9c f   wxmswd:htmlfilt.obj
 0001:000b1c3f       ?CanRead@wxHtmlFilterPlainText@@UBE_NABVwxFSFile@@@Z 004b2c3f f   wxmswd:htmlfilt.obj
 0001:000b1c4e       ?ReadFile@wxHtmlFilterPlainText@@UBE?AVwxString@@ABVwxFSFile@@@Z 004b2c4e f   wxmswd:htmlfilt.obj
 0001:000b1e79       ?wxConstructorForwxHtmlFilterImage@@YAPAVwxObject@@XZ 004b2e79 f   wxmswd:htmlfilt.obj
 0001:000b1f1c       ?CanRead@wxHtmlFilterImage@@UBE_NABVwxFSFile@@@Z 004b2f1c f   wxmswd:htmlfilt.obj
 0001:000b1f5c       ?ReadFile@wxHtmlFilterImage@@UBE?AVwxString@@ABVwxFSFile@@@Z 004b2f5c f   wxmswd:htmlfilt.obj
 0001:000b1fb6       ?wxConstructorForwxHtmlFilterHTML@@YAPAVwxObject@@XZ 004b2fb6 f   wxmswd:htmlfilt.obj
 0001:000b2059       ?CanRead@wxHtmlFilterHTML@@UBE_NABVwxFSFile@@@Z 004b3059 f   wxmswd:htmlfilt.obj
 0001:000b207f       ?ReadFile@wxHtmlFilterHTML@@UBE?AVwxString@@ABVwxFSFile@@@Z 004b307f f   wxmswd:htmlfilt.obj
 0001:000b2195       ?wxConstructorForwxHtmlFilterModule@@YAPAVwxObject@@XZ 004b3195 f   wxmswd:htmlfilt.obj
 0001:000b2240       ?GetStream@wxFSFile@@QBEPAVwxInputStream@@XZ 004b3240 f i wxmswd:htmlfilt.obj
 0001:000b2260       ?Append@wxString@@QAEAAV1@ABV1@@Z 004b3260 f i wxmswd:htmlfilt.obj
 0001:000b22b0       ??0wxHtmlFilterImage@@QAE@XZ 004b32b0 f i wxmswd:htmlfilt.obj
 0001:000b22d0       ?GetClassInfo@wxHtmlFilterImage@@UBEPAVwxClassInfo@@XZ 004b32d0 f i wxmswd:htmlfilt.obj
 0001:000b22e0       ??_GwxHtmlFilterImage@@UAEPAXI@Z 004b32e0 f i wxmswd:htmlfilt.obj
 0001:000b22e0       ??_EwxHtmlFilterImage@@UAEPAXI@Z 004b32e0 f i wxmswd:htmlfilt.obj
 0001:000b2310       ??1wxHtmlFilterImage@@UAE@XZ 004b3310 f i wxmswd:htmlfilt.obj
 0001:000b2330       ?GetMimeType@wxFSFile@@QBEABVwxString@@XZ 004b3330 f i wxmswd:htmlfilt.obj
 0001:000b2350       ??0wxHtmlFilterHTML@@QAE@XZ 004b3350 f i wxmswd:htmlfilt.obj
 0001:000b2370       ?GetClassInfo@wxHtmlFilterHTML@@UBEPAVwxClassInfo@@XZ 004b3370 f i wxmswd:htmlfilt.obj
 0001:000b2380       ??_EwxHtmlFilterHTML@@UAEPAXI@Z 004b3380 f i wxmswd:htmlfilt.obj
 0001:000b2380       ??_GwxHtmlFilterHTML@@UAEPAXI@Z 004b3380 f i wxmswd:htmlfilt.obj
 0001:000b23b0       ??1wxHtmlFilterHTML@@UAE@XZ 004b33b0 f i wxmswd:htmlfilt.obj
 0001:000b23d0       ??0wxHtmlFilterModule@@QAE@XZ 004b33d0 f i wxmswd:htmlfilt.obj
 0001:000b23f0       ?GetClassInfo@wxHtmlFilterModule@@UBEPAVwxClassInfo@@XZ 004b33f0 f i wxmswd:htmlfilt.obj
 0001:000b2400       ?OnInit@wxHtmlFilterModule@@UAE_NXZ 004b3400 f i wxmswd:htmlfilt.obj
 0001:000b2480       ?OnExit@wxHtmlFilterModule@@UAEXXZ 004b3480 f i wxmswd:htmlfilt.obj
 0001:000b2490       ??_GwxHtmlFilterModule@@UAEPAXI@Z 004b3490 f i wxmswd:htmlfilt.obj
 0001:000b2490       ??_EwxHtmlFilterModule@@UAEPAXI@Z 004b3490 f i wxmswd:htmlfilt.obj
 0001:000b24c0       ??1wxHtmlFilterModule@@UAE@XZ 004b34c0 f i wxmswd:htmlfilt.obj
 0001:000b24e0       ?wxConstructorForwxPNGHandler@@YAPAVwxObject@@XZ 004b34e0 f   wxmswd:imagpng.obj
 0001:000b2583       __PNG_stream_reader        004b3583 f   wxmswd:imagpng.obj
 0001:000b25b0       __PNG_stream_writer        004b35b0 f   wxmswd:imagpng.obj
 0001:000b25dd       _wx_png_error              004b35dd f   wxmswd:imagpng.obj
 0001:000b2636       _wx_png_warning            004b3636 f   wxmswd:imagpng.obj
 0001:000b2683       ?LoadFile@wxPNGHandler@@UAE_NPAVwxImage@@AAVwxInputStream@@_NH@Z 004b3683 f   wxmswd:imagpng.obj
 0001:000b2ce8       ?SaveFile@wxPNGHandler@@UAE_NPAVwxImage@@AAVwxOutputStream@@_N@Z 004b3ce8 f   wxmswd:imagpng.obj
 0001:000b3041       ?DoCanRead@wxPNGHandler@@UAE_NAAVwxInputStream@@@Z 004b4041 f   wxmswd:imagpng.obj
 0001:000b3090       ?wxConstructorForwxGIFHandler@@YAPAVwxObject@@XZ 004b4090 f   wxmswd:imaggif.obj
 0001:000b3133       ?LoadFile@wxGIFHandler@@UAE_NPAVwxImage@@AAVwxInputStream@@_NH@Z 004b4133 f   wxmswd:imaggif.obj
 0001:000b32d3       ?SaveFile@wxGIFHandler@@UAE_NPAVwxImage@@AAVwxOutputStream@@_N@Z 004b42d3 f   wxmswd:imaggif.obj
 0001:000b32fb       ?DoCanRead@wxGIFHandler@@UAE_NAAVwxInputStream@@@Z 004b42fb f   wxmswd:imaggif.obj
 0001:000b3350       ??_GwxGIFDecoder@@QAEPAXI@Z 004b4350 f i wxmswd:imaggif.obj
 0001:000b3380       ?RLEencode@@YAXPAEIAAVwxOutputStream@@@Z 004b4380 f   wxmswd:imagpcx.obj
 0001:000b3459       ?RLEdecode@@YAXPAEIAAVwxInputStream@@@Z 004b4459 f   wxmswd:imagpcx.obj
 0001:000b34fc       ?ReadPCX@@YAHPAVwxImage@@AAVwxInputStream@@@Z 004b44fc f   wxmswd:imagpcx.obj
 0001:000b3944       ?SavePCX@@YAHPAVwxImage@@AAVwxOutputStream@@@Z 004b4944 f   wxmswd:imagpcx.obj
 0001:000b3de7       ?wxConstructorForwxPCXHandler@@YAPAVwxObject@@XZ 004b4de7 f   wxmswd:imagpcx.obj
 0001:000b3e8a       ?LoadFile@wxPCXHandler@@UAE_NPAVwxImage@@AAVwxInputStream@@_NH@Z 004b4e8a f   wxmswd:imagpcx.obj
 0001:000b3f90       ?SaveFile@wxPCXHandler@@UAE_NPAVwxImage@@AAVwxOutputStream@@_N@Z 004b4f90 f   wxmswd:imagpcx.obj
 0001:000b4028       ?DoCanRead@wxPCXHandler@@UAE_NAAVwxInputStream@@@Z 004b5028 f   wxmswd:imagpcx.obj
 0001:000b4070       ??Eiterator@wxImageHistogram_wxImplementation_HashTable@@QAE?AU01@H@Z 004b5070 f i wxmswd:imagpcx.obj
 0001:000b40b0       ?PlusPlus@Iterator@wxImageHistogram_wxImplementation_HashTable@@IAEXXZ 004b50b0 f i wxmswd:imagpcx.obj
 0001:000b40f0       ?GetNextNode@Iterator@wxImageHistogram_wxImplementation_HashTable@@IAEPAUNode@2@XZ 004b50f0 f i wxmswd:imagpcx.obj
 0001:000b4160       ??Citerator@wxImageHistogram_wxImplementation_HashTable@@QBEPAVwxImageHistogram_wxImplementation_Pair@@XZ 004b5160 f i wxmswd:imagpcx.obj
 0001:000b4180       ?begin@wxImageHistogram_wxImplementation_HashTable@@QAE?AUiterator@1@XZ 004b5180 f i wxmswd:imagpcx.obj
 0001:000b41d0       ?GetFirstNode@_wxHashTableBase2@@KAPAU_wxHashTable_NodeBase@@IPAPAU2@@Z 004b51d0 f i wxmswd:imagpcx.obj
 0001:000b4210       ?wxConstructorForwxJPEGHandler@@YAPAVwxObject@@XZ 004b5210 f   wxmswd:imagjpeg.obj
 0001:000b42b3       _my_init_source            004b52b3 f   wxmswd:imagjpeg.obj
 0001:000b42b8       _my_fill_input_buffer      004b52b8 f   wxmswd:imagjpeg.obj
 0001:000b432f       _my_skip_input_data        004b532f f   wxmswd:imagjpeg.obj
 0001:000b4388       _my_term_source            004b5388 f   wxmswd:imagjpeg.obj
 0001:000b43d5       _my_error_exit             004b53d5 f   wxmswd:imagjpeg.obj
 0001:000b4411       ?jpeg_wxio_src@@YAXPAUjpeg_decompress_struct@@AAVwxInputStream@@@Z 004b5411 f   wxmswd:imagjpeg.obj
 0001:000b44b6       ?LoadFile@wxJPEGHandler@@UAE_NPAVwxImage@@AAVwxInputStream@@_NH@Z 004b54b6 f   wxmswd:imagjpeg.obj
 0001:000b46e9       _init_destination          004b56e9 f   wxmswd:imagjpeg.obj
 0001:000b472b       _empty_output_buffer       004b572b f   wxmswd:imagjpeg.obj
 0001:000b4770       _term_destination          004b5770 f   wxmswd:imagjpeg.obj
 0001:000b47b3       ?jpeg_wxio_dest@@YAXPAUjpeg_compress_struct@@AAVwxOutputStream@@@Z 004b57b3 f   wxmswd:imagjpeg.obj
 0001:000b480d       ?SaveFile@wxJPEGHandler@@UAE_NPAVwxImage@@AAVwxOutputStream@@_N@Z 004b580d f   wxmswd:imagjpeg.obj
 0001:000b4a1c       ?DoCanRead@wxJPEGHandler@@UAE_NAAVwxInputStream@@@Z 004b5a1c f   wxmswd:imagjpeg.obj
 0001:000b4a90       ?wxConstructorForwxTIFFHandler@@YAPAVwxObject@@XZ 004b5a90 f   wxmswd:imagtiff.obj
 0001:000b4b33       __tiffNullProc             004b5b33 f   wxmswd:imagtiff.obj
 0001:000b4b3b       __tiffReadProc             004b5b3b f   wxmswd:imagtiff.obj
 0001:000b4b67       __tiffWriteProc            004b5b67 f   wxmswd:imagtiff.obj
 0001:000b4b93       __tiffSeekIProc            004b5b93 f   wxmswd:imagtiff.obj
 0001:000b4bf2       __tiffSeekOProc            004b5bf2 f   wxmswd:imagtiff.obj
 0001:000b4c51       __tiffCloseProc            004b5c51 f   wxmswd:imagtiff.obj
 0001:000b4c58       __tiffSizeProc             004b5c58 f   wxmswd:imagtiff.obj
 0001:000b4c71       __tiffMapProc              004b5c71 f   wxmswd:imagtiff.obj
 0001:000b4c78       __tiffUnmapProc            004b5c78 f   wxmswd:imagtiff.obj
 0001:000b4c7d       ?TIFFwxOpen@@YAPAUtiff@@AAVwxInputStream@@PBD1@Z 004b5c7d f   wxmswd:imagtiff.obj
 0001:000b4cc2       ?TIFFwxOpen@@YAPAUtiff@@AAVwxOutputStream@@PBD1@Z 004b5cc2 f   wxmswd:imagtiff.obj
 0001:000b4d07       ?LoadFile@wxTIFFHandler@@UAE_NPAVwxImage@@AAVwxInputStream@@_NH@Z 004b5d07 f   wxmswd:imagtiff.obj
 0001:000b5083       ?GetImageCount@wxTIFFHandler@@UAEHAAVwxInputStream@@@Z 004b6083 f   wxmswd:imagtiff.obj
 0001:000b50e4       ?SaveFile@wxTIFFHandler@@UAE_NPAVwxImage@@AAVwxOutputStream@@_N@Z 004b60e4 f   wxmswd:imagtiff.obj
 0001:000b5374       ?DoCanRead@wxTIFFHandler@@UAE_NAAVwxInputStream@@@Z 004b6374 f   wxmswd:imagtiff.obj
 0001:000b5400       ?wxConstructorForwxHashTable@@YAPAVwxObject@@XZ 004b6400 f   wxmswd:hash.obj
 0001:000b54aa       ??0wxHashTableBase@@QAE@XZ 004b64aa f   wxmswd:hash.obj
 0001:000b54f8       ?Create@wxHashTableBase@@QAEXW4wxKeyType@@I@Z 004b64f8 f   wxmswd:hash.obj
 0001:000b556b       ?Destroy@wxHashTableBase@@QAEXXZ 004b656b f   wxmswd:hash.obj
 0001:000b55fd       ?DeleteContents@wxHashTableBase@@QAEX_N@Z 004b65fd f   wxmswd:hash.obj
 0001:000b5658       ?GetNode@wxHashTableBase@@IBEPAVwxNodeBase@@JJ@Z 004b6658 f   wxmswd:hash.obj
 0001:000b56c1       ??1wxHashTableLong@@UAE@XZ 004b66c1 f   wxmswd:hash.obj
 0001:000b56e5       ?Init@wxHashTableLong@@IAEXI@Z 004b66e5 f   wxmswd:hash.obj
 0001:000b577c       ?Create@wxHashTableLong@@QAEXI@Z 004b677c f   wxmswd:hash.obj
 0001:000b5795       ?Destroy@wxHashTableLong@@QAEXXZ 004b6795 f   wxmswd:hash.obj
 0001:000b5861       ?Put@wxHashTableLong@@QAEXJJ@Z 004b6861 f   wxmswd:hash.obj
 0001:000b5977       ?Get@wxHashTableLong@@QBEJJ@Z 004b6977 f   wxmswd:hash.obj
 0001:000b5a43       ?Delete@wxHashTableLong@@QAEJJ@Z 004b6a43 f   wxmswd:hash.obj
 0001:000b5b4d       ??0wxStringHashTable@@QAE@I@Z 004b6b4d f   wxmswd:hash.obj
 0001:000b5bee       ??1wxStringHashTable@@UAE@XZ 004b6bee f   wxmswd:hash.obj
 0001:000b5c12       ?Destroy@wxStringHashTable@@QAEXXZ 004b6c12 f   wxmswd:hash.obj
 0001:000b5cd4       ?Put@wxStringHashTable@@QAEXJABVwxString@@@Z 004b6cd4 f   wxmswd:hash.obj
 0001:000b5ddb       ?Get@wxStringHashTable@@QBE?AVwxString@@JPA_N@Z 004b6ddb f   wxmswd:hash.obj
 0001:000b5ee7       ?Delete@wxStringHashTable@@QBE_NJ@Z 004b6ee7 f   wxmswd:hash.obj
 0001:000b5fc1       ??0wxHashTable@@QAE@HH@Z   004b6fc1 f   wxmswd:hash.obj
 0001:000b6017       ??1wxHashTable@@UAE@XZ     004b7017 f   wxmswd:hash.obj
 0001:000b603b       ?Destroy@wxHashTable@@QAEXXZ 004b703b f   wxmswd:hash.obj
 0001:000b60d7       ?Create@wxHashTable@@QAE_NHH@Z 004b70d7 f   wxmswd:hash.obj
 0001:000b615d       ?DoCopy@wxHashTable@@QAEXABV1@@Z 004b715d f   wxmswd:hash.obj
 0001:000b6266       ?Put@wxHashTable@@QAEXJJPAVwxObject@@@Z 004b7266 f   wxmswd:hash.obj
 0001:000b6324       ?Put@wxHashTable@@QAEXJPBDPAVwxObject@@@Z 004b7324 f   wxmswd:hash.obj
 0001:000b63e2       ?Put@wxHashTable@@QAEXJPAVwxObject@@@Z 004b73e2 f   wxmswd:hash.obj
 0001:000b64a0       ?Put@wxHashTable@@QAEXPBDPAVwxObject@@@Z 004b74a0 f   wxmswd:hash.obj
 0001:000b6561       ?Get@wxHashTable@@QBEPAVwxObject@@JJ@Z 004b7561 f   wxmswd:hash.obj
 0001:000b65ee       ?Get@wxHashTable@@QBEPAVwxObject@@JPBD@Z 004b75ee f   wxmswd:hash.obj
 0001:000b667b       ?Get@wxHashTable@@QBEPAVwxObject@@J@Z 004b767b f   wxmswd:hash.obj
 0001:000b6713       ?Get@wxHashTable@@QBEPAVwxObject@@PBD@Z 004b7713 f   wxmswd:hash.obj
 0001:000b67ae       ?Delete@wxHashTable@@QAEPAVwxObject@@J@Z 004b77ae f   wxmswd:hash.obj
 0001:000b687d       ?Delete@wxHashTable@@QAEPAVwxObject@@PBD@Z 004b787d f   wxmswd:hash.obj
 0001:000b694f       ?Delete@wxHashTable@@QAEPAVwxObject@@JH@Z 004b794f f   wxmswd:hash.obj
 0001:000b6a1e       ?Delete@wxHashTable@@QAEPAVwxObject@@JPBD@Z 004b7a1e f   wxmswd:hash.obj
 0001:000b6ae7       ?MakeKey@wxHashTable@@QBEJPBD@Z 004b7ae7 f   wxmswd:hash.obj
 0001:000b6b24       ?BeginFind@wxHashTable@@QAEXXZ 004b7b24 f   wxmswd:hash.obj
 0001:000b6b43       ?Next@wxHashTable@@QAEPAVwxObjectListNode@@XZ 004b7b43 f   wxmswd:hash.obj
 0001:000b6c0e       ?DeleteContents@wxHashTable@@QAEX_N@Z 004b7c0e f   wxmswd:hash.obj
 0001:000b6c69       ?Clear@wxHashTable@@QAEXXZ 004b7c69 f   wxmswd:hash.obj
 0001:000b6cd0       ??_EwxHashTableBase@@UAEPAXI@Z 004b7cd0 f i wxmswd:hash.obj
 0001:000b6cd0       ??_GwxHashTableBase@@UAEPAXI@Z 004b7cd0 f i wxmswd:hash.obj
 0001:000b6d00       ??_GwxArrayLong@@QAEPAXI@Z 004b7d00 f i wxmswd:hash.obj
 0001:000b6d30       ??_GwxStringHashTable@@UAEPAXI@Z 004b7d30 f i wxmswd:hash.obj
 0001:000b6d30       ??_EwxStringHashTable@@UAEPAXI@Z 004b7d30 f i wxmswd:hash.obj
 0001:000b6d60       ??_GwxArrayString@@QAEPAXI@Z 004b7d60 f i wxmswd:hash.obj
 0001:000b6d90       ?RemoveAt@wxArrayString@@QAEXII@Z 004b7d90 f i wxmswd:hash.obj
 0001:000b6db0       ?GetCount@wxBaseArrayLong@@QBEIXZ 004b7db0 f i wxmswd:hash.obj
 0001:000b6dd0       ?Item@wxArrayLong@@QBEAAJI@Z 004b7dd0 f i wxmswd:hash.obj
 0001:000b6df0       ?Item@wxBaseArrayLong@@IBEAAJI@Z 004b7df0 f i wxmswd:hash.obj
 0001:000b6e30       ?RemoveAt@wxArrayLong@@QAEXII@Z 004b7e30 f i wxmswd:hash.obj
 0001:000b6e50       ?Append@wxObjectList@@QAEPAVwxObjectListNode@@JPAX@Z 004b7e50 f i wxmswd:hash.obj
 0001:000b6e70       ?Append@wxObjectList@@QAEPAVwxObjectListNode@@PBDPAX@Z 004b7e70 f i wxmswd:hash.obj
 0001:000b6e90       ??4wxList@@QAEAAV0@ABV0@@Z 004b7e90 f i wxmswd:hash.obj
 0001:000b6eb0       ??4wxListBase@@IAEAAV0@ABV0@@Z 004b7eb0 f i wxmswd:hash.obj
 0001:000b6ee0       ??_EwxHashTableLong@@UAEPAXI@Z 004b7ee0 f i wxmswd:hash.obj
 0001:000b6ee0       ??_GwxHashTableLong@@UAEPAXI@Z 004b7ee0 f i wxmswd:hash.obj
 0001:000b6f10       ?GetClassInfo@wxHashTable@@UBEPAVwxClassInfo@@XZ 004b7f10 f i wxmswd:hash.obj
 0001:000b6f20       ??_GwxHashTable@@UAEPAXI@Z 004b7f20 f i wxmswd:hash.obj
 0001:000b6f20       ??_EwxHashTable@@UAEPAXI@Z 004b7f20 f i wxmswd:hash.obj
 0001:000b6f50       ?wxCharStringHash@wxStringHash@@SAKPBD@Z 004b7f50 f   wxmswd:hashmap.obj
 0001:000b6fc3       ?GetNextPrime@_wxHashTableBase2@@KAKK@Z 004b7fc3 f   wxmswd:hashmap.obj
 0001:000b7032       ?GetPreviousPrime@_wxHashTableBase2@@KAKK@Z 004b8032 f   wxmswd:hashmap.obj
 0001:000b707c       ?DeleteNodes@_wxHashTableBase2@@KAXIPAPAU_wxHashTable_NodeBase@@P6AXPAU2@@Z@Z 004b807c f   wxmswd:hashmap.obj
 0001:000b70e3       ?CopyHashTable@_wxHashTableBase2@@KAXPAPAU_wxHashTable_NodeBase@@IPAV1@0P6AK1PAU2@@ZP6APAU2@2@Z@Z 004b80e3 f   wxmswd:hashmap.obj
 0001:000b7165       ?DummyProcessNode@_wxHashTableBase2@@KAPAU_wxHashTable_NodeBase@@PAU2@@Z 004b8165 f   wxmswd:hashmap.obj
 0001:000b7170       ??0wxFileInputStream@@QAE@ABVwxString@@@Z 004b8170 f   wxmswd:wfstream.obj
 0001:000b71d5       ??0wxFileInputStream@@IAE@XZ 004b81d5 f   wxmswd:wfstream.obj
 0001:000b7205       ??0wxFileInputStream@@QAE@AAVwxFile@@@Z 004b8205 f   wxmswd:wfstream.obj
 0001:000b7236       ??0wxFileInputStream@@QAE@H@Z 004b8236 f   wxmswd:wfstream.obj
 0001:000b7294       ??1wxFileInputStream@@UAE@XZ 004b8294 f   wxmswd:wfstream.obj
 0001:000b72e9       ?GetSize@wxFileInputStream@@UBEIXZ 004b82e9 f   wxmswd:wfstream.obj
 0001:000b72ff       ?OnSysRead@wxFileInputStream@@MAEIPAXI@Z 004b82ff f   wxmswd:wfstream.obj
 0001:000b7364       ?OnSysSeek@wxFileInputStream@@MAEJJW4wxSeekMode@@@Z 004b8364 f   wxmswd:wfstream.obj
 0001:000b7384       ?OnSysTell@wxFileInputStream@@MBEJXZ 004b8384 f   wxmswd:wfstream.obj
 0001:000b739a       ??0wxFileOutputStream@@QAE@ABVwxString@@@Z 004b839a f   wxmswd:wfstream.obj
 0001:000b743d       ??0wxFileOutputStream@@QAE@AAVwxFile@@@Z 004b843d f   wxmswd:wfstream.obj
 0001:000b746e       ??0wxFileOutputStream@@IAE@XZ 004b846e f   wxmswd:wfstream.obj
 0001:000b749e       ??0wxFileOutputStream@@QAE@H@Z 004b849e f   wxmswd:wfstream.obj
 0001:000b74fc       ??1wxFileOutputStream@@UAE@XZ 004b84fc f   wxmswd:wfstream.obj
 0001:000b7559       ?OnSysWrite@wxFileOutputStream@@MAEIPBXI@Z 004b8559 f   wxmswd:wfstream.obj
 0001:000b759e       ?OnSysTell@wxFileOutputStream@@MBEJXZ 004b859e f   wxmswd:wfstream.obj
 0001:000b75b4       ?OnSysSeek@wxFileOutputStream@@MAEJJW4wxSeekMode@@@Z 004b85b4 f   wxmswd:wfstream.obj
 0001:000b75d4       ?Sync@wxFileOutputStream@@UAEXXZ 004b85d4 f   wxmswd:wfstream.obj
 0001:000b75f2       ?GetSize@wxFileOutputStream@@UBEIXZ 004b85f2 f   wxmswd:wfstream.obj
 0001:000b7608       ??0wxFileStream@@QAE@ABVwxString@@@Z 004b8608 f   wxmswd:wfstream.obj
 0001:000b764e       ??0wxFFileInputStream@@QAE@ABVwxString@@@Z 004b864e f   wxmswd:wfstream.obj
 0001:000b76b6       ??0wxFFileInputStream@@IAE@XZ 004b86b6 f   wxmswd:wfstream.obj
 0001:000b76e6       ??0wxFFileInputStream@@QAE@AAVwxFFile@@@Z 004b86e6 f   wxmswd:wfstream.obj
 0001:000b7717       ??0wxFFileInputStream@@QAE@PAU_iobuf@@@Z 004b8717 f   wxmswd:wfstream.obj
 0001:000b7775       ??1wxFFileInputStream@@UAE@XZ 004b8775 f   wxmswd:wfstream.obj
 0001:000b77ca       ?GetSize@wxFFileInputStream@@UBEIXZ 004b87ca f   wxmswd:wfstream.obj
 0001:000b77e0       ?OnSysRead@wxFFileInputStream@@MAEIPAXI@Z 004b87e0 f   wxmswd:wfstream.obj
 0001:000b783d       ?OnSysSeek@wxFFileInputStream@@MAEJJW4wxSeekMode@@@Z 004b883d f   wxmswd:wfstream.obj
 0001:000b787a       ?OnSysTell@wxFFileInputStream@@MBEJXZ 004b887a f   wxmswd:wfstream.obj
 0001:000b7890       ??0wxFFileOutputStream@@QAE@ABVwxString@@@Z 004b8890 f   wxmswd:wfstream.obj
 0001:000b7936       ??0wxFFileOutputStream@@QAE@AAVwxFFile@@@Z 004b8936 f   wxmswd:wfstream.obj
 0001:000b7967       ??0wxFFileOutputStream@@IAE@XZ 004b8967 f   wxmswd:wfstream.obj
 0001:000b7997       ??0wxFFileOutputStream@@QAE@PAU_iobuf@@@Z 004b8997 f   wxmswd:wfstream.obj
 0001:000b79f5       ??1wxFFileOutputStream@@UAE@XZ 004b89f5 f   wxmswd:wfstream.obj
 0001:000b7a52       ?OnSysWrite@wxFFileOutputStream@@MAEIPBXI@Z 004b8a52 f   wxmswd:wfstream.obj
 0001:000b7aa4       ?OnSysTell@wxFFileOutputStream@@MBEJXZ 004b8aa4 f   wxmswd:wfstream.obj
 0001:000b7aba       ?OnSysSeek@wxFFileOutputStream@@MAEJJW4wxSeekMode@@@Z 004b8aba f   wxmswd:wfstream.obj
 0001:000b7af7       ?Sync@wxFFileOutputStream@@UAEXXZ 004b8af7 f   wxmswd:wfstream.obj
 0001:000b7b15       ?GetSize@wxFFileOutputStream@@UBEIXZ 004b8b15 f   wxmswd:wfstream.obj
 0001:000b7b2b       ??0wxFFileStream@@QAE@ABVwxString@@@Z 004b8b2b f   wxmswd:wfstream.obj
 0001:000b7b80       ??_GwxFileInputStream@@UAEPAXI@Z 004b8b80 f i wxmswd:wfstream.obj
 0001:000b7b80       ??_EwxFileInputStream@@UAEPAXI@Z 004b8b80 f i wxmswd:wfstream.obj
 0001:000b7bb0       ??0wxFile@@QAE@H@Z         004b8bb0 f i wxmswd:wfstream.obj
 0001:000b7bd0       ??_GwxFile@@QAEPAXI@Z      004b8bd0 f i wxmswd:wfstream.obj
 0001:000b7c00       ?Error@wxFile@@QBE_NXZ     004b8c00 f i wxmswd:wfstream.obj
 0001:000b7c20       ??_GwxFileOutputStream@@UAEPAXI@Z 004b8c20 f i wxmswd:wfstream.obj
 0001:000b7c20       ??_EwxFileOutputStream@@UAEPAXI@Z 004b8c20 f i wxmswd:wfstream.obj
 0001:000b7c50       ??_EwxFileStream@@UAEPAXI@Z 004b8c50 f i wxmswd:wfstream.obj
 0001:000b7c50       ??_GwxFileStream@@UAEPAXI@Z 004b8c50 f i wxmswd:wfstream.obj
 0001:000b7c80       ??1wxFileStream@@UAE@XZ    004b8c80 f i wxmswd:wfstream.obj
 0001:000b7cc0       ??_EwxFFileInputStream@@UAEPAXI@Z 004b8cc0 f i wxmswd:wfstream.obj
 0001:000b7cc0       ??_GwxFFileInputStream@@UAEPAXI@Z 004b8cc0 f i wxmswd:wfstream.obj
 0001:000b7cf0       ??0wxFFile@@QAE@PAU_iobuf@@@Z 004b8cf0 f i wxmswd:wfstream.obj
 0001:000b7d20       ??_GwxFFile@@QAEPAXI@Z     004b8d20 f i wxmswd:wfstream.obj
 0001:000b7d50       ?Eof@wxFFile@@QBE_NXZ      004b8d50 f i wxmswd:wfstream.obj
 0001:000b7d70       ?Error@wxFFile@@QBE_NXZ    004b8d70 f i wxmswd:wfstream.obj
 0001:000b7d90       ??_EwxFFileOutputStream@@UAEPAXI@Z 004b8d90 f i wxmswd:wfstream.obj
 0001:000b7d90       ??_GwxFFileOutputStream@@UAEPAXI@Z 004b8d90 f i wxmswd:wfstream.obj
 0001:000b7dc0       ??_EwxFFileStream@@UAEPAXI@Z 004b8dc0 f i wxmswd:wfstream.obj
 0001:000b7dc0       ??_GwxFFileStream@@UAEPAXI@Z 004b8dc0 f i wxmswd:wfstream.obj
 0001:000b7df0       ??1wxFFileStream@@UAE@XZ   004b8df0 f i wxmswd:wfstream.obj
 0001:000b7e30       ??_EwxFileStream@@WCA@AEPAXI@Z 004b8e30 f i wxmswd:wfstream.obj
 0001:000b7e40       ??_EwxFFileStream@@WCA@AEPAXI@Z 004b8e40 f i wxmswd:wfstream.obj
 0001:000b7e50       ?wxConstructorForwxBMPHandler@@YAPAVwxObject@@XZ 004b8e50 f   wxmswd:imagbmp.obj
 0001:000b7ef3       ?SaveFile@wxBMPHandler@@UAE_NPAVwxImage@@AAVwxOutputStream@@_N@Z 004b8ef3 f   wxmswd:imagbmp.obj
 0001:000b7f18       ?SaveDib@wxBMPHandler@@IAE_NPAVwxImage@@AAVwxOutputStream@@_N22@Z 004b8f18 f   wxmswd:imagbmp.obj
 0001:000b9202       ?DoLoadDib@wxBMPHandler@@IAE_NPAVwxImage@@HHHHHJAAVwxInputStream@@_N22@Z 004ba202 f   wxmswd:imagbmp.obj
 0001:000ba38c       ?LoadDib@wxBMPHandler@@IAE_NPAVwxImage@@AAVwxInputStream@@_N2@Z 004bb38c f   wxmswd:imagbmp.obj
 0001:000ba6fd       ?LoadFile@wxBMPHandler@@UAE_NPAVwxImage@@AAVwxInputStream@@_NH@Z 004bb6fd f   wxmswd:imagbmp.obj
 0001:000ba720       ?DoCanRead@wxBMPHandler@@UAE_NAAVwxInputStream@@@Z 004bb720 f   wxmswd:imagbmp.obj
 0001:000ba782       ?wxConstructorForwxICOHandler@@YAPAVwxObject@@XZ 004bb782 f   wxmswd:imagbmp.obj
 0001:000ba825       ?SaveFile@wxICOHandler@@UAE_NPAVwxImage@@AAVwxOutputStream@@_N@Z 004bb825 f   wxmswd:imagbmp.obj
 0001:000bb044       ?LoadFile@wxICOHandler@@UAE_NPAVwxImage@@AAVwxInputStream@@_NH@Z 004bc044 f   wxmswd:imagbmp.obj
 0001:000bb07b       ?DoLoadFile@wxICOHandler@@UAE_NPAVwxImage@@AAVwxInputStream@@_NH@Z 004bc07b f   wxmswd:imagbmp.obj
 0001:000bb2c4       ?GetImageCount@wxICOHandler@@UAEHAAVwxInputStream@@@Z 004bc2c4 f   wxmswd:imagbmp.obj
 0001:000bb322       ?DoCanRead@wxICOHandler@@UAE_NAAVwxInputStream@@@Z 004bc322 f   wxmswd:imagbmp.obj
 0001:000bb3ab       ?wxConstructorForwxCURHandler@@YAPAVwxObject@@XZ 004bc3ab f   wxmswd:imagbmp.obj
 0001:000bb44e       ?DoCanRead@wxCURHandler@@UAE_NAAVwxInputStream@@@Z 004bc44e f   wxmswd:imagbmp.obj
 0001:000bb4d7       ?wxConstructorForwxANIHandler@@YAPAVwxObject@@XZ 004bc4d7 f   wxmswd:imagbmp.obj
 0001:000bb57a       ?LoadFile@wxANIHandler@@UAE_NPAVwxImage@@AAVwxInputStream@@_NH@Z 004bc57a f   wxmswd:imagbmp.obj
 0001:000bb6d1       ?DoCanRead@wxANIHandler@@UAE_NAAVwxInputStream@@@Z 004bc6d1 f   wxmswd:imagbmp.obj
 0001:000bb832       ?GetImageCount@wxANIHandler@@UAEHAAVwxInputStream@@@Z 004bc832 f   wxmswd:imagbmp.obj
 0001:000bb9c0       ??0wxICOHandler@@QAE@XZ    004bc9c0 f i wxmswd:imagbmp.obj
 0001:000bba20       ?GetClassInfo@wxICOHandler@@UBEPAVwxClassInfo@@XZ 004bca20 f i wxmswd:imagbmp.obj
 0001:000bba30       ??_EwxICOHandler@@UAEPAXI@Z 004bca30 f i wxmswd:imagbmp.obj
 0001:000bba30       ??_GwxICOHandler@@UAEPAXI@Z 004bca30 f i wxmswd:imagbmp.obj
 0001:000bba60       ??1wxICOHandler@@UAE@XZ    004bca60 f i wxmswd:imagbmp.obj
 0001:000bba80       ??0wxCURHandler@@QAE@XZ    004bca80 f i wxmswd:imagbmp.obj
 0001:000bbae0       ?GetClassInfo@wxCURHandler@@UBEPAVwxClassInfo@@XZ 004bcae0 f i wxmswd:imagbmp.obj
 0001:000bbaf0       ??_EwxCURHandler@@UAEPAXI@Z 004bcaf0 f i wxmswd:imagbmp.obj
 0001:000bbaf0       ??_GwxCURHandler@@UAEPAXI@Z 004bcaf0 f i wxmswd:imagbmp.obj
 0001:000bbb20       ??1wxCURHandler@@UAE@XZ    004bcb20 f i wxmswd:imagbmp.obj
 0001:000bbb40       ??0wxANIHandler@@QAE@XZ    004bcb40 f i wxmswd:imagbmp.obj
 0001:000bbba0       ?SaveFile@wxANIHandler@@UAE_NPAVwxImage@@AAVwxOutputStream@@_N@Z 004bcba0 f i wxmswd:imagbmp.obj
 0001:000bbbb0       ?GetClassInfo@wxANIHandler@@UBEPAVwxClassInfo@@XZ 004bcbb0 f i wxmswd:imagbmp.obj
 0001:000bbbc0       ??_GwxANIHandler@@UAEPAXI@Z 004bcbc0 f i wxmswd:imagbmp.obj
 0001:000bbbc0       ??_EwxANIHandler@@UAEPAXI@Z 004bcbc0 f i wxmswd:imagbmp.obj
 0001:000bbbf0       ??1wxANIHandler@@UAE@XZ    004bcbf0 f i wxmswd:imagbmp.obj
 0001:000bbc10       ?wxConstructorForwxXPMHandler@@YAPAVwxObject@@XZ 004bcc10 f   wxmswd:imagxpm.obj
 0001:000bbcb3       ?LoadFile@wxXPMHandler@@UAE_NPAVwxImage@@AAVwxInputStream@@_NH@Z 004bccb3 f   wxmswd:imagxpm.obj
 0001:000bbd27       ?SaveFile@wxXPMHandler@@UAE_NPAVwxImage@@AAVwxOutputStream@@_N@Z 004bcd27 f   wxmswd:imagxpm.obj
 0001:000bc49f       ?DoCanRead@wxXPMHandler@@UAE_NAAVwxInputStream@@@Z 004bd49f f   wxmswd:imagxpm.obj
 0001:000bc4d0       ?ToAscii@wxString@@QBEPBDXZ 004bd4d0 f i wxmswd:imagxpm.obj
 0001:000bc4f0       ?DeleteData@wxwxModuleListNode@@UAEXXZ 004bd4f0 f   wxmswd:module.obj
 0001:000bc5f7       ?RegisterModule@wxModule@@SAXPAV1@@Z 004bd5f7 f   wxmswd:module.obj
 0001:000bc60a       ?UnregisterModule@wxModule@@SAXPAV1@@Z 004bd60a f   wxmswd:module.obj
 0001:000bc61d       ?RegisterModules@wxModule@@SAXXZ 004bd61d f   wxmswd:module.obj
 0001:000bc697       ?InitializeModules@wxModule@@SA_NXZ 004bd697 f   wxmswd:module.obj
 0001:000bc717       ?CleanUpModules@wxModule@@SAXXZ 004bd717 f   wxmswd:module.obj
 0001:000bc770       ?GetNext@wxwxModuleListNode@@QBEPAV1@XZ 004bd770 f i wxmswd:module.obj
 0001:000bc790       ?GetPrevious@wxwxModuleListNode@@QBEPAV1@XZ 004bd790 f i wxmswd:module.obj
 0001:000bc7b0       ?GetData@wxwxModuleListNode@@QBEPAVwxModule@@XZ 004bd7b0 f i wxmswd:module.obj
 0001:000bc7d0       ??0wxModuleList@@QAE@W4wxKeyType@@@Z 004bd7d0 f i wxmswd:module.obj
 0001:000bc800       ?GetFirst@wxModuleList@@QBEPAVwxwxModuleListNode@@XZ 004bd800 f i wxmswd:module.obj
 0001:000bc820       ?Append@wxModuleList@@QAEPAVwxwxModuleListNode@@PAVwxModule@@@Z 004bd820 f i wxmswd:module.obj
 0001:000bc840       ?DeleteObject@wxModuleList@@QAE_NPAVwxModule@@@Z 004bd840 f i wxmswd:module.obj
 0001:000bc860       ?Find@wxModuleList@@UBEPAVwxwxModuleListNode@@ABVwxListKey@@@Z 004bd860 f i wxmswd:module.obj
 0001:000bc880       ?CreateNode@wxModuleList@@MAEPAVwxNodeBase@@PAV2@0PAXABVwxListKey@@@Z 004bd880 f i wxmswd:module.obj
 0001:000bc8d0       ??0wxwxModuleListNode@@QAE@PAVwxListBase@@PAV0@1PAVwxModule@@ABVwxListKey@@@Z 004bd8d0 f i wxmswd:module.obj
 0001:000bc910       ??_GwxwxModuleListNode@@UAEPAXI@Z 004bd910 f i wxmswd:module.obj
 0001:000bc910       ??_EwxwxModuleListNode@@UAEPAXI@Z 004bd910 f i wxmswd:module.obj
 0001:000bc940       ??1wxwxModuleListNode@@UAE@XZ 004bd940 f i wxmswd:module.obj
 0001:000bc960       ??_EwxModuleList@@UAEPAXI@Z 004bd960 f i wxmswd:module.obj
 0001:000bc960       ??_GwxModuleList@@UAEPAXI@Z 004bd960 f i wxmswd:module.obj
 0001:000bc990       ??1wxModuleList@@UAE@XZ    004bd990 f i wxmswd:module.obj
 0001:000bc9b0       ?Init@wxModule@@QAE_NXZ    004bd9b0 f i wxmswd:module.obj
 0001:000bc9d0       ?Exit@wxModule@@QAEXXZ     004bd9d0 f i wxmswd:module.obj
 0001:000bc9f0       ?GetEOL@wxTextBuffer@@SAPBDW4wxTextFileType@@@Z 004bd9f0 f   wxmswd:textbuf.obj
 0001:000bca60       ?Translate@wxTextBuffer@@SA?AVwxString@@ABV2@W4wxTextFileType@@@Z 004bda60 f   wxmswd:textbuf.obj
 0001:000bcba5       ??0wxTextBuffer@@IAE@ABVwxString@@@Z 004bdba5 f   wxmswd:textbuf.obj
 0001:000bcbf4       ??1wxTextBuffer@@UAE@XZ    004bdbf4 f   wxmswd:textbuf.obj
 0001:000bcc29       ?Exists@wxTextBuffer@@QBE_NXZ 004bdc29 f   wxmswd:textbuf.obj
 0001:000bcc3f       ?Create@wxTextBuffer@@QAE_NABVwxString@@@Z 004bdc3f f   wxmswd:textbuf.obj
 0001:000bcc63       ?Create@wxTextBuffer@@QAE_NXZ 004bdc63 f   wxmswd:textbuf.obj
 0001:000bcce0       ?Open@wxTextBuffer@@QAE_NABVwxString@@AAVwxMBConv@@@Z 004bdce0 f   wxmswd:textbuf.obj
 0001:000bcd08       ?Open@wxTextBuffer@@QAE_NAAVwxMBConv@@@Z 004bdd08 f   wxmswd:textbuf.obj
 0001:000bcd8b       ?GuessType@wxTextBuffer@@QBE?AW4wxTextFileType@@XZ 004bdd8b f   wxmswd:textbuf.obj
 0001:000bd0a6       ?Close@wxTextBuffer@@QAE_NXZ 004be0a6 f   wxmswd:textbuf.obj
 0001:000bd0da       ?Write@wxTextBuffer@@QAE_NW4wxTextFileType@@AAVwxMBConv@@@Z 004be0da f   wxmswd:textbuf.obj
 0001:000bd100       ??0ArrayFileType@@QAE@XZ   004be100 f i wxmswd:textbuf.obj
 0001:000bd120       ??_EwxTextBuffer@@UAEPAXI@Z 004be120 f i wxmswd:textbuf.obj
 0001:000bd120       ??_GwxTextBuffer@@UAEPAXI@Z 004be120 f i wxmswd:textbuf.obj
 0001:000bd150       ??1ArrayFileType@@QAE@XZ   004be150 f i wxmswd:textbuf.obj
 0001:000bd170       ??AArrayFileType@@QBEAAW4wxTextFileType@@I@Z 004be170 f i wxmswd:textbuf.obj
 0001:000bd190       ?IsOpened@wxTextBuffer@@QBE_NXZ 004be190 f i wxmswd:textbuf.obj
 0001:000bd34a       ?wxConstructorForwxStrConvModule@@YAPAVwxObject@@XZ 004be34a f   wxmswd:strconv.obj
 0001:000bd3ed       ??1wxMBConv@@UAE@XZ        004be3ed f   wxmswd:strconv.obj
 0001:000bd401       ?MB2WC@wxMBConv@@UBEIPAGPBDI@Z 004be401 f   wxmswd:strconv.obj
 0001:000bd422       ?WC2MB@wxMBConv@@UBEIPADPBGI@Z 004be422 f   wxmswd:strconv.obj
 0001:000bd443       ?cMB2WC@wxMBConv@@QBE?BVwxWCharBuffer@@PBD@Z 004be443 f   wxmswd:strconv.obj
 0001:000bd4d7       ?cWC2MB@wxMBConv@@QBE?BVwxCharBuffer@@PBG@Z 004be4d7 f   wxmswd:strconv.obj
 0001:000bd5ac       ?MB2WC@wxMBConvUTF7@@UBEIPAGPBDI@Z 004be5ac f   wxmswd:strconv.obj
 0001:000bd5bb       ?WC2MB@wxMBConvUTF7@@UBEIPADPBGI@Z 004be5bb f   wxmswd:strconv.obj
 0001:000bd609       ?MB2WC@wxMBConvUTF8@@UBEIPAGPBDI@Z 004be609 f   wxmswd:strconv.obj
 0001:000bd829       ?WC2MB@wxMBConvUTF8@@UBEIPADPBGI@Z 004be829 f   wxmswd:strconv.obj
 0001:000bda09       ??0wxCSConv@@QAE@PBD@Z     004bea09 f   wxmswd:strconv.obj
 0001:000bda51       ??1wxCSConv@@UAE@XZ        004bea51 f   wxmswd:strconv.obj
 0001:000bda75       ??0wxCSConv@@QAE@ABV0@@Z   004bea75 f   wxmswd:strconv.obj
 0001:000bdaad       ??4wxCSConv@@QAEAAV0@ABV0@@Z 004beaad f   wxmswd:strconv.obj
 0001:000bdad4       ?Clear@wxCSConv@@QAEXXZ    004bead4 f   wxmswd:strconv.obj
 0001:000bdb44       ?SetName@wxCSConv@@AAEXPBD@Z 004beb44 f   wxmswd:strconv.obj
 0001:000bdb71       ?LoadNow@wxCSConv@@QAEXXZ  004beb71 f   wxmswd:strconv.obj
 0001:000bde5d       ?MB2WC@wxCSConv@@UBEIPAGPBDI@Z 004bee5d f   wxmswd:strconv.obj
 0001:000bdee4       ?WC2MB@wxCSConv@@UBEIPADPBGI@Z 004beee4 f   wxmswd:strconv.obj
 0001:000bdf90       ??0wxMBConv@@QAE@XZ        004bef90 f i wxmswd:strconv.obj
 0001:000bdfb0       ??_GwxMBConv@@UAEPAXI@Z    004befb0 f i wxmswd:strconv.obj
 0001:000bdfb0       ??_EwxMBConv@@UAEPAXI@Z    004befb0 f i wxmswd:strconv.obj
 0001:000bdfe0       ??0wxStrConvModule@@QAE@XZ 004befe0 f i wxmswd:strconv.obj
 0001:000be000       ?OnInit@wxStrConvModule@@UAE_NXZ 004bf000 f i wxmswd:strconv.obj
 0001:000be010       ?OnExit@wxStrConvModule@@UAEXXZ 004bf010 f i wxmswd:strconv.obj
 0001:000be030       ?GetClassInfo@wxStrConvModule@@UBEPAVwxClassInfo@@XZ 004bf030 f i wxmswd:strconv.obj
 0001:000be040       ??_GwxStrConvModule@@UAEPAXI@Z 004bf040 f i wxmswd:strconv.obj
 0001:000be040       ??_EwxStrConvModule@@UAEPAXI@Z 004bf040 f i wxmswd:strconv.obj
 0001:000be070       ??1wxStrConvModule@@UAE@XZ 004bf070 f i wxmswd:strconv.obj
 0001:000be090       ??0wxWCharBuffer@@QAE@PBG@Z 004bf090 f i wxmswd:strconv.obj
 0001:000be0d0       ?wxWcsdupReplacement@@YAPAGPBG@Z 004bf0d0 f i wxmswd:strconv.obj
 0001:000be120       ??0wxWCharBuffer@@QAE@ABV0@@Z 004bf120 f i wxmswd:strconv.obj
 0001:000be140       ?release@wxWCharBuffer@@QBEPAGXZ 004bf140 f i wxmswd:strconv.obj
 0001:000be170       ?data@wxWCharBuffer@@QAEPAGXZ 004bf170 f i wxmswd:strconv.obj
 0001:000be180       ??0wxCharBuffer@@QAE@PBD@Z 004bf180 f i wxmswd:strconv.obj
 0001:000be1c0       ??0wxCharBuffer@@QAE@I@Z   004bf1c0 f i wxmswd:strconv.obj
 0001:000be200       ??1wxCharBuffer@@QAE@XZ    004bf200 f i wxmswd:strconv.obj
 0001:000be220       ??0wxCharBuffer@@QAE@ABV0@@Z 004bf220 f i wxmswd:strconv.obj
 0001:000be240       ?release@wxCharBuffer@@QBEPADXZ 004bf240 f i wxmswd:strconv.obj
 0001:000be270       ?data@wxCharBuffer@@QAEPADXZ 004bf270 f i wxmswd:strconv.obj
 0001:000be280       ??1wxMBConvUTF7@@UAE@XZ    004bf280 f i wxmswd:strconv.obj
 0001:000be2a0       ??0wxMBConvUTF7@@QAE@XZ    004bf2a0 f i wxmswd:strconv.obj
 0001:000be2c0       ??_EwxMBConvUTF7@@UAEPAXI@Z 004bf2c0 f i wxmswd:strconv.obj
 0001:000be2c0       ??_GwxMBConvUTF7@@UAEPAXI@Z 004bf2c0 f i wxmswd:strconv.obj
 0001:000be2f0       ??1wxMBConvUTF8@@UAE@XZ    004bf2f0 f i wxmswd:strconv.obj
 0001:000be310       ??0wxMBConvUTF8@@QAE@XZ    004bf310 f i wxmswd:strconv.obj
 0001:000be330       ??_EwxMBConvUTF8@@UAEPAXI@Z 004bf330 f i wxmswd:strconv.obj
 0001:000be330       ??_GwxMBConvUTF8@@UAEPAXI@Z 004bf330 f i wxmswd:strconv.obj
 0001:000be360       ??_EwxCSConv@@UAEPAXI@Z    004bf360 f i wxmswd:strconv.obj
 0001:000be360       ??_GwxCSConv@@UAEPAXI@Z    004bf360 f i wxmswd:strconv.obj
 0001:000be390       ??0ID_CharSet@@QAE@PBDPAVwxMBConv@@@Z 004bf390 f i wxmswd:strconv.obj
 0001:000be3c0       ??0wxCharacterSet@@QAE@PBD@Z 004bf3c0 f i wxmswd:strconv.obj
 0001:000be3f0       ??_EwxCharacterSet@@UAEPAXI@Z 004bf3f0 f i wxmswd:strconv.obj
 0001:000be3f0       ??_GwxCharacterSet@@UAEPAXI@Z 004bf3f0 f i wxmswd:strconv.obj
 0001:000be420       ??1wxCharacterSet@@UAE@XZ  004bf420 f i wxmswd:strconv.obj
 0001:000be440       ?MB2WC@ID_CharSet@@UAEIPAGPBDI@Z 004bf440 f i wxmswd:strconv.obj
 0001:000be490       ?WC2MB@ID_CharSet@@UAEIPADPBGI@Z 004bf490 f i wxmswd:strconv.obj
 0001:000be4e0       ?usable@ID_CharSet@@UBE_NXZ 004bf4e0 f i wxmswd:strconv.obj
 0001:000be500       ??_GID_CharSet@@UAEPAXI@Z  004bf500 f i wxmswd:strconv.obj
 0001:000be500       ??_EID_CharSet@@UAEPAXI@Z  004bf500 f i wxmswd:strconv.obj
 0001:000be530       ??1ID_CharSet@@UAE@XZ      004bf530 f i wxmswd:strconv.obj
 0001:000be550       ??0CP_CharSet@@QAE@PBD@Z   004bf550 f i wxmswd:strconv.obj
 0001:000be590       ?MB2WC@CP_CharSet@@UAEIPAGPBDI@Z 004bf590 f i wxmswd:strconv.obj
 0001:000be600       ?WC2MB@CP_CharSet@@UAEIPADPBGI@Z 004bf600 f i wxmswd:strconv.obj
 0001:000be670       ?usable@CP_CharSet@@UBE_NXZ 004bf670 f i wxmswd:strconv.obj
 0001:000be690       ??_GCP_CharSet@@UAEPAXI@Z  004bf690 f i wxmswd:strconv.obj
 0001:000be690       ??_ECP_CharSet@@UAEPAXI@Z  004bf690 f i wxmswd:strconv.obj
 0001:000be6c0       ??1CP_CharSet@@UAE@XZ      004bf6c0 f i wxmswd:strconv.obj
 0001:000be6e0       ??0EC_CharSet@@QAE@PBD@Z   004bf6e0 f i wxmswd:strconv.obj
 0001:000be7c0       ?MB2WC@EC_CharSet@@UAEIPAGPBDI@Z 004bf7c0 f i wxmswd:strconv.obj
 0001:000be800       ?WC2MB@EC_CharSet@@UAEIPADPBGI@Z 004bf800 f i wxmswd:strconv.obj
 0001:000be840       ?usable@EC_CharSet@@UBE_NXZ 004bf840 f i wxmswd:strconv.obj
 0001:000be860       ??_GEC_CharSet@@UAEPAXI@Z  004bf860 f i wxmswd:strconv.obj
 0001:000be860       ??_EEC_CharSet@@UAEPAXI@Z  004bf860 f i wxmswd:strconv.obj
 0001:000be890       ??1EC_CharSet@@UAE@XZ      004bf890 f i wxmswd:strconv.obj
 0001:000be8c0       ??1wxEncodingConverter@@UAE@XZ 004bf8c0 f i wxmswd:strconv.obj
 0001:000be900       ??_EwxEncodingConverter@@UAEPAXI@Z 004bf900 f i wxmswd:strconv.obj
 0001:000be900       ??_GwxEncodingConverter@@UAEPAXI@Z 004bf900 f i wxmswd:strconv.obj
 0001:000be930       ?Exists@wxFile@@SA_NPBD@Z  004bf930 f   wxmswd:file.obj
 0001:000be962       ?Access@wxFile@@SA_NPBDW4OpenMode@1@@Z 004bf962 f   wxmswd:file.obj
 0001:000be9de       ??0wxFile@@QAE@PBDW4OpenMode@0@@Z 004bf9de f   wxmswd:file.obj
 0001:000bea13       ?Create@wxFile@@QAE_NPBD_NH@Z 004bfa13 f   wxmswd:file.obj
 0001:000bea88       ?Open@wxFile@@QAE_NPBDW4OpenMode@1@H@Z 004bfa88 f   wxmswd:file.obj
 0001:000beb5e       ?Close@wxFile@@QAE_NXZ     004bfb5e f   wxmswd:file.obj
 0001:000bebc2       ?Read@wxFile@@QAEJPAXJ@Z   004bfbc2 f   wxmswd:file.obj
 0001:000bec57       ?Write@wxFile@@QAEIPBXI@Z  004bfc57 f   wxmswd:file.obj
 0001:000becf2       ?Flush@wxFile@@QAE_NXZ     004bfcf2 f   wxmswd:file.obj
 0001:000bed44       ?Seek@wxFile@@QAEJJW4wxSeekMode@@@Z 004bfd44 f   wxmswd:file.obj
 0001:000bee29       ?Tell@wxFile@@QBEJXZ       004bfe29 f   wxmswd:file.obj
 0001:000bee9f       ?Length@wxFile@@QBEJXZ     004bfe9f f   wxmswd:file.obj
 0001:000bef15       ?Eof@wxFile@@QBE_NXZ       004bff15 f   wxmswd:file.obj
 0001:000befd5       ??0wxTempFile@@QAE@ABVwxString@@@Z 004bffd5 f   wxmswd:file.obj
 0001:000bf00f       ?Open@wxTempFile@@QAE_NABVwxString@@@Z 004c000f f   wxmswd:file.obj
 0001:000bf0e6       ??1wxTempFile@@QAE@XZ      004c00e6 f   wxmswd:file.obj
 0001:000bf128       ?Commit@wxTempFile@@QAE_NXZ 004c0128 f   wxmswd:file.obj
 0001:000bf1d8       ?Discard@wxTempFile@@QAEXXZ 004c01d8 f   wxmswd:file.obj
 0001:000bf230       ?Attach@wxFile@@QAEXH@Z    004c0230 f i wxmswd:file.obj
 0001:000bf250       ??0wxFile@@QAE@XZ          004c0250 f i wxmswd:file.obj
 0001:000bf270       ??0wxFileName@@QAE@ABVwxString@@W4wxPathFormat@@@Z 004c0270 f i wxmswd:file.obj
 0001:000bf2c0       ??1wxFileName@@QAE@XZ      004c02c0 f i wxmswd:file.obj
 0001:000bf300       ?IsOpened@wxTempFile@@QBE_NXZ 004c0300 f i wxmswd:file.obj
 0001:000bf3f6       ?wxConstructorForwxSystemSettingsModule@@YAPAVwxObject@@XZ 004c03f6 f   wxmswd:settings.obj
 0001:000bf499       ?OnInit@wxSystemSettingsModule@@UAE_NXZ 004c0499 f   wxmswd:settings.obj
 0001:000bf4a6       ?OnExit@wxSystemSettingsModule@@UAEXXZ 004c04a6 f   wxmswd:settings.obj
 0001:000bf4ea       ?GetColour@wxSystemSettingsNative@@SA?AVwxColour@@W4wxSystemColour@@@Z 004c04ea f   wxmswd:settings.obj
 0001:000bf61b       ?wxCreateFontFromStockObject@@YA?AVwxFont@@H@Z 004c061b f   wxmswd:settings.obj
 0001:000bf6fa       ?GetFont@wxSystemSettingsNative@@SA?AVwxFont@@W4wxSystemFont@@@Z 004c06fa f   wxmswd:settings.obj
 0001:000bf7a2       ?GetMetric@wxSystemSettingsNative@@SAHW4wxSystemMetric@@@Z 004c07a2 f   wxmswd:settings.obj
 0001:000bf81c       ?HasFeature@wxSystemSettingsNative@@SA_NW4wxSystemFeature@@@Z 004c081c f   wxmswd:settings.obj
 0001:000bf870       ??0wxSystemSettingsModule@@QAE@XZ 004c0870 f i wxmswd:settings.obj
 0001:000bf890       ?GetClassInfo@wxSystemSettingsModule@@UBEPAVwxClassInfo@@XZ 004c0890 f i wxmswd:settings.obj
 0001:000bf8a0       ??_GwxSystemSettingsModule@@UAEPAXI@Z 004c08a0 f i wxmswd:settings.obj
 0001:000bf8a0       ??_EwxSystemSettingsModule@@UAEPAXI@Z 004c08a0 f i wxmswd:settings.obj
 0001:000bf8d0       ??1wxSystemSettingsModule@@UAE@XZ 004c08d0 f i wxmswd:settings.obj
 0001:000bf8f0       ?wxRGBToColour@@YA?AVwxColour@@K@Z 004c08f0 f i wxmswd:settings.obj
 0001:000bf9f6       ?wxGetHostName@@YA_NPADH@Z 004c09f6 f   wxmswd:utils.obj
 0001:000bfa4d       ?wxGetFullHostName@@YA_NPADH@Z 004c0a4d f   wxmswd:utils.obj
 0001:000bfb86       ?wxGetUserId@@YA_NPADH@Z   004c0b86 f   wxmswd:utils.obj
 0001:000bfbca       ?wxGetUserName@@YA_NPADH@Z 004c0bca f   wxmswd:utils.obj
 0001:000bfc40       ?wxGetHomeDir@@YAPBDPAVwxString@@@Z 004c0c40 f   wxmswd:utils.obj
 0001:000bfd90       ?wxGetUserHome@@YAPADABVwxString@@@Z 004c0d90 f   wxmswd:utils.obj
 0001:000bfde5       ?wxPathExists@@YA_NABVwxString@@@Z 004c0de5 f   wxmswd:utils.obj
 0001:000bfe24       ?wxGetDiskSpace@@YA_NABVwxString@@PAVwxLongLongNative@@1@Z 004c0e24 f   wxmswd:utils.obj
 0001:000bffbc       ?wxGetEnv@@YA_NABVwxString@@PAV1@@Z 004c0fbc f   wxmswd:utils.obj
 0001:000c0014       ?wxSetEnv@@YA_NABVwxString@@PBD@Z 004c1014 f   wxmswd:utils.obj
 0001:000c0067       ?wxEnumFindByPidProc@@YGHPAUHWND__@@J@Z 004c1067 f   wxmswd:utils.obj
 0001:000c00a3       ?wxKill@@YAHJW4wxSignal@@PAW4wxKillError@@@Z 004c10a3 f   wxmswd:utils.obj
 0001:000c0354       ?wxShell@@YA_NABVwxString@@@Z 004c1354 f   wxmswd:utils.obj
 0001:000c03e4       ?wxShutdown@@YA_NW4wxShutdownFlags@@@Z 004c13e4 f   wxmswd:utils.obj
 0001:000c04f1       ?wxGetFreeMemory@@YAJXZ    004c14f1 f   wxmswd:utils.obj
 0001:000c050f       ?wxGetProcessId@@YAKXZ     004c150f f   wxmswd:utils.obj
 0001:000c051a       ?wxBell@@YAXXZ             004c151a f   wxmswd:utils.obj
 0001:000c0527       ?wxGetOsDescription@@YA?AVwxString@@XZ 004c1527 f   wxmswd:utils.obj
 0001:000c06cd       ?wxGetOsVersion@@YAHPAH0@Z 004c16cd f   wxmswd:utils.obj
 0001:000c07bc       ?wxUsleep@@YAXK@Z          004c17bc f   wxmswd:utils.obj
 0001:000c07cb       ?wxSleep@@YAXH@Z           004c17cb f   wxmswd:utils.obj
 0001:000c08a6       ?wxFlushEvents@@YAXXZ      004c18a6 f   wxmswd:utils.obj
 0001:000c08ab       ?wxWriteResource@@YA_NABVwxString@@000@Z 004c18ab f   wxmswd:utils.obj
 0001:000c0923       ?wxWriteResource@@YA_NABVwxString@@0M0@Z 004c1923 f   wxmswd:utils.obj
 0001:000c0975       ?wxWriteResource@@YA_NABVwxString@@0J0@Z 004c1975 f   wxmswd:utils.obj
 0001:000c09c2       ?wxWriteResource@@YA_NABVwxString@@0H0@Z 004c19c2 f   wxmswd:utils.obj
 0001:000c0a0f       ?wxGetResource@@YA_NABVwxString@@0PAPAD0@Z 004c1a0f f   wxmswd:utils.obj
 0001:000c0b0d       ?wxGetResource@@YA_NABVwxString@@0PAM0@Z 004c1b0d f   wxmswd:utils.obj
 0001:000c0b72       ?wxGetResource@@YA_NABVwxString@@0PAJ0@Z 004c1b72 f   wxmswd:utils.obj
 0001:000c0bd9       ?wxGetResource@@YA_NABVwxString@@0PAH0@Z 004c1bd9 f   wxmswd:utils.obj
 0001:000c0c40       ?wxGetCurrentBusyCursor@@YAPAUHICON__@@XZ 004c1c40 f   wxmswd:utils.obj
 0001:000c0c4a       ?wxBeginBusyCursor@@YAXPAVwxCursor@@@Z 004c1c4a f   wxmswd:utils.obj
 0001:000c0c86       ?wxEndBusyCursor@@YAXXZ    004c1c86 f   wxmswd:utils.obj
 0001:000c0cef       ?wxIsBusy@@YA_NXZ          004c1cef f   wxmswd:utils.obj
 0001:000c0d00       ?wxCheckForInterrupt@@YA_NPAVwxWindow@@@Z 004c1d00 f   wxmswd:utils.obj
 0001:000c0d70       ?wxLoadUserResource@@YAPADABVwxString@@0@Z 004c1d70 f   wxmswd:utils.obj
 0001:000c0e2a       ?wxGetMousePosition@@YAXPAH0@Z 004c1e2a f   wxmswd:utils.obj
 0001:000c0e5a       ?wxColourDisplay@@YA_NXZ   004c1e5a f   wxmswd:utils.obj
 0001:000c0ec1       ?wxDisplayDepth@@YAHXZ     004c1ec1 f   wxmswd:utils.obj
 0001:000c0f0a       ?wxDisplaySize@@YAXPAH0@Z  004c1f0a f   wxmswd:utils.obj
 0001:000c0f5a       ?wxDisplaySizeMM@@YAXPAH0@Z 004c1f5a f   wxmswd:utils.obj
 0001:000c0faa       ?wxClientDisplayRect@@YAXPAH000@Z 004c1faa f   wxmswd:utils.obj
 0001:000c1002       ?wxGetWindowText@@YA?AVwxString@@K@Z 004c2002 f   wxmswd:utils.obj
 0001:000c1064       ?wxGetWindowClass@@YA?AVwxString@@K@Z 004c2064 f   wxmswd:utils.obj
 0001:000c10d8       ?wxGetWindowId@@YAGK@Z     004c20d8 f   wxmswd:utils.obj
 0001:000c10e9       ?PixelToHIMETRIC@@YAXPAJ0@Z 004c20e9 f   wxmswd:utils.obj
 0001:000c1195       ?HIMETRICToPixel@@YAXPAJ0@Z 004c2195 f   wxmswd:utils.obj
 0001:000c1241       ?wxEncodingToCodepage@@YAJW4wxFontEncoding@@@Z 004c2241 f   wxmswd:utils.obj
 0001:000c12ea       ?wxCharsetToCodepage@@YAJPBD@Z 004c22ea f   wxmswd:utils.obj
 0001:000c1350       ??0wxFindByPidParams@@QAE@XZ 004c2350 f i wxmswd:utils.obj
 0001:000c1380       ??0wxSleepTimer@@QAE@XZ    004c2380 f i wxmswd:utils.obj
 0001:000c13a0       ?Notify@wxSleepTimer@@UAEXXZ 004c23a0 f i wxmswd:utils.obj
 0001:000c13c0       ??_GwxSleepTimer@@UAEPAXI@Z 004c23c0 f i wxmswd:utils.obj
 0001:000c13c0       ??_EwxSleepTimer@@UAEPAXI@Z 004c23c0 f i wxmswd:utils.obj
 0001:000c13f0       ??1wxSleepTimer@@UAE@XZ    004c23f0 f i wxmswd:utils.obj
 0001:000c1410       ?FindResource@@YAPAUHRSRC__@@PAUHINSTANCE__@@PBD1@Z 004c2410 f i wxmswd:utils.obj
 0001:000c1430       ?GetClassName@@YAHPAUHWND__@@PADH@Z 004c2430 f i wxmswd:utils.obj
 0001:000c1450       ??0wxLongLongNative@@QAE@_J@Z 004c2450 f i wxmswd:utils.obj
 0001:000c1470       ??0wxLongLongNative@@QAE@JK@Z 004c2470 f i wxmswd:utils.obj
 0001:000c14d0       ??XwxLongLongNative@@QAEAAV0@J@Z 004c24d0 f i wxmswd:utils.obj
 0001:000c15d6       _WinMain@16                004c25d6 f   wxmswd:main.obj
 0001:000c15f7       _wxGetInstance             004c25f7 f   wxmswd:main.obj
 0001:000c1601       ?wxSetInstance@@YAXPAUHINSTANCE__@@@Z 004c2601 f   wxmswd:main.obj
 0001:000c16e6       ?wxConstructorForwxBrush@@YAPAVwxObject@@XZ 004c26e6 f   wxmswd:brush.obj
 0001:000c1789       ??0wxBrushRefData@@QAE@ABVwxColour@@H@Z 004c2789 f   wxmswd:brush.obj
 0001:000c17d7       ??0wxBrushRefData@@QAE@ABVwxBitmap@@@Z 004c27d7 f   wxmswd:brush.obj
 0001:000c1824       ??0wxBrushRefData@@QAE@ABV0@@Z 004c2824 f   wxmswd:brush.obj
 0001:000c187f       ??1wxBrushRefData@@UAE@XZ  004c287f f   wxmswd:brush.obj
 0001:000c18b9       ??8wxBrushRefData@@QBE_NABV0@@Z 004c28b9 f   wxmswd:brush.obj
 0001:000c191f       ?DoSetStipple@wxBrushRefData@@AAEXABVwxBitmap@@@Z 004c291f f   wxmswd:brush.obj
 0001:000c1952       ?Free@wxBrushRefData@@QAEXXZ 004c2952 f   wxmswd:brush.obj
 0001:000c197d       ?GetHBRUSH@wxBrushRefData@@QAEPAUHBRUSH__@@XZ 004c297d f   wxmswd:brush.obj
 0001:000c1b50       ??0wxBrush@@QAE@XZ         004c2b50 f   wxmswd:brush.obj
 0001:000c1b6f       ??0wxBrush@@QAE@ABVwxColour@@H@Z 004c2b6f f   wxmswd:brush.obj
 0001:000c1bca       ??0wxBrush@@QAE@ABVwxBitmap@@@Z 004c2bca f   wxmswd:brush.obj
 0001:000c1c21       ??1wxBrush@@UAE@XZ         004c2c21 f   wxmswd:brush.obj
 0001:000c1c3d       ??4wxBrush@@QAEAAV0@ABV0@@Z 004c2c3d f   wxmswd:brush.obj
 0001:000c1c6e       ??8wxBrush@@QBE_NABV0@@Z   004c2c6e f   wxmswd:brush.obj
 0001:000c1cd4       ?CreateRefData@wxBrush@@MBEPAVwxObjectRefData@@XZ 004c2cd4 f   wxmswd:brush.obj
 0001:000c1d12       ?CloneRefData@wxBrush@@MBEPAVwxObjectRefData@@PBV2@@Z 004c2d12 f   wxmswd:brush.obj
 0001:000c1d4f       ?GetColour@wxBrush@@QBE?AVwxColour@@XZ 004c2d4f f   wxmswd:brush.obj
 0001:000c1dc0       ?GetStyle@wxBrush@@QBEHXZ  004c2dc0 f   wxmswd:brush.obj
 0001:000c1e15       ?GetStipple@wxBrush@@QBEPAVwxBitmap@@XZ 004c2e15 f   wxmswd:brush.obj
 0001:000c1e6a       ?GetResourceHandle@wxBrush@@UBEKXZ 004c2e6a f   wxmswd:brush.obj
 0001:000c1ebf       ?SetColour@wxBrush@@UAEXABVwxColour@@@Z 004c2ebf f   wxmswd:brush.obj
 0001:000c1ee3       ?SetColour@wxBrush@@UAEXEEE@Z 004c2ee3 f   wxmswd:brush.obj
 0001:000c1f22       ?SetStyle@wxBrush@@UAEXH@Z 004c2f22 f   wxmswd:brush.obj
 0001:000c1f46       ?SetStipple@wxBrush@@UAEXABVwxBitmap@@@Z 004c2f46 f   wxmswd:brush.obj
 0001:000c1f70       ??_EwxBrushRefData@@UAEPAXI@Z 004c2f70 f i wxmswd:brush.obj
 0001:000c1f70       ??_GwxBrushRefData@@UAEPAXI@Z 004c2f70 f i wxmswd:brush.obj
 0001:000c1fa0       ?GetColour@wxBrushRefData@@QBEABVwxColour@@XZ 004c2fa0 f i wxmswd:brush.obj
 0001:000c1fc0       ?GetStyle@wxBrushRefData@@QBEHXZ 004c2fc0 f i wxmswd:brush.obj
 0001:000c1fe0       ?GetStipple@wxBrushRefData@@QAEPAVwxBitmap@@XZ 004c2fe0 f i wxmswd:brush.obj
 0001:000c2000       ?SetColour@wxBrushRefData@@QAEXABVwxColour@@@Z 004c3000 f i wxmswd:brush.obj
 0001:000c2030       ?SetStyle@wxBrushRefData@@QAEXH@Z 004c3030 f i wxmswd:brush.obj
 0001:000c2050       ?SetStipple@wxBrushRefData@@QAEXABVwxBitmap@@@Z 004c3050 f i wxmswd:brush.obj
 0001:000c2080       ??8wxBitmap@@QBE_NABV0@@Z  004c3080 f i wxmswd:brush.obj
 0001:000c20a0       ??9wxBrush@@QBE_NABV0@@Z   004c30a0 f i wxmswd:brush.obj
 0001:000c20d0       ??0wxIDropTarget@@QAE@PAVwxDropTarget@@@Z 004c30d0 f   wxmswd:droptgt.obj
 0001:000c2111       ??1wxIDropTarget@@UAE@XZ   004c3111 f   wxmswd:droptgt.obj
 0001:000c2125       ?QueryInterface@wxIDropTarget@@UAGJABU_GUID@@PAPAX@Z 004c3125 f   wxmswd:droptgt.obj
 0001:000c217f       ?AddRef@wxIDropTarget@@UAGKXZ 004c317f f   wxmswd:droptgt.obj
 0001:000c21b5       ?Release@wxIDropTarget@@UAGKXZ 004c31b5 f   wxmswd:droptgt.obj
 0001:000c222f       ?DragEnter@wxIDropTarget@@UAGJPAUIDataObject@@KU_POINTL@@PAK@Z 004c322f f   wxmswd:droptgt.obj
 0001:000c2339       ?DragOver@wxIDropTarget@@UAGJKU_POINTL@@PAK@Z 004c3339 f   wxmswd:droptgt.obj
 0001:000c23e0       ?DragLeave@wxIDropTarget@@UAGJXZ 004c33e0 f   wxmswd:droptgt.obj
 0001:000c2431       ?Drop@wxIDropTarget@@UAGJPAUIDataObject@@KU_POINTL@@PAK@Z 004c3431 f   wxmswd:droptgt.obj
 0001:000c257a       ??0wxDropTarget@@QAE@PAVwxDataObject@@@Z 004c357a f   wxmswd:droptgt.obj
 0001:000c25e7       ??1wxDropTarget@@UAE@XZ    004c35e7 f   wxmswd:droptgt.obj
 0001:000c2612       ?Register@wxDropTarget@@QAE_NK@Z 004c3612 f   wxmswd:droptgt.obj
 0001:000c26d9       ?Revoke@wxDropTarget@@QAEXK@Z 004c36d9 f   wxmswd:droptgt.obj
 0001:000c2746       ?OnDrop@wxDropTarget@@UAE_NHH@Z 004c3746 f   wxmswd:droptgt.obj
 0001:000c2755       ?GetData@wxDropTarget@@UAE_NXZ 004c3755 f   wxmswd:droptgt.obj
 0001:000c28a2       ?SetDataSource@wxDropTarget@@QAEXPAUIDataObject@@@Z 004c38a2 f   wxmswd:droptgt.obj
 0001:000c28b8       ?IsAcceptedData@wxDropTarget@@QBE_NPAUIDataObject@@@Z 004c38b8 f   wxmswd:droptgt.obj
 0001:000c28e0       ?GetSupportedFormat@wxDropTarget@@ABE?AVwxDataFormat@@PAUIDataObject@@@Z 004c38e0 f   wxmswd:droptgt.obj
 0001:000c2b20       ??0wxAutoULong@@QAE@K@Z    004c3b20 f i wxmswd:droptgt.obj
 0001:000c2b40       ??_GwxIDropTarget@@UAEPAXI@Z 004c3b40 f i wxmswd:droptgt.obj
 0001:000c2b40       ??_EwxIDropTarget@@UAEPAXI@Z 004c3b40 f i wxmswd:droptgt.obj
 0001:000c2b70       ??0IDropTarget@@QAE@XZ     004c3b70 f i wxmswd:droptgt.obj
 0001:000c2b90       ??0IUnknown@@QAE@XZ        004c3b90 f i wxmswd:droptgt.obj
 0001:000c2ba0       ??BwxAutoULong@@QAEAAKXZ   004c3ba0 f i wxmswd:droptgt.obj
 0001:000c2bb0       ??EwxAutoULong@@QAEAAV0@XZ 004c3bb0 f i wxmswd:droptgt.obj
 0001:000c2bd0       ??FwxAutoULong@@QAEAAV0@XZ 004c3bd0 f i wxmswd:droptgt.obj
 0001:000c2bf0       ?GetDropEffect@wxIDropTarget@@KAKK@Z 004c3bf0 f i wxmswd:droptgt.obj
 0001:000c2c10       ?wxIsDragResultOk@@YA_NW4wxDragResult@@@Z 004c3c10 f i wxmswd:droptgt.obj
 0001:000c2c40       ??0wxDropTargetBase@@QAE@PAVwxDataObject@@@Z 004c3c40 f i wxmswd:droptgt.obj
 0001:000c2c70       ?OnEnter@wxDropTargetBase@@UAE?AW4wxDragResult@@HHW42@@Z 004c3c70 f i wxmswd:droptgt.obj
 0001:000c2ca0       ?OnDragOver@wxDropTargetBase@@UAE?AW4wxDragResult@@HHW42@@Z 004c3ca0 f i wxmswd:droptgt.obj
 0001:000c2cb0       ?OnLeave@wxDropTargetBase@@UAEXXZ 004c3cb0 f i wxmswd:droptgt.obj
 0001:000c2cc0       ??_GwxDropTargetBase@@UAEPAXI@Z 004c3cc0 f i wxmswd:droptgt.obj
 0001:000c2cc0       ??_EwxDropTargetBase@@UAEPAXI@Z 004c3cc0 f i wxmswd:droptgt.obj
 0001:000c2cf0       ??1wxDropTargetBase@@UAE@XZ 004c3cf0 f i wxmswd:droptgt.obj
 0001:000c2d40       ??_GwxDropTarget@@UAEPAXI@Z 004c3d40 f i wxmswd:droptgt.obj
 0001:000c2d40       ??_EwxDropTarget@@UAEPAXI@Z 004c3d40 f i wxmswd:droptgt.obj
 0001:000c2d70       ?ReleaseInterface@@YAXPAUIUnknown@@@Z 004c3d70 f i wxmswd:droptgt.obj
 0001:000c2d90       ?SetHwnd@wxIDropTarget@@QAEXPAUHWND__@@@Z 004c3d90 f i wxmswd:droptgt.obj
 0001:000c2db0       ??8wxDataFormat@@QBE_NW4wxDataFormatId@@@Z 004c3db0 f i wxmswd:droptgt.obj
 0001:000c2de0       ??BwxDataFormat@@QBEGXZ    004c3de0 f i wxmswd:droptgt.obj
 0001:000c2e00       ?GetInterface@wxDataObject@@QBEPAUIDataObject@@XZ 004c3e00 f i wxmswd:droptgt.obj
 0001:000c2e20       ??9wxDataFormat@@QBE_NW4wxDataFormatId@@@Z 004c3e20 f i wxmswd:droptgt.obj
 0001:000c2e50       ??4wxDataFormat@@QAEAAV0@ABV0@@Z 004c3e50 f i wxmswd:droptgt.obj
 0001:000c2e70       ??_FwxDataFormat@@QAEXXZ   004c3e70 f i wxmswd:droptgt.obj
 0001:000c2f66       ?Enable@wxToolTip@@SAX_N@Z 004c3f66 f   wxmswd:tooltip.obj
 0001:000c2fa7       ?SetDelay@wxToolTip@@SAXJ@Z 004c3fa7 f   wxmswd:tooltip.obj
 0001:000c2fc6       ?GetToolTipCtrl@wxToolTip@@CAKXZ 004c3fc6 f   wxmswd:tooltip.obj
 0001:000c3039       ?RelayEvent@wxToolTip@@QAEXPAPAX@Z 004c4039 f   wxmswd:tooltip.obj
 0001:000c30cb       ??0wxToolTip@@QAE@ABVwxString@@@Z 004c40cb f   wxmswd:tooltip.obj
 0001:000c3105       ??1wxToolTip@@UAE@XZ       004c4105 f   wxmswd:tooltip.obj
 0001:000c312c       ?Remove@wxToolTip@@AAEXXZ  004c412c f   wxmswd:tooltip.obj
 0001:000c316f       ?Add@wxToolTip@@AAEXK@Z    004c416f f   wxmswd:tooltip.obj
 0001:000c3387       ?SetWindow@wxToolTip@@QAEXPAVwxWindow@@@Z 004c4387 f   wxmswd:tooltip.obj
 0001:000c3508       ?SetTip@wxToolTip@@QAEXABVwxString@@@Z 004c4508 f   wxmswd:tooltip.obj
 0001:000c3570       ?SendTooltipMessage@@YAJKIIPAX@Z 004c4570 f i wxmswd:tooltip.obj
 0001:000c35b0       ?GetClassInfo@wxToolTip@@UBEPAVwxClassInfo@@XZ 004c45b0 f i wxmswd:tooltip.obj
 0001:000c35c0       ??_EwxToolTip@@UAEPAXI@Z   004c45c0 f i wxmswd:tooltip.obj
 0001:000c35c0       ??_GwxToolTip@@UAEPAXI@Z   004c45c0 f i wxmswd:tooltip.obj
 0001:000c35f0       ??0wxToolInfo@@QAE@PAUHWND__@@@Z 004c45f0 f i wxmswd:tooltip.obj
 0001:000c3640       ??AwxArrayLong@@QBEAAJI@Z  004c4640 f i wxmswd:tooltip.obj
 0001:000c3736       ?wxConstructorForwxMemoryDC@@YAPAVwxObject@@XZ 004c4736 f   wxmswd:dcmemory.obj
 0001:000c37df       ??0wxMemoryDC@@QAE@XZ      004c47df f   wxmswd:dcmemory.obj
 0001:000c3810       ??0wxMemoryDC@@QAE@PAVwxDC@@@Z 004c4810 f   wxmswd:dcmemory.obj
 0001:000c388b       ?Init@wxMemoryDC@@IAEXXZ   004c488b f   wxmswd:dcmemory.obj
 0001:000c38df       ?CreateCompatible@wxMemoryDC@@IAE_NPAVwxDC@@@Z 004c48df f   wxmswd:dcmemory.obj
 0001:000c395d       ?SelectObject@wxMemoryDC@@UAEXABVwxBitmap@@@Z 004c495d f   wxmswd:dcmemory.obj
 0001:000c3adf       ?DoGetSize@wxMemoryDC@@MBEXPAH0@Z 004c4adf f   wxmswd:dcmemory.obj
 0001:000c3b3d       ?DoDrawRectangle@wxMemoryDC@@MAEXHHHH@Z 004c4b3d f   wxmswd:dcmemory.obj
 0001:000c3b70       ??_GwxMemoryDC@@UAEPAXI@Z  004c4b70 f i wxmswd:dcmemory.obj
 0001:000c3b70       ??_EwxMemoryDC@@UAEPAXI@Z  004c4b70 f i wxmswd:dcmemory.obj
 0001:000c3ba0       ?GetClassInfo@wxMemoryDC@@UBEPAVwxClassInfo@@XZ 004c4ba0 f i wxmswd:dcmemory.obj
 0001:000c3c86       ?wxConstructorForwxSpinCtrl@@YAPAVwxObject@@XZ 004c4c86 f   wxmswd:spinctrl.obj
 0001:000c3d2f       ?GetEventTable@wxSpinCtrl@@MBEPBUwxEventTable@@XZ 004c4d2f f   wxmswd:spinctrl.obj
 0001:000c3e15       ?wxBuddyTextWndProc@@YGJPAUHWND__@@IIJ@Z 004c4e15 f   wxmswd:spinctrl.obj
 0001:000c3fc8       ?GetSpinForTextCtrl@wxSpinCtrl@@SAPAV1@K@Z 004c4fc8 f   wxmswd:spinctrl.obj
 0001:000c402c       ?ProcessTextCommand@wxSpinCtrl@@QAE_NGG@Z 004c502c f   wxmswd:spinctrl.obj
 0001:000c416b       ?OnChar@wxSpinCtrl@@IAEXAAVwxKeyEvent@@@Z 004c516b f   wxmswd:spinctrl.obj
 0001:000c42c5       ?Create@wxSpinCtrl@@QAE_NPAVwxWindow@@HABVwxString@@ABVwxPoint@@ABVwxSize@@JHHH1@Z 004c52c5 f   wxmswd:spinctrl.obj
 0001:000c45da       ??1wxSpinCtrl@@UAE@XZ      004c55da f   wxmswd:spinctrl.obj
 0001:000c462c       ?SetValue@wxSpinCtrl@@QAEXABVwxString@@@Z 004c562c f   wxmswd:spinctrl.obj
 0001:000c4687       ?GetValue@wxSpinCtrl@@UBEHXZ 004c5687 f   wxmswd:spinctrl.obj
 0001:000c46e2       ?SetSelection@wxSpinCtrl@@QAEXJJ@Z 004c56e2 f   wxmswd:spinctrl.obj
 0001:000c471f       ?SetFont@wxSpinCtrl@@UAE_NABVwxFont@@@Z 004c571f f   wxmswd:spinctrl.obj
 0001:000c477a       ?Show@wxSpinCtrl@@UAE_N_N@Z 004c577a f   wxmswd:spinctrl.obj
 0001:000c47c3       ?Enable@wxSpinCtrl@@UAE_N_N@Z 004c57c3 f   wxmswd:spinctrl.obj
 0001:000c4805       ?SetFocus@wxSpinCtrl@@UAEXXZ 004c5805 f   wxmswd:spinctrl.obj
 0001:000c4820       ?OnSpinChange@wxSpinCtrl@@IAEXAAVwxSpinEvent@@@Z 004c5820 f   wxmswd:spinctrl.obj
 0001:000c48a0       ?DoGetBestSize@wxSpinCtrl@@MBE?AVwxSize@@XZ 004c58a0 f   wxmswd:spinctrl.obj
 0001:000c4917       ?DoMoveWindow@wxSpinCtrl@@MAEXHHHH@Z 004c5917 f   wxmswd:spinctrl.obj
 0001:000c4a10       ?DoGetSize@wxSpinCtrl@@MBEXPAH0@Z 004c5a10 f   wxmswd:spinctrl.obj
 0001:000c4a7a       ?DoGetPosition@wxSpinCtrl@@MBEXPAH0@Z 004c5a7a f   wxmswd:spinctrl.obj
 0001:000c4ad0       ??0wxSpinCtrl@@QAE@XZ      004c5ad0 f i wxmswd:spinctrl.obj
 0001:000c4af0       ?SetValue@wxSpinCtrl@@UAEXH@Z 004c5af0 f i wxmswd:spinctrl.obj
 0001:000c4b10       ?AcceptsFocus@wxSpinCtrl@@UBE_NXZ 004c5b10 f i wxmswd:spinctrl.obj
 0001:000c4b30       ?GetClassInfo@wxSpinCtrl@@UBEPAVwxClassInfo@@XZ 004c5b30 f i wxmswd:spinctrl.obj
 0001:000c4b40       ??_EwxSpinCtrl@@UAEPAXI@Z  004c5b40 f i wxmswd:spinctrl.obj
 0001:000c4b40       ??_GwxSpinCtrl@@UAEPAXI@Z  004c5b40 f i wxmswd:spinctrl.obj
 0001:000c4b70       ??0wxArraySpins@@QAE@XZ    004c5b70 f i wxmswd:spinctrl.obj
 0001:000c4b90       ??1wxArraySpins@@QAE@XZ    004c5b90 f i wxmswd:spinctrl.obj
 0001:000c4bb0       ?GetBuddyWndProc@wxSpinCtrl@@QBEP6GHXZXZ 004c5bb0 f i wxmswd:spinctrl.obj
 0001:000c4bd0       ?Index@wxArraySpins@@QBEHPAVwxSpinCtrl@@_N@Z 004c5bd0 f i wxmswd:spinctrl.obj
 0001:000c4bf0       ?Add@wxArraySpins@@QAEXPAVwxSpinCtrl@@I@Z 004c5bf0 f i wxmswd:spinctrl.obj
 0001:000c4c10       ?Remove@wxArraySpins@@QAEXPAVwxSpinCtrl@@@Z 004c5c10 f i wxmswd:spinctrl.obj
 0001:000c4c70       ?GetPosition@wxSpinEvent@@QBEHXZ 004c5c70 f i wxmswd:spinctrl.obj
 0001:000c4c90       ?SetWindowStyle@wxWindowBase@@QAEXJ@Z 004c5c90 f i wxmswd:spinctrl.obj
 0001:000c4cb0       ?DoDrawCheckMark@wxDCBase@@MAEXHHHH@Z 004c5cb0 f   wxmswd:dcbase.obj
 0001:000c4dd9       ?DrawLines@wxDCBase@@QAEXPBVwxList@@HH@Z 004c5dd9 f   wxmswd:dcbase.obj
 0001:000c4ec3       ?DrawPolygon@wxDCBase@@QAEXPBVwxList@@HHH@Z 004c5ec3 f   wxmswd:dcbase.obj
 0001:000c4fb1       ?DrawSpline@wxDCBase@@QAEXHHHHHH@Z 004c5fb1 f   wxmswd:dcbase.obj
 0001:000c50f9       ?DrawSpline@wxDCBase@@QAEXHQAVwxPoint@@@Z 004c60f9 f   wxmswd:dcbase.obj
 0001:000c5195       ?wx_quadratic_spline@@YAXNNNNNNNN@Z 004c6195 f   wxmswd:dcbase.obj
 0001:000c53dc       ?wx_clear_stack@@YAXXZ     004c63dc f   wxmswd:dcbase.obj
 0001:000c53f5       ?wx_spline_push@@YAXNNNNNNNN@Z 004c63f5 f   wxmswd:dcbase.obj
 0001:000c549d       ?wx_spline_pop@@YAHPAN0000000@Z 004c649d f   wxmswd:dcbase.obj
 0001:000c55d1       ?DoDrawSpline@wxDCBase@@MAEXPAVwxList@@@Z 004c65d1 f   wxmswd:dcbase.obj
 0001:000c588d       ?GetMultiLineTextExtent@wxDCBase@@UAEXABVwxString@@PAH11PAVwxFont@@@Z 004c688d f   wxmswd:dcbase.obj
 0001:000c59df       ?DrawLabel@wxDCBase@@UAEXABVwxString@@ABVwxBitmap@@ABVwxRect@@HHPAV4@@Z 004c69df f   wxmswd:dcbase.obj
 0001:000c5da0       ?Number@wxListBase@@QBEHXZ 004c6da0 f i wxmswd:dcbase.obj
 0001:000c5dc0       ?DrawSpline@wxDCBase@@QAEXPAVwxList@@@Z 004c6dc0 f i wxmswd:dcbase.obj
 0001:000c5f63       ?Init@wxTimer@@IAEXXZ      004c6f63 f   wxmswd:timer.obj
 0001:000c5f78       ??1wxTimer@@UAE@XZ         004c6f78 f   wxmswd:timer.obj
 0001:000c5faa       ?Start@wxTimer@@UAE_NH_N@Z 004c6faa f   wxmswd:timer.obj
 0001:000c6076       ?Stop@wxTimer@@UAEXXZ      004c7076 f   wxmswd:timer.obj
 0001:000c60b1       ?wxProcessTimer@@YAXAAVwxTimer@@@Z 004c70b1 f   wxmswd:timer.obj
 0001:000c60e8       ?wxTimerProc@@YGIPAUHWND__@@GHK@Z 004c70e8 f   wxmswd:timer.obj
 0001:000c6170       ?IsOneShot@wxTimerBase@@QBE_NXZ 004c7170 f i wxmswd:timer.obj
 0001:000c6190       ?wxConstructorForwxTimerEvent@@YAPAVwxObject@@XZ 004c7190 f   wxmswd:timercmn.obj
 0001:000c6237       ??1wxTimerBase@@UAE@XZ     004c7237 f   wxmswd:timercmn.obj
 0001:000c6253       ?Notify@wxTimerBase@@UAEXXZ 004c7253 f   wxmswd:timercmn.obj
 0001:000c62c6       ?Start@wxTimerBase@@UAE_NH_N@Z 004c72c6 f   wxmswd:timercmn.obj
 0001:000c6339       ?Start@wxStopWatch@@QAEXJ@Z 004c7339 f   wxmswd:timercmn.obj
 0001:000c637c       ?GetElapsedTime@wxStopWatch@@IBEJXZ 004c737c f   wxmswd:timercmn.obj
 0001:000c63ab       ?Time@wxStopWatch@@QBEJXZ  004c73ab f   wxmswd:timercmn.obj
 0001:000c63f7       ?wxStartTimer@@YAXXZ       004c73f7 f   wxmswd:timercmn.obj
 0001:000c641e       ?wxGetElapsedTime@@YAJ_N@Z 004c741e f   wxmswd:timercmn.obj
 0001:000c6485       ?wxGetLocalTime@@YAJXZ     004c7485 f   wxmswd:timercmn.obj
 0001:000c6532       ?wxGetUTCTime@@YAJXZ       004c7532 f   wxmswd:timercmn.obj
 0001:000c6653       ?wxGetLocalTimeMillis@@YA?AVwxLongLongNative@@XZ 004c7653 f   wxmswd:timercmn.obj
 0001:000c66b0       ?GetLo@wxLongLongNative@@QBEKXZ 004c76b0 f i wxmswd:timercmn.obj
 0001:000c66c0       ??HwxLongLongNative@@QBE?AV0@_J@Z 004c76c0 f i wxmswd:timercmn.obj
 0001:000c6700       ??GwxLongLongNative@@QBE?AV0@ABV0@@Z 004c7700 f i wxmswd:timercmn.obj
 0001:000c6740       ??GwxLongLongNative@@QBE?AV0@_J@Z 004c7740 f i wxmswd:timercmn.obj
 0001:000c6780       ??0wxTimerEvent@@QAE@HH@Z  004c7780 f i wxmswd:timercmn.obj
 0001:000c67c0       ?Clone@wxTimerEvent@@UBEPAVwxEvent@@XZ 004c77c0 f i wxmswd:timercmn.obj
 0001:000c6800       ?GetClassInfo@wxTimerEvent@@UBEPAVwxClassInfo@@XZ 004c7800 f i wxmswd:timercmn.obj
 0001:000c6810       ??_EwxTimerEvent@@UAEPAXI@Z 004c7810 f i wxmswd:timercmn.obj
 0001:000c6810       ??_GwxTimerEvent@@UAEPAXI@Z 004c7810 f i wxmswd:timercmn.obj
 0001:000c6840       ??0wxTimerEvent@@QAE@ABV0@@Z 004c7840 f i wxmswd:timercmn.obj
 0001:000c6880       ??1wxTimerEvent@@UAE@XZ    004c7880 f i wxmswd:timercmn.obj
 0001:000c68a0       ?Get@wxMessageOutput@@SAPAV1@XZ 004c78a0 f   wxmswd:msgout.obj
 0001:000c68d1       ?Set@wxMessageOutput@@SAPAV1@PAV1@@Z 004c78d1 f   wxmswd:msgout.obj
 0001:000c68ed       ?Printf@wxMessageOutputStderr@@UAAXPBDZZ 004c78ed f   wxmswd:msgout.obj
 0001:000c6944       ?Printf@wxMessageOutputMessageBox@@UAAXPBDZZ 004c7944 f   wxmswd:msgout.obj
 0001:000c69e5       ?Printf@wxMessageOutputLog@@UAAXPBDZZ 004c79e5 f   wxmswd:msgout.obj
 0001:000c6a50       ??0wxConfigBase@@QAE@ABVwxString@@000J@Z 004c7a50 f   wxmswd:config.obj
 0001:000c6a9e       ??1wxConfigBase@@UAE@XZ    004c7a9e f   wxmswd:config.obj
 0001:000c6ac8       ?Set@wxConfigBase@@SAPAV1@PAV1@@Z 004c7ac8 f   wxmswd:config.obj
 0001:000c6ae4       ?Create@wxConfigBase@@SAPAV1@XZ 004c7ae4 f   wxmswd:config.obj
 0001:000c6bd8       ?Read@wxConfigBase@@QBE_NABVwxString@@PAV2@@Z 004c7bd8 f   wxmswd:config.obj
 0001:000c6c5e       ?Read@wxConfigBase@@QBE_NABVwxString@@PAV2@0@Z 004c7c5e f   wxmswd:config.obj
 0001:000c6d17       ?Read@wxConfigBase@@QBE_NABVwxString@@PAJ@Z 004c7d17 f   wxmswd:config.obj
 0001:000c6d84       ?Read@wxConfigBase@@QBE_NABVwxString@@PAJJ@Z 004c7d84 f   wxmswd:config.obj
 0001:000c6e22       ?Read@wxConfigBase@@QBE_NABVwxString@@PAH@Z 004c7e22 f   wxmswd:config.obj
 0001:000c6e8f       ?Read@wxConfigBase@@QBE_NABVwxString@@PAHH@Z 004c7e8f f   wxmswd:config.obj
 0001:000c6f2d       ?Read@wxConfigBase@@QBE_NABVwxString@@PAN@Z 004c7f2d f   wxmswd:config.obj
 0001:000c6fa0       ?Read@wxConfigBase@@QBE_NABVwxString@@PANN@Z 004c7fa0 f   wxmswd:config.obj
 0001:000c704e       ?Read@wxConfigBase@@QBE_NABVwxString@@PA_N@Z 004c804e f   wxmswd:config.obj
 0001:000c70bb       ?Read@wxConfigBase@@QBE_NABVwxString@@PA_N_N@Z 004c80bb f   wxmswd:config.obj
 0001:000c7159       ?DoReadInt@wxConfigBase@@MBE_NABVwxString@@PAH@Z 004c8159 f   wxmswd:config.obj
 0001:000c71ef       ?DoReadBool@wxConfigBase@@MBE_NABVwxString@@PA_N@Z 004c81ef f   wxmswd:config.obj
 0001:000c729e       ?DoReadDouble@wxConfigBase@@MBE_NABVwxString@@PAN@Z 004c829e f   wxmswd:config.obj
 0001:000c72f9       ?ExpandEnvVars@wxConfigBase@@QBE?AVwxString@@ABV2@@Z 004c82f9 f   wxmswd:config.obj
 0001:000c7367       ?DoWriteDouble@wxConfigBase@@MAE_NABVwxString@@N@Z 004c8367 f   wxmswd:config.obj
 0001:000c73ad       ?DoWriteInt@wxConfigBase@@MAE_NABVwxString@@H@Z 004c83ad f   wxmswd:config.obj
 0001:000c73cd       ?DoWriteBool@wxConfigBase@@MAE_NABVwxString@@_N@Z 004c83cd f   wxmswd:config.obj
 0001:000c73f8       ??0wxConfigPathChanger@@QAE@PBVwxConfigBase@@ABVwxString@@@Z 004c83f8 f   wxmswd:config.obj
 0001:000c752f       ??1wxConfigPathChanger@@QAE@XZ 004c852f f   wxmswd:config.obj
 0001:000c7572       ?wxExpandEnvVars@@YA?AVwxString@@ABV1@@Z 004c8572 f   wxmswd:config.obj
 0001:000c782e       ?wxSplitPath@@YAXAAVwxArrayString@@PBD@Z 004c882e f   wxmswd:config.obj
 0001:000c7950       ?GetEntryType@wxConfigBase@@UBE?AW4EntryType@1@ABVwxString@@@Z 004c8950 f i wxmswd:config.obj
 0001:000c7980       ??_GwxConfigBase@@UAEPAXI@Z 004c8980 f i wxmswd:config.obj
 0001:000c7980       ??_EwxConfigBase@@UAEPAXI@Z 004c8980 f i wxmswd:config.obj
 0001:000c79b0       ?IsRecordingDefaults@wxConfigBase@@QBE_NXZ 004c89b0 f i wxmswd:config.obj
 0001:000c79d0       ?IsExpandingEnvVars@wxConfigBase@@QBE_NXZ 004c89d0 f i wxmswd:config.obj
 0001:000c79f0       ?IsEmpty@wxArrayString@@QBE_NXZ 004c89f0 f i wxmswd:config.obj
 0001:000c7a10       ?GetVendorName@wxAppBase@@QBEABVwxString@@XZ 004c8a10 f i wxmswd:config.obj
 0001:000c7b06       ?GetEventTable@wxLogDialog@@MBEPBUwxEventTable@@XZ 004c8b06 f   wxmswd:logg.obj
 0001:000c7bdf       ?wxVLogStatus@@YAXPAVwxFrame@@PBDPAD@Z 004c8bdf f   wxmswd:logg.obj
 0001:000c7c6e       ?wxLogStatus@@YAXPAVwxFrame@@PBDZZ 004c8c6e f   wxmswd:logg.obj
 0001:000c7c97       ??0wxLogGui@@QAE@XZ        004c8c97 f   wxmswd:logg.obj
 0001:000c7cdf       ?Clear@wxLogGui@@IAEXXZ    004c8cdf f   wxmswd:logg.obj
 0001:000c7d20       ?Flush@wxLogGui@@UAEXXZ    004c8d20 f   wxmswd:logg.obj
 0001:000c7f2f       ?DoLog@wxLogGui@@MAEXKPBDJ@Z 004c8f2f f   wxmswd:logg.obj
 0001:000c817b       ?GetEventTable@wxLogFrame@@MBEPBUwxEventTable@@XZ 004c917b f   wxmswd:logg.obj
 0001:000c8254       ??0wxLogFrame@@QAE@PAVwxFrame@@PAVwxLogWindow@@PBD@Z 004c9254 f   wxmswd:logg.obj
 0001:000c8576       ?DoClose@wxLogFrame@@AAEXXZ 004c9576 f   wxmswd:logg.obj
 0001:000c85b2       ?OnClose@wxLogFrame@@QAEXAAVwxCommandEvent@@@Z 004c95b2 f   wxmswd:logg.obj
 0001:000c85c7       ?OnCloseWindow@wxLogFrame@@QAEXAAVwxCloseEvent@@@Z 004c95c7 f   wxmswd:logg.obj
 0001:000c85dc       ?OnSave@wxLogFrame@@QAEXAAVwxCommandEvent@@@Z 004c95dc f   wxmswd:logg.obj
 0001:000c874a       ?OnClear@wxLogFrame@@QAEXAAVwxCommandEvent@@@Z 004c974a f   wxmswd:logg.obj
 0001:000c8771       ??1wxLogFrame@@UAE@XZ      004c9771 f   wxmswd:logg.obj
